
THE_BRAINS.elf:     file format elf32-littlearm

Sections:
Idx Name          Size      VMA       LMA       File off  Algn
  0 .isr_vector   000000c0  08000000  08000000  00010000  2**0
                  CONTENTS, ALLOC, LOAD, READONLY, DATA
  1 .text         00004cb8  080000c0  080000c0  000100c0  2**2
                  CONTENTS, ALLOC, LOAD, READONLY, CODE
  2 .rodata       00000000  08004d78  08004d78  00020290  2**0
                  CONTENTS, ALLOC, LOAD, DATA
  3 .ARM.extab    00000000  08004d78  08004d78  00020290  2**0
                  CONTENTS
  4 .ARM          00000008  08004d78  08004d78  00014d78  2**2
                  CONTENTS, ALLOC, LOAD, READONLY, DATA
  5 .preinit_array 00000000  08004d80  08004d80  00020290  2**0
                  CONTENTS, ALLOC, LOAD, DATA
  6 .init_array   00000004  08004d80  08004d80  00014d80  2**2
                  CONTENTS, ALLOC, LOAD, DATA
  7 .fini_array   00000004  08004d84  08004d84  00014d84  2**2
                  CONTENTS, ALLOC, LOAD, DATA
  8 .data         00000290  20000000  08004d88  00020000  2**2
                  CONTENTS, ALLOC, LOAD, DATA
  9 .bss          0000025c  20000290  08005018  00020290  2**2
                  ALLOC
 10 ._user_heap_stack 00000604  200004ec  08005018  000204ec  2**0
                  ALLOC
 11 .ARM.attributes 00000028  00000000  00000000  00020290  2**0
                  CONTENTS, READONLY
 12 .debug_info   00007ed3  00000000  00000000  000202b8  2**0
                  CONTENTS, READONLY, DEBUGGING, OCTETS
 13 .debug_abbrev 000029b3  00000000  00000000  0002818b  2**0
                  CONTENTS, READONLY, DEBUGGING, OCTETS
 14 .debug_aranges 00000918  00000000  00000000  0002ab40  2**3
                  CONTENTS, READONLY, DEBUGGING, OCTETS
 15 .debug_ranges 00000848  00000000  00000000  0002b458  2**3
                  CONTENTS, READONLY, DEBUGGING, OCTETS
 16 .debug_macro  0001654e  00000000  00000000  0002bca0  2**0
                  CONTENTS, READONLY, DEBUGGING, OCTETS
 17 .debug_line   0000e950  00000000  00000000  000421ee  2**0
                  CONTENTS, READONLY, DEBUGGING, OCTETS
 18 .debug_str    0007f64e  00000000  00000000  00050b3e  2**0
                  CONTENTS, READONLY, DEBUGGING, OCTETS
 19 .comment      00000050  00000000  00000000  000d018c  2**0
                  CONTENTS, READONLY
 20 .debug_frame  00001d24  00000000  00000000  000d01dc  2**2
                  CONTENTS, READONLY, DEBUGGING, OCTETS

Disassembly of section .text:

080000c0 <__do_global_dtors_aux>:
 80000c0:	b510      	push	{r4, lr}
 80000c2:	4c06      	ldr	r4, [pc, #24]	; (80000dc <__do_global_dtors_aux+0x1c>)
 80000c4:	7823      	ldrb	r3, [r4, #0]
 80000c6:	2b00      	cmp	r3, #0
 80000c8:	d107      	bne.n	80000da <__do_global_dtors_aux+0x1a>
 80000ca:	4b05      	ldr	r3, [pc, #20]	; (80000e0 <__do_global_dtors_aux+0x20>)
 80000cc:	2b00      	cmp	r3, #0
 80000ce:	d002      	beq.n	80000d6 <__do_global_dtors_aux+0x16>
 80000d0:	4804      	ldr	r0, [pc, #16]	; (80000e4 <__do_global_dtors_aux+0x24>)
 80000d2:	e000      	b.n	80000d6 <__do_global_dtors_aux+0x16>
 80000d4:	bf00      	nop
 80000d6:	2301      	movs	r3, #1
 80000d8:	7023      	strb	r3, [r4, #0]
 80000da:	bd10      	pop	{r4, pc}
 80000dc:	20000290 	.word	0x20000290
 80000e0:	00000000 	.word	0x00000000
 80000e4:	08004d60 	.word	0x08004d60

080000e8 <frame_dummy>:
 80000e8:	4b04      	ldr	r3, [pc, #16]	; (80000fc <frame_dummy+0x14>)
 80000ea:	b510      	push	{r4, lr}
 80000ec:	2b00      	cmp	r3, #0
 80000ee:	d003      	beq.n	80000f8 <frame_dummy+0x10>
 80000f0:	4903      	ldr	r1, [pc, #12]	; (8000100 <frame_dummy+0x18>)
 80000f2:	4804      	ldr	r0, [pc, #16]	; (8000104 <frame_dummy+0x1c>)
 80000f4:	e000      	b.n	80000f8 <frame_dummy+0x10>
 80000f6:	bf00      	nop
 80000f8:	bd10      	pop	{r4, pc}
 80000fa:	46c0      	nop			; (mov r8, r8)
 80000fc:	00000000 	.word	0x00000000
 8000100:	20000294 	.word	0x20000294
 8000104:	08004d60 	.word	0x08004d60

08000108 <__udivsi3>:
 8000108:	2200      	movs	r2, #0
 800010a:	0843      	lsrs	r3, r0, #1
 800010c:	428b      	cmp	r3, r1
 800010e:	d374      	bcc.n	80001fa <__udivsi3+0xf2>
 8000110:	0903      	lsrs	r3, r0, #4
 8000112:	428b      	cmp	r3, r1
 8000114:	d35f      	bcc.n	80001d6 <__udivsi3+0xce>
 8000116:	0a03      	lsrs	r3, r0, #8
 8000118:	428b      	cmp	r3, r1
 800011a:	d344      	bcc.n	80001a6 <__udivsi3+0x9e>
 800011c:	0b03      	lsrs	r3, r0, #12
 800011e:	428b      	cmp	r3, r1
 8000120:	d328      	bcc.n	8000174 <__udivsi3+0x6c>
 8000122:	0c03      	lsrs	r3, r0, #16
 8000124:	428b      	cmp	r3, r1
 8000126:	d30d      	bcc.n	8000144 <__udivsi3+0x3c>
 8000128:	22ff      	movs	r2, #255	; 0xff
 800012a:	0209      	lsls	r1, r1, #8
 800012c:	ba12      	rev	r2, r2
 800012e:	0c03      	lsrs	r3, r0, #16
 8000130:	428b      	cmp	r3, r1
 8000132:	d302      	bcc.n	800013a <__udivsi3+0x32>
 8000134:	1212      	asrs	r2, r2, #8
 8000136:	0209      	lsls	r1, r1, #8
 8000138:	d065      	beq.n	8000206 <__udivsi3+0xfe>
 800013a:	0b03      	lsrs	r3, r0, #12
 800013c:	428b      	cmp	r3, r1
 800013e:	d319      	bcc.n	8000174 <__udivsi3+0x6c>
 8000140:	e000      	b.n	8000144 <__udivsi3+0x3c>
 8000142:	0a09      	lsrs	r1, r1, #8
 8000144:	0bc3      	lsrs	r3, r0, #15
 8000146:	428b      	cmp	r3, r1
 8000148:	d301      	bcc.n	800014e <__udivsi3+0x46>
 800014a:	03cb      	lsls	r3, r1, #15
 800014c:	1ac0      	subs	r0, r0, r3
 800014e:	4152      	adcs	r2, r2
 8000150:	0b83      	lsrs	r3, r0, #14
 8000152:	428b      	cmp	r3, r1
 8000154:	d301      	bcc.n	800015a <__udivsi3+0x52>
 8000156:	038b      	lsls	r3, r1, #14
 8000158:	1ac0      	subs	r0, r0, r3
 800015a:	4152      	adcs	r2, r2
 800015c:	0b43      	lsrs	r3, r0, #13
 800015e:	428b      	cmp	r3, r1
 8000160:	d301      	bcc.n	8000166 <__udivsi3+0x5e>
 8000162:	034b      	lsls	r3, r1, #13
 8000164:	1ac0      	subs	r0, r0, r3
 8000166:	4152      	adcs	r2, r2
 8000168:	0b03      	lsrs	r3, r0, #12
 800016a:	428b      	cmp	r3, r1
 800016c:	d301      	bcc.n	8000172 <__udivsi3+0x6a>
 800016e:	030b      	lsls	r3, r1, #12
 8000170:	1ac0      	subs	r0, r0, r3
 8000172:	4152      	adcs	r2, r2
 8000174:	0ac3      	lsrs	r3, r0, #11
 8000176:	428b      	cmp	r3, r1
 8000178:	d301      	bcc.n	800017e <__udivsi3+0x76>
 800017a:	02cb      	lsls	r3, r1, #11
 800017c:	1ac0      	subs	r0, r0, r3
 800017e:	4152      	adcs	r2, r2
 8000180:	0a83      	lsrs	r3, r0, #10
 8000182:	428b      	cmp	r3, r1
 8000184:	d301      	bcc.n	800018a <__udivsi3+0x82>
 8000186:	028b      	lsls	r3, r1, #10
 8000188:	1ac0      	subs	r0, r0, r3
 800018a:	4152      	adcs	r2, r2
 800018c:	0a43      	lsrs	r3, r0, #9
 800018e:	428b      	cmp	r3, r1
 8000190:	d301      	bcc.n	8000196 <__udivsi3+0x8e>
 8000192:	024b      	lsls	r3, r1, #9
 8000194:	1ac0      	subs	r0, r0, r3
 8000196:	4152      	adcs	r2, r2
 8000198:	0a03      	lsrs	r3, r0, #8
 800019a:	428b      	cmp	r3, r1
 800019c:	d301      	bcc.n	80001a2 <__udivsi3+0x9a>
 800019e:	020b      	lsls	r3, r1, #8
 80001a0:	1ac0      	subs	r0, r0, r3
 80001a2:	4152      	adcs	r2, r2
 80001a4:	d2cd      	bcs.n	8000142 <__udivsi3+0x3a>
 80001a6:	09c3      	lsrs	r3, r0, #7
 80001a8:	428b      	cmp	r3, r1
 80001aa:	d301      	bcc.n	80001b0 <__udivsi3+0xa8>
 80001ac:	01cb      	lsls	r3, r1, #7
 80001ae:	1ac0      	subs	r0, r0, r3
 80001b0:	4152      	adcs	r2, r2
 80001b2:	0983      	lsrs	r3, r0, #6
 80001b4:	428b      	cmp	r3, r1
 80001b6:	d301      	bcc.n	80001bc <__udivsi3+0xb4>
 80001b8:	018b      	lsls	r3, r1, #6
 80001ba:	1ac0      	subs	r0, r0, r3
 80001bc:	4152      	adcs	r2, r2
 80001be:	0943      	lsrs	r3, r0, #5
 80001c0:	428b      	cmp	r3, r1
 80001c2:	d301      	bcc.n	80001c8 <__udivsi3+0xc0>
 80001c4:	014b      	lsls	r3, r1, #5
 80001c6:	1ac0      	subs	r0, r0, r3
 80001c8:	4152      	adcs	r2, r2
 80001ca:	0903      	lsrs	r3, r0, #4
 80001cc:	428b      	cmp	r3, r1
 80001ce:	d301      	bcc.n	80001d4 <__udivsi3+0xcc>
 80001d0:	010b      	lsls	r3, r1, #4
 80001d2:	1ac0      	subs	r0, r0, r3
 80001d4:	4152      	adcs	r2, r2
 80001d6:	08c3      	lsrs	r3, r0, #3
 80001d8:	428b      	cmp	r3, r1
 80001da:	d301      	bcc.n	80001e0 <__udivsi3+0xd8>
 80001dc:	00cb      	lsls	r3, r1, #3
 80001de:	1ac0      	subs	r0, r0, r3
 80001e0:	4152      	adcs	r2, r2
 80001e2:	0883      	lsrs	r3, r0, #2
 80001e4:	428b      	cmp	r3, r1
 80001e6:	d301      	bcc.n	80001ec <__udivsi3+0xe4>
 80001e8:	008b      	lsls	r3, r1, #2
 80001ea:	1ac0      	subs	r0, r0, r3
 80001ec:	4152      	adcs	r2, r2
 80001ee:	0843      	lsrs	r3, r0, #1
 80001f0:	428b      	cmp	r3, r1
 80001f2:	d301      	bcc.n	80001f8 <__udivsi3+0xf0>
 80001f4:	004b      	lsls	r3, r1, #1
 80001f6:	1ac0      	subs	r0, r0, r3
 80001f8:	4152      	adcs	r2, r2
 80001fa:	1a41      	subs	r1, r0, r1
 80001fc:	d200      	bcs.n	8000200 <__udivsi3+0xf8>
 80001fe:	4601      	mov	r1, r0
 8000200:	4152      	adcs	r2, r2
 8000202:	4610      	mov	r0, r2
 8000204:	4770      	bx	lr
 8000206:	e7ff      	b.n	8000208 <__udivsi3+0x100>
 8000208:	b501      	push	{r0, lr}
 800020a:	2000      	movs	r0, #0
 800020c:	f000 f8f0 	bl	80003f0 <__aeabi_idiv0>
 8000210:	bd02      	pop	{r1, pc}
 8000212:	46c0      	nop			; (mov r8, r8)

08000214 <__aeabi_uidivmod>:
 8000214:	2900      	cmp	r1, #0
 8000216:	d0f7      	beq.n	8000208 <__udivsi3+0x100>
 8000218:	e776      	b.n	8000108 <__udivsi3>
 800021a:	4770      	bx	lr

0800021c <__divsi3>:
 800021c:	4603      	mov	r3, r0
 800021e:	430b      	orrs	r3, r1
 8000220:	d47f      	bmi.n	8000322 <__divsi3+0x106>
 8000222:	2200      	movs	r2, #0
 8000224:	0843      	lsrs	r3, r0, #1
 8000226:	428b      	cmp	r3, r1
 8000228:	d374      	bcc.n	8000314 <__divsi3+0xf8>
 800022a:	0903      	lsrs	r3, r0, #4
 800022c:	428b      	cmp	r3, r1
 800022e:	d35f      	bcc.n	80002f0 <__divsi3+0xd4>
 8000230:	0a03      	lsrs	r3, r0, #8
 8000232:	428b      	cmp	r3, r1
 8000234:	d344      	bcc.n	80002c0 <__divsi3+0xa4>
 8000236:	0b03      	lsrs	r3, r0, #12
 8000238:	428b      	cmp	r3, r1
 800023a:	d328      	bcc.n	800028e <__divsi3+0x72>
 800023c:	0c03      	lsrs	r3, r0, #16
 800023e:	428b      	cmp	r3, r1
 8000240:	d30d      	bcc.n	800025e <__divsi3+0x42>
 8000242:	22ff      	movs	r2, #255	; 0xff
 8000244:	0209      	lsls	r1, r1, #8
 8000246:	ba12      	rev	r2, r2
 8000248:	0c03      	lsrs	r3, r0, #16
 800024a:	428b      	cmp	r3, r1
 800024c:	d302      	bcc.n	8000254 <__divsi3+0x38>
 800024e:	1212      	asrs	r2, r2, #8
 8000250:	0209      	lsls	r1, r1, #8
 8000252:	d065      	beq.n	8000320 <__divsi3+0x104>
 8000254:	0b03      	lsrs	r3, r0, #12
 8000256:	428b      	cmp	r3, r1
 8000258:	d319      	bcc.n	800028e <__divsi3+0x72>
 800025a:	e000      	b.n	800025e <__divsi3+0x42>
 800025c:	0a09      	lsrs	r1, r1, #8
 800025e:	0bc3      	lsrs	r3, r0, #15
 8000260:	428b      	cmp	r3, r1
 8000262:	d301      	bcc.n	8000268 <__divsi3+0x4c>
 8000264:	03cb      	lsls	r3, r1, #15
 8000266:	1ac0      	subs	r0, r0, r3
 8000268:	4152      	adcs	r2, r2
 800026a:	0b83      	lsrs	r3, r0, #14
 800026c:	428b      	cmp	r3, r1
 800026e:	d301      	bcc.n	8000274 <__divsi3+0x58>
 8000270:	038b      	lsls	r3, r1, #14
 8000272:	1ac0      	subs	r0, r0, r3
 8000274:	4152      	adcs	r2, r2
 8000276:	0b43      	lsrs	r3, r0, #13
 8000278:	428b      	cmp	r3, r1
 800027a:	d301      	bcc.n	8000280 <__divsi3+0x64>
 800027c:	034b      	lsls	r3, r1, #13
 800027e:	1ac0      	subs	r0, r0, r3
 8000280:	4152      	adcs	r2, r2
 8000282:	0b03      	lsrs	r3, r0, #12
 8000284:	428b      	cmp	r3, r1
 8000286:	d301      	bcc.n	800028c <__divsi3+0x70>
 8000288:	030b      	lsls	r3, r1, #12
 800028a:	1ac0      	subs	r0, r0, r3
 800028c:	4152      	adcs	r2, r2
 800028e:	0ac3      	lsrs	r3, r0, #11
 8000290:	428b      	cmp	r3, r1
 8000292:	d301      	bcc.n	8000298 <__divsi3+0x7c>
 8000294:	02cb      	lsls	r3, r1, #11
 8000296:	1ac0      	subs	r0, r0, r3
 8000298:	4152      	adcs	r2, r2
 800029a:	0a83      	lsrs	r3, r0, #10
 800029c:	428b      	cmp	r3, r1
 800029e:	d301      	bcc.n	80002a4 <__divsi3+0x88>
 80002a0:	028b      	lsls	r3, r1, #10
 80002a2:	1ac0      	subs	r0, r0, r3
 80002a4:	4152      	adcs	r2, r2
 80002a6:	0a43      	lsrs	r3, r0, #9
 80002a8:	428b      	cmp	r3, r1
 80002aa:	d301      	bcc.n	80002b0 <__divsi3+0x94>
 80002ac:	024b      	lsls	r3, r1, #9
 80002ae:	1ac0      	subs	r0, r0, r3
 80002b0:	4152      	adcs	r2, r2
 80002b2:	0a03      	lsrs	r3, r0, #8
 80002b4:	428b      	cmp	r3, r1
 80002b6:	d301      	bcc.n	80002bc <__divsi3+0xa0>
 80002b8:	020b      	lsls	r3, r1, #8
 80002ba:	1ac0      	subs	r0, r0, r3
 80002bc:	4152      	adcs	r2, r2
 80002be:	d2cd      	bcs.n	800025c <__divsi3+0x40>
 80002c0:	09c3      	lsrs	r3, r0, #7
 80002c2:	428b      	cmp	r3, r1
 80002c4:	d301      	bcc.n	80002ca <__divsi3+0xae>
 80002c6:	01cb      	lsls	r3, r1, #7
 80002c8:	1ac0      	subs	r0, r0, r3
 80002ca:	4152      	adcs	r2, r2
 80002cc:	0983      	lsrs	r3, r0, #6
 80002ce:	428b      	cmp	r3, r1
 80002d0:	d301      	bcc.n	80002d6 <__divsi3+0xba>
 80002d2:	018b      	lsls	r3, r1, #6
 80002d4:	1ac0      	subs	r0, r0, r3
 80002d6:	4152      	adcs	r2, r2
 80002d8:	0943      	lsrs	r3, r0, #5
 80002da:	428b      	cmp	r3, r1
 80002dc:	d301      	bcc.n	80002e2 <__divsi3+0xc6>
 80002de:	014b      	lsls	r3, r1, #5
 80002e0:	1ac0      	subs	r0, r0, r3
 80002e2:	4152      	adcs	r2, r2
 80002e4:	0903      	lsrs	r3, r0, #4
 80002e6:	428b      	cmp	r3, r1
 80002e8:	d301      	bcc.n	80002ee <__divsi3+0xd2>
 80002ea:	010b      	lsls	r3, r1, #4
 80002ec:	1ac0      	subs	r0, r0, r3
 80002ee:	4152      	adcs	r2, r2
 80002f0:	08c3      	lsrs	r3, r0, #3
 80002f2:	428b      	cmp	r3, r1
 80002f4:	d301      	bcc.n	80002fa <__divsi3+0xde>
 80002f6:	00cb      	lsls	r3, r1, #3
 80002f8:	1ac0      	subs	r0, r0, r3
 80002fa:	4152      	adcs	r2, r2
 80002fc:	0883      	lsrs	r3, r0, #2
 80002fe:	428b      	cmp	r3, r1
 8000300:	d301      	bcc.n	8000306 <__divsi3+0xea>
 8000302:	008b      	lsls	r3, r1, #2
 8000304:	1ac0      	subs	r0, r0, r3
 8000306:	4152      	adcs	r2, r2
 8000308:	0843      	lsrs	r3, r0, #1
 800030a:	428b      	cmp	r3, r1
 800030c:	d301      	bcc.n	8000312 <__divsi3+0xf6>
 800030e:	004b      	lsls	r3, r1, #1
 8000310:	1ac0      	subs	r0, r0, r3
 8000312:	4152      	adcs	r2, r2
 8000314:	1a41      	subs	r1, r0, r1
 8000316:	d200      	bcs.n	800031a <__divsi3+0xfe>
 8000318:	4601      	mov	r1, r0
 800031a:	4152      	adcs	r2, r2
 800031c:	4610      	mov	r0, r2
 800031e:	4770      	bx	lr
 8000320:	e05d      	b.n	80003de <__divsi3+0x1c2>
 8000322:	0fca      	lsrs	r2, r1, #31
 8000324:	d000      	beq.n	8000328 <__divsi3+0x10c>
 8000326:	4249      	negs	r1, r1
 8000328:	1003      	asrs	r3, r0, #32
 800032a:	d300      	bcc.n	800032e <__divsi3+0x112>
 800032c:	4240      	negs	r0, r0
 800032e:	4053      	eors	r3, r2
 8000330:	2200      	movs	r2, #0
 8000332:	469c      	mov	ip, r3
 8000334:	0903      	lsrs	r3, r0, #4
 8000336:	428b      	cmp	r3, r1
 8000338:	d32d      	bcc.n	8000396 <__divsi3+0x17a>
 800033a:	0a03      	lsrs	r3, r0, #8
 800033c:	428b      	cmp	r3, r1
 800033e:	d312      	bcc.n	8000366 <__divsi3+0x14a>
 8000340:	22fc      	movs	r2, #252	; 0xfc
 8000342:	0189      	lsls	r1, r1, #6
 8000344:	ba12      	rev	r2, r2
 8000346:	0a03      	lsrs	r3, r0, #8
 8000348:	428b      	cmp	r3, r1
 800034a:	d30c      	bcc.n	8000366 <__divsi3+0x14a>
 800034c:	0189      	lsls	r1, r1, #6
 800034e:	1192      	asrs	r2, r2, #6
 8000350:	428b      	cmp	r3, r1
 8000352:	d308      	bcc.n	8000366 <__divsi3+0x14a>
 8000354:	0189      	lsls	r1, r1, #6
 8000356:	1192      	asrs	r2, r2, #6
 8000358:	428b      	cmp	r3, r1
 800035a:	d304      	bcc.n	8000366 <__divsi3+0x14a>
 800035c:	0189      	lsls	r1, r1, #6
 800035e:	d03a      	beq.n	80003d6 <__divsi3+0x1ba>
 8000360:	1192      	asrs	r2, r2, #6
 8000362:	e000      	b.n	8000366 <__divsi3+0x14a>
 8000364:	0989      	lsrs	r1, r1, #6
 8000366:	09c3      	lsrs	r3, r0, #7
 8000368:	428b      	cmp	r3, r1
 800036a:	d301      	bcc.n	8000370 <__divsi3+0x154>
 800036c:	01cb      	lsls	r3, r1, #7
 800036e:	1ac0      	subs	r0, r0, r3
 8000370:	4152      	adcs	r2, r2
 8000372:	0983      	lsrs	r3, r0, #6
 8000374:	428b      	cmp	r3, r1
 8000376:	d301      	bcc.n	800037c <__divsi3+0x160>
 8000378:	018b      	lsls	r3, r1, #6
 800037a:	1ac0      	subs	r0, r0, r3
 800037c:	4152      	adcs	r2, r2
 800037e:	0943      	lsrs	r3, r0, #5
 8000380:	428b      	cmp	r3, r1
 8000382:	d301      	bcc.n	8000388 <__divsi3+0x16c>
 8000384:	014b      	lsls	r3, r1, #5
 8000386:	1ac0      	subs	r0, r0, r3
 8000388:	4152      	adcs	r2, r2
 800038a:	0903      	lsrs	r3, r0, #4
 800038c:	428b      	cmp	r3, r1
 800038e:	d301      	bcc.n	8000394 <__divsi3+0x178>
 8000390:	010b      	lsls	r3, r1, #4
 8000392:	1ac0      	subs	r0, r0, r3
 8000394:	4152      	adcs	r2, r2
 8000396:	08c3      	lsrs	r3, r0, #3
 8000398:	428b      	cmp	r3, r1
 800039a:	d301      	bcc.n	80003a0 <__divsi3+0x184>
 800039c:	00cb      	lsls	r3, r1, #3
 800039e:	1ac0      	subs	r0, r0, r3
 80003a0:	4152      	adcs	r2, r2
 80003a2:	0883      	lsrs	r3, r0, #2
 80003a4:	428b      	cmp	r3, r1
 80003a6:	d301      	bcc.n	80003ac <__divsi3+0x190>
 80003a8:	008b      	lsls	r3, r1, #2
 80003aa:	1ac0      	subs	r0, r0, r3
 80003ac:	4152      	adcs	r2, r2
 80003ae:	d2d9      	bcs.n	8000364 <__divsi3+0x148>
 80003b0:	0843      	lsrs	r3, r0, #1
 80003b2:	428b      	cmp	r3, r1
 80003b4:	d301      	bcc.n	80003ba <__divsi3+0x19e>
 80003b6:	004b      	lsls	r3, r1, #1
 80003b8:	1ac0      	subs	r0, r0, r3
 80003ba:	4152      	adcs	r2, r2
 80003bc:	1a41      	subs	r1, r0, r1
 80003be:	d200      	bcs.n	80003c2 <__divsi3+0x1a6>
 80003c0:	4601      	mov	r1, r0
 80003c2:	4663      	mov	r3, ip
 80003c4:	4152      	adcs	r2, r2
 80003c6:	105b      	asrs	r3, r3, #1
 80003c8:	4610      	mov	r0, r2
 80003ca:	d301      	bcc.n	80003d0 <__divsi3+0x1b4>
 80003cc:	4240      	negs	r0, r0
 80003ce:	2b00      	cmp	r3, #0
 80003d0:	d500      	bpl.n	80003d4 <__divsi3+0x1b8>
 80003d2:	4249      	negs	r1, r1
 80003d4:	4770      	bx	lr
 80003d6:	4663      	mov	r3, ip
 80003d8:	105b      	asrs	r3, r3, #1
 80003da:	d300      	bcc.n	80003de <__divsi3+0x1c2>
 80003dc:	4240      	negs	r0, r0
 80003de:	b501      	push	{r0, lr}
 80003e0:	2000      	movs	r0, #0
 80003e2:	f000 f805 	bl	80003f0 <__aeabi_idiv0>
 80003e6:	bd02      	pop	{r1, pc}

080003e8 <__aeabi_idivmod>:
 80003e8:	2900      	cmp	r1, #0
 80003ea:	d0f8      	beq.n	80003de <__divsi3+0x1c2>
 80003ec:	e716      	b.n	800021c <__divsi3>
 80003ee:	4770      	bx	lr

080003f0 <__aeabi_idiv0>:
 80003f0:	4770      	bx	lr
 80003f2:	46c0      	nop			; (mov r8, r8)

080003f4 <__aeabi_uldivmod>:
 80003f4:	2b00      	cmp	r3, #0
 80003f6:	d111      	bne.n	800041c <__aeabi_uldivmod+0x28>
 80003f8:	2a00      	cmp	r2, #0
 80003fa:	d10f      	bne.n	800041c <__aeabi_uldivmod+0x28>
 80003fc:	2900      	cmp	r1, #0
 80003fe:	d100      	bne.n	8000402 <__aeabi_uldivmod+0xe>
 8000400:	2800      	cmp	r0, #0
 8000402:	d002      	beq.n	800040a <__aeabi_uldivmod+0x16>
 8000404:	2100      	movs	r1, #0
 8000406:	43c9      	mvns	r1, r1
 8000408:	0008      	movs	r0, r1
 800040a:	b407      	push	{r0, r1, r2}
 800040c:	4802      	ldr	r0, [pc, #8]	; (8000418 <__aeabi_uldivmod+0x24>)
 800040e:	a102      	add	r1, pc, #8	; (adr r1, 8000418 <__aeabi_uldivmod+0x24>)
 8000410:	1840      	adds	r0, r0, r1
 8000412:	9002      	str	r0, [sp, #8]
 8000414:	bd03      	pop	{r0, r1, pc}
 8000416:	46c0      	nop			; (mov r8, r8)
 8000418:	ffffffd9 	.word	0xffffffd9
 800041c:	b403      	push	{r0, r1}
 800041e:	4668      	mov	r0, sp
 8000420:	b501      	push	{r0, lr}
 8000422:	9802      	ldr	r0, [sp, #8]
 8000424:	f000 f806 	bl	8000434 <__udivmoddi4>
 8000428:	9b01      	ldr	r3, [sp, #4]
 800042a:	469e      	mov	lr, r3
 800042c:	b002      	add	sp, #8
 800042e:	bc0c      	pop	{r2, r3}
 8000430:	4770      	bx	lr
 8000432:	46c0      	nop			; (mov r8, r8)

08000434 <__udivmoddi4>:
 8000434:	b5f0      	push	{r4, r5, r6, r7, lr}
 8000436:	4657      	mov	r7, sl
 8000438:	464e      	mov	r6, r9
 800043a:	4645      	mov	r5, r8
 800043c:	46de      	mov	lr, fp
 800043e:	b5e0      	push	{r5, r6, r7, lr}
 8000440:	0004      	movs	r4, r0
 8000442:	000d      	movs	r5, r1
 8000444:	4692      	mov	sl, r2
 8000446:	4699      	mov	r9, r3
 8000448:	b083      	sub	sp, #12
 800044a:	428b      	cmp	r3, r1
 800044c:	d830      	bhi.n	80004b0 <__udivmoddi4+0x7c>
 800044e:	d02d      	beq.n	80004ac <__udivmoddi4+0x78>
 8000450:	4649      	mov	r1, r9
 8000452:	4650      	mov	r0, sl
 8000454:	f000 f8ba 	bl	80005cc <__clzdi2>
 8000458:	0029      	movs	r1, r5
 800045a:	0006      	movs	r6, r0
 800045c:	0020      	movs	r0, r4
 800045e:	f000 f8b5 	bl	80005cc <__clzdi2>
 8000462:	1a33      	subs	r3, r6, r0
 8000464:	4698      	mov	r8, r3
 8000466:	3b20      	subs	r3, #32
 8000468:	469b      	mov	fp, r3
 800046a:	d433      	bmi.n	80004d4 <__udivmoddi4+0xa0>
 800046c:	465a      	mov	r2, fp
 800046e:	4653      	mov	r3, sl
 8000470:	4093      	lsls	r3, r2
 8000472:	4642      	mov	r2, r8
 8000474:	001f      	movs	r7, r3
 8000476:	4653      	mov	r3, sl
 8000478:	4093      	lsls	r3, r2
 800047a:	001e      	movs	r6, r3
 800047c:	42af      	cmp	r7, r5
 800047e:	d83a      	bhi.n	80004f6 <__udivmoddi4+0xc2>
 8000480:	42af      	cmp	r7, r5
 8000482:	d100      	bne.n	8000486 <__udivmoddi4+0x52>
 8000484:	e078      	b.n	8000578 <__udivmoddi4+0x144>
 8000486:	465b      	mov	r3, fp
 8000488:	1ba4      	subs	r4, r4, r6
 800048a:	41bd      	sbcs	r5, r7
 800048c:	2b00      	cmp	r3, #0
 800048e:	da00      	bge.n	8000492 <__udivmoddi4+0x5e>
 8000490:	e075      	b.n	800057e <__udivmoddi4+0x14a>
 8000492:	2200      	movs	r2, #0
 8000494:	2300      	movs	r3, #0
 8000496:	9200      	str	r2, [sp, #0]
 8000498:	9301      	str	r3, [sp, #4]
 800049a:	2301      	movs	r3, #1
 800049c:	465a      	mov	r2, fp
 800049e:	4093      	lsls	r3, r2
 80004a0:	9301      	str	r3, [sp, #4]
 80004a2:	2301      	movs	r3, #1
 80004a4:	4642      	mov	r2, r8
 80004a6:	4093      	lsls	r3, r2
 80004a8:	9300      	str	r3, [sp, #0]
 80004aa:	e028      	b.n	80004fe <__udivmoddi4+0xca>
 80004ac:	4282      	cmp	r2, r0
 80004ae:	d9cf      	bls.n	8000450 <__udivmoddi4+0x1c>
 80004b0:	2200      	movs	r2, #0
 80004b2:	2300      	movs	r3, #0
 80004b4:	9200      	str	r2, [sp, #0]
 80004b6:	9301      	str	r3, [sp, #4]
 80004b8:	9b0c      	ldr	r3, [sp, #48]	; 0x30
 80004ba:	2b00      	cmp	r3, #0
 80004bc:	d001      	beq.n	80004c2 <__udivmoddi4+0x8e>
 80004be:	601c      	str	r4, [r3, #0]
 80004c0:	605d      	str	r5, [r3, #4]
 80004c2:	9800      	ldr	r0, [sp, #0]
 80004c4:	9901      	ldr	r1, [sp, #4]
 80004c6:	b003      	add	sp, #12
 80004c8:	bcf0      	pop	{r4, r5, r6, r7}
 80004ca:	46bb      	mov	fp, r7
 80004cc:	46b2      	mov	sl, r6
 80004ce:	46a9      	mov	r9, r5
 80004d0:	46a0      	mov	r8, r4
 80004d2:	bdf0      	pop	{r4, r5, r6, r7, pc}
 80004d4:	4642      	mov	r2, r8
 80004d6:	2320      	movs	r3, #32
 80004d8:	1a9b      	subs	r3, r3, r2
 80004da:	4652      	mov	r2, sl
 80004dc:	40da      	lsrs	r2, r3
 80004de:	4641      	mov	r1, r8
 80004e0:	0013      	movs	r3, r2
 80004e2:	464a      	mov	r2, r9
 80004e4:	408a      	lsls	r2, r1
 80004e6:	0017      	movs	r7, r2
 80004e8:	4642      	mov	r2, r8
 80004ea:	431f      	orrs	r7, r3
 80004ec:	4653      	mov	r3, sl
 80004ee:	4093      	lsls	r3, r2
 80004f0:	001e      	movs	r6, r3
 80004f2:	42af      	cmp	r7, r5
 80004f4:	d9c4      	bls.n	8000480 <__udivmoddi4+0x4c>
 80004f6:	2200      	movs	r2, #0
 80004f8:	2300      	movs	r3, #0
 80004fa:	9200      	str	r2, [sp, #0]
 80004fc:	9301      	str	r3, [sp, #4]
 80004fe:	4643      	mov	r3, r8
 8000500:	2b00      	cmp	r3, #0
 8000502:	d0d9      	beq.n	80004b8 <__udivmoddi4+0x84>
 8000504:	07fb      	lsls	r3, r7, #31
 8000506:	0872      	lsrs	r2, r6, #1
 8000508:	431a      	orrs	r2, r3
 800050a:	4646      	mov	r6, r8
 800050c:	087b      	lsrs	r3, r7, #1
 800050e:	e00e      	b.n	800052e <__udivmoddi4+0xfa>
 8000510:	42ab      	cmp	r3, r5
 8000512:	d101      	bne.n	8000518 <__udivmoddi4+0xe4>
 8000514:	42a2      	cmp	r2, r4
 8000516:	d80c      	bhi.n	8000532 <__udivmoddi4+0xfe>
 8000518:	1aa4      	subs	r4, r4, r2
 800051a:	419d      	sbcs	r5, r3
 800051c:	2001      	movs	r0, #1
 800051e:	1924      	adds	r4, r4, r4
 8000520:	416d      	adcs	r5, r5
 8000522:	2100      	movs	r1, #0
 8000524:	3e01      	subs	r6, #1
 8000526:	1824      	adds	r4, r4, r0
 8000528:	414d      	adcs	r5, r1
 800052a:	2e00      	cmp	r6, #0
 800052c:	d006      	beq.n	800053c <__udivmoddi4+0x108>
 800052e:	42ab      	cmp	r3, r5
 8000530:	d9ee      	bls.n	8000510 <__udivmoddi4+0xdc>
 8000532:	3e01      	subs	r6, #1
 8000534:	1924      	adds	r4, r4, r4
 8000536:	416d      	adcs	r5, r5
 8000538:	2e00      	cmp	r6, #0
 800053a:	d1f8      	bne.n	800052e <__udivmoddi4+0xfa>
 800053c:	9800      	ldr	r0, [sp, #0]
 800053e:	9901      	ldr	r1, [sp, #4]
 8000540:	465b      	mov	r3, fp
 8000542:	1900      	adds	r0, r0, r4
 8000544:	4169      	adcs	r1, r5
 8000546:	2b00      	cmp	r3, #0
 8000548:	db24      	blt.n	8000594 <__udivmoddi4+0x160>
 800054a:	002b      	movs	r3, r5
 800054c:	465a      	mov	r2, fp
 800054e:	4644      	mov	r4, r8
 8000550:	40d3      	lsrs	r3, r2
 8000552:	002a      	movs	r2, r5
 8000554:	40e2      	lsrs	r2, r4
 8000556:	001c      	movs	r4, r3
 8000558:	465b      	mov	r3, fp
 800055a:	0015      	movs	r5, r2
 800055c:	2b00      	cmp	r3, #0
 800055e:	db2a      	blt.n	80005b6 <__udivmoddi4+0x182>
 8000560:	0026      	movs	r6, r4
 8000562:	409e      	lsls	r6, r3
 8000564:	0033      	movs	r3, r6
 8000566:	0026      	movs	r6, r4
 8000568:	4647      	mov	r7, r8
 800056a:	40be      	lsls	r6, r7
 800056c:	0032      	movs	r2, r6
 800056e:	1a80      	subs	r0, r0, r2
 8000570:	4199      	sbcs	r1, r3
 8000572:	9000      	str	r0, [sp, #0]
 8000574:	9101      	str	r1, [sp, #4]
 8000576:	e79f      	b.n	80004b8 <__udivmoddi4+0x84>
 8000578:	42a3      	cmp	r3, r4
 800057a:	d8bc      	bhi.n	80004f6 <__udivmoddi4+0xc2>
 800057c:	e783      	b.n	8000486 <__udivmoddi4+0x52>
 800057e:	4642      	mov	r2, r8
 8000580:	2320      	movs	r3, #32
 8000582:	2100      	movs	r1, #0
 8000584:	1a9b      	subs	r3, r3, r2
 8000586:	2200      	movs	r2, #0
 8000588:	9100      	str	r1, [sp, #0]
 800058a:	9201      	str	r2, [sp, #4]
 800058c:	2201      	movs	r2, #1
 800058e:	40da      	lsrs	r2, r3
 8000590:	9201      	str	r2, [sp, #4]
 8000592:	e786      	b.n	80004a2 <__udivmoddi4+0x6e>
 8000594:	4642      	mov	r2, r8
 8000596:	2320      	movs	r3, #32
 8000598:	1a9b      	subs	r3, r3, r2
 800059a:	002a      	movs	r2, r5
 800059c:	4646      	mov	r6, r8
 800059e:	409a      	lsls	r2, r3
 80005a0:	0023      	movs	r3, r4
 80005a2:	40f3      	lsrs	r3, r6
 80005a4:	4644      	mov	r4, r8
 80005a6:	4313      	orrs	r3, r2
 80005a8:	002a      	movs	r2, r5
 80005aa:	40e2      	lsrs	r2, r4
 80005ac:	001c      	movs	r4, r3
 80005ae:	465b      	mov	r3, fp
 80005b0:	0015      	movs	r5, r2
 80005b2:	2b00      	cmp	r3, #0
 80005b4:	dad4      	bge.n	8000560 <__udivmoddi4+0x12c>
 80005b6:	4642      	mov	r2, r8
 80005b8:	002f      	movs	r7, r5
 80005ba:	2320      	movs	r3, #32
 80005bc:	0026      	movs	r6, r4
 80005be:	4097      	lsls	r7, r2
 80005c0:	1a9b      	subs	r3, r3, r2
 80005c2:	40de      	lsrs	r6, r3
 80005c4:	003b      	movs	r3, r7
 80005c6:	4333      	orrs	r3, r6
 80005c8:	e7cd      	b.n	8000566 <__udivmoddi4+0x132>
 80005ca:	46c0      	nop			; (mov r8, r8)

080005cc <__clzdi2>:
 80005cc:	b510      	push	{r4, lr}
 80005ce:	2900      	cmp	r1, #0
 80005d0:	d103      	bne.n	80005da <__clzdi2+0xe>
 80005d2:	f000 f807 	bl	80005e4 <__clzsi2>
 80005d6:	3020      	adds	r0, #32
 80005d8:	e002      	b.n	80005e0 <__clzdi2+0x14>
 80005da:	0008      	movs	r0, r1
 80005dc:	f000 f802 	bl	80005e4 <__clzsi2>
 80005e0:	bd10      	pop	{r4, pc}
 80005e2:	46c0      	nop			; (mov r8, r8)

080005e4 <__clzsi2>:
 80005e4:	211c      	movs	r1, #28
 80005e6:	2301      	movs	r3, #1
 80005e8:	041b      	lsls	r3, r3, #16
 80005ea:	4298      	cmp	r0, r3
 80005ec:	d301      	bcc.n	80005f2 <__clzsi2+0xe>
 80005ee:	0c00      	lsrs	r0, r0, #16
 80005f0:	3910      	subs	r1, #16
 80005f2:	0a1b      	lsrs	r3, r3, #8
 80005f4:	4298      	cmp	r0, r3
 80005f6:	d301      	bcc.n	80005fc <__clzsi2+0x18>
 80005f8:	0a00      	lsrs	r0, r0, #8
 80005fa:	3908      	subs	r1, #8
 80005fc:	091b      	lsrs	r3, r3, #4
 80005fe:	4298      	cmp	r0, r3
 8000600:	d301      	bcc.n	8000606 <__clzsi2+0x22>
 8000602:	0900      	lsrs	r0, r0, #4
 8000604:	3904      	subs	r1, #4
 8000606:	a202      	add	r2, pc, #8	; (adr r2, 8000610 <__clzsi2+0x2c>)
 8000608:	5c10      	ldrb	r0, [r2, r0]
 800060a:	1840      	adds	r0, r0, r1
 800060c:	4770      	bx	lr
 800060e:	46c0      	nop			; (mov r8, r8)
 8000610:	02020304 	.word	0x02020304
 8000614:	01010101 	.word	0x01010101
	...

08000620 <GPIO_EnableOutput>:
{
	GPIO_Init(gpio, pin, GPIO_Mode_Analog);
}

static inline void GPIO_EnableOutput(GPIO_t * gpio, uint32_t pin, GPIO_State_t state)
{
 8000620:	b580      	push	{r7, lr}
 8000622:	b084      	sub	sp, #16
 8000624:	af00      	add	r7, sp, #0
 8000626:	60f8      	str	r0, [r7, #12]
 8000628:	60b9      	str	r1, [r7, #8]
 800062a:	1dfb      	adds	r3, r7, #7
 800062c:	701a      	strb	r2, [r3, #0]
	GPIO_Write(gpio, pin, state);
 800062e:	1dfb      	adds	r3, r7, #7
 8000630:	781a      	ldrb	r2, [r3, #0]
 8000632:	68b9      	ldr	r1, [r7, #8]
 8000634:	68fb      	ldr	r3, [r7, #12]
 8000636:	0018      	movs	r0, r3
 8000638:	f003 fb7a 	bl	8003d30 <GPIO_Write>
	GPIO_Init(gpio, pin, GPIO_Mode_Output);
 800063c:	68b9      	ldr	r1, [r7, #8]
 800063e:	68fb      	ldr	r3, [r7, #12]
 8000640:	2201      	movs	r2, #1
 8000642:	0018      	movs	r0, r3
 8000644:	f003 fbda 	bl	8003dfc <GPIO_Init>
}
 8000648:	46c0      	nop			; (mov r8, r8)
 800064a:	46bd      	mov	sp, r7
 800064c:	b004      	add	sp, #16
 800064e:	bd80      	pop	{r7, pc}

08000650 <GPIO_Read>:
{
	gpio->BRR = (uint32_t)pin;
}

static inline GPIO_State_t GPIO_Read(GPIO_t * gpio, uint32_t pin)
{
 8000650:	b580      	push	{r7, lr}
 8000652:	b082      	sub	sp, #8
 8000654:	af00      	add	r7, sp, #0
 8000656:	6078      	str	r0, [r7, #4]
 8000658:	6039      	str	r1, [r7, #0]
	return ((gpio->IDR & pin) > 0);
 800065a:	687b      	ldr	r3, [r7, #4]
 800065c:	691b      	ldr	r3, [r3, #16]
 800065e:	683a      	ldr	r2, [r7, #0]
 8000660:	4013      	ands	r3, r2
 8000662:	1e5a      	subs	r2, r3, #1
 8000664:	4193      	sbcs	r3, r2
 8000666:	b2db      	uxtb	r3, r3
}
 8000668:	0018      	movs	r0, r3
 800066a:	46bd      	mov	sp, r7
 800066c:	b002      	add	sp, #8
 800066e:	bd80      	pop	{r7, pc}

08000670 <CORE_GetTick>:
/*
 * INLINE FUNCTION DEFINITIONS
 */

static inline uint32_t CORE_GetTick(void)
{
 8000670:	b580      	push	{r7, lr}
 8000672:	af00      	add	r7, sp, #0
	return gTicks;
 8000674:	4b02      	ldr	r3, [pc, #8]	; (8000680 <CORE_GetTick+0x10>)
 8000676:	681b      	ldr	r3, [r3, #0]
}
 8000678:	0018      	movs	r0, r3
 800067a:	46bd      	mov	sp, r7
 800067c:	bd80      	pop	{r7, pc}
 800067e:	46c0      	nop			; (mov r8, r8)
 8000680:	200004a8 	.word	0x200004a8

08000684 <LED_Init>:
 * PUBLIC FUNCTIONS
 */


void LED_Init (void)
{
 8000684:	b580      	push	{r7, lr}
 8000686:	af00      	add	r7, sp, #0
	GPIO_EnableOutput(LED_STATUS_GPIO, LED_STATUS_PIN, false);
 8000688:	4b07      	ldr	r3, [pc, #28]	; (80006a8 <LED_Init+0x24>)
 800068a:	2200      	movs	r2, #0
 800068c:	2102      	movs	r1, #2
 800068e:	0018      	movs	r0, r3
 8000690:	f7ff ffc6 	bl	8000620 <GPIO_EnableOutput>
	GPIO_EnableOutput(LED_FAULT_GPIO, LED_FAULT_PIN, false);
 8000694:	4b04      	ldr	r3, [pc, #16]	; (80006a8 <LED_Init+0x24>)
 8000696:	2200      	movs	r2, #0
 8000698:	2101      	movs	r1, #1
 800069a:	0018      	movs	r0, r3
 800069c:	f7ff ffc0 	bl	8000620 <GPIO_EnableOutput>
}
 80006a0:	46c0      	nop			; (mov r8, r8)
 80006a2:	46bd      	mov	sp, r7
 80006a4:	bd80      	pop	{r7, pc}
 80006a6:	46c0      	nop			; (mov r8, r8)
 80006a8:	50000400 	.word	0x50000400

080006ac <LED_GreenState>:

bool LED_GreenState (void)
{
 80006ac:	b580      	push	{r7, lr}
 80006ae:	af00      	add	r7, sp, #0
	return GPIO_Read(LED_STATUS_GPIO, LED_STATUS_PIN);
 80006b0:	4b04      	ldr	r3, [pc, #16]	; (80006c4 <LED_GreenState+0x18>)
 80006b2:	2102      	movs	r1, #2
 80006b4:	0018      	movs	r0, r3
 80006b6:	f7ff ffcb 	bl	8000650 <GPIO_Read>
 80006ba:	0003      	movs	r3, r0
}
 80006bc:	0018      	movs	r0, r3
 80006be:	46bd      	mov	sp, r7
 80006c0:	bd80      	pop	{r7, pc}
 80006c2:	46c0      	nop			; (mov r8, r8)
 80006c4:	50000400 	.word	0x50000400

080006c8 <LED_GreenON>:
{
	return GPIO_Read(LED_FAULT_GPIO, LED_FAULT_PIN);
}

void LED_GreenON (void)
{
 80006c8:	b580      	push	{r7, lr}
 80006ca:	af00      	add	r7, sp, #0
	GPIO_Write(LED_STATUS_GPIO, LED_STATUS_PIN, true);
 80006cc:	4b04      	ldr	r3, [pc, #16]	; (80006e0 <LED_GreenON+0x18>)
 80006ce:	2201      	movs	r2, #1
 80006d0:	2102      	movs	r1, #2
 80006d2:	0018      	movs	r0, r3
 80006d4:	f003 fb2c 	bl	8003d30 <GPIO_Write>
}
 80006d8:	46c0      	nop			; (mov r8, r8)
 80006da:	46bd      	mov	sp, r7
 80006dc:	bd80      	pop	{r7, pc}
 80006de:	46c0      	nop			; (mov r8, r8)
 80006e0:	50000400 	.word	0x50000400

080006e4 <LED_RedON>:

void LED_RedON (void)
{
 80006e4:	b580      	push	{r7, lr}
 80006e6:	af00      	add	r7, sp, #0
	GPIO_Write(LED_FAULT_GPIO, LED_FAULT_PIN, true);
 80006e8:	4b04      	ldr	r3, [pc, #16]	; (80006fc <LED_RedON+0x18>)
 80006ea:	2201      	movs	r2, #1
 80006ec:	2101      	movs	r1, #1
 80006ee:	0018      	movs	r0, r3
 80006f0:	f003 fb1e 	bl	8003d30 <GPIO_Write>
}
 80006f4:	46c0      	nop			; (mov r8, r8)
 80006f6:	46bd      	mov	sp, r7
 80006f8:	bd80      	pop	{r7, pc}
 80006fa:	46c0      	nop			; (mov r8, r8)
 80006fc:	50000400 	.word	0x50000400

08000700 <LED_GreenOFF>:

void LED_GreenOFF (void)
{
 8000700:	b580      	push	{r7, lr}
 8000702:	af00      	add	r7, sp, #0
	GPIO_Write(LED_STATUS_GPIO, LED_STATUS_PIN, false);
 8000704:	4b04      	ldr	r3, [pc, #16]	; (8000718 <LED_GreenOFF+0x18>)
 8000706:	2200      	movs	r2, #0
 8000708:	2102      	movs	r1, #2
 800070a:	0018      	movs	r0, r3
 800070c:	f003 fb10 	bl	8003d30 <GPIO_Write>
}
 8000710:	46c0      	nop			; (mov r8, r8)
 8000712:	46bd      	mov	sp, r7
 8000714:	bd80      	pop	{r7, pc}
 8000716:	46c0      	nop			; (mov r8, r8)
 8000718:	50000400 	.word	0x50000400

0800071c <LED_RedOFF>:

void LED_RedOFF (void)
{
 800071c:	b580      	push	{r7, lr}
 800071e:	af00      	add	r7, sp, #0
	GPIO_Write(LED_FAULT_GPIO, LED_FAULT_PIN, false);
 8000720:	4b04      	ldr	r3, [pc, #16]	; (8000734 <LED_RedOFF+0x18>)
 8000722:	2200      	movs	r2, #0
 8000724:	2101      	movs	r1, #1
 8000726:	0018      	movs	r0, r3
 8000728:	f003 fb02 	bl	8003d30 <GPIO_Write>
}
 800072c:	46c0      	nop			; (mov r8, r8)
 800072e:	46bd      	mov	sp, r7
 8000730:	bd80      	pop	{r7, pc}
 8000732:	46c0      	nop			; (mov r8, r8)
 8000734:	50000400 	.word	0x50000400

08000738 <LED_GreenToggle>:

void LED_GreenToggle (void)
{
 8000738:	b580      	push	{r7, lr}
 800073a:	af00      	add	r7, sp, #0
	if (LED_GreenState()) {
 800073c:	f7ff ffb6 	bl	80006ac <LED_GreenState>
 8000740:	1e03      	subs	r3, r0, #0
 8000742:	d002      	beq.n	800074a <LED_GreenToggle+0x12>
		LED_GreenOFF();
 8000744:	f7ff ffdc 	bl	8000700 <LED_GreenOFF>
	} else {
		LED_GreenON();
	}
}
 8000748:	e001      	b.n	800074e <LED_GreenToggle+0x16>
		LED_GreenON();
 800074a:	f7ff ffbd 	bl	80006c8 <LED_GreenON>
}
 800074e:	46c0      	nop			; (mov r8, r8)
 8000750:	46bd      	mov	sp, r7
 8000752:	bd80      	pop	{r7, pc}

08000754 <LED_Pulse>:
	}
}


void LED_Pulse (void)
{
 8000754:	b580      	push	{r7, lr}
 8000756:	b082      	sub	sp, #8
 8000758:	af00      	add	r7, sp, #0
	uint32_t tick = CORE_GetTick();
 800075a:	f7ff ff89 	bl	8000670 <CORE_GetTick>
 800075e:	0003      	movs	r3, r0
 8000760:	607b      	str	r3, [r7, #4]
	LED_RedON();
 8000762:	f7ff ffbf 	bl	80006e4 <LED_RedON>
	LED_GreenON();
 8000766:	f7ff ffaf 	bl	80006c8 <LED_GreenON>
	while (PULSEON > (CORE_GetTick() - tick)) { CORE_Idle(); }
 800076a:	e001      	b.n	8000770 <LED_Pulse+0x1c>
 800076c:	f003 f992 	bl	8003a94 <CORE_Idle>
 8000770:	f7ff ff7e 	bl	8000670 <CORE_GetTick>
 8000774:	0002      	movs	r2, r0
 8000776:	687b      	ldr	r3, [r7, #4]
 8000778:	1ad3      	subs	r3, r2, r3
 800077a:	2bc7      	cmp	r3, #199	; 0xc7
 800077c:	d9f6      	bls.n	800076c <LED_Pulse+0x18>
	LED_RedOFF();
 800077e:	f7ff ffcd 	bl	800071c <LED_RedOFF>
	LED_GreenOFF();
 8000782:	f7ff ffbd 	bl	8000700 <LED_GreenOFF>
}
 8000786:	46c0      	nop			; (mov r8, r8)
 8000788:	46bd      	mov	sp, r7
 800078a:	b002      	add	sp, #8
 800078c:	bd80      	pop	{r7, pc}

0800078e <LED_nPulse>:
{
	LED_nPulse(3);
}

void LED_nPulse (uint8_t n)
{
 800078e:	b580      	push	{r7, lr}
 8000790:	b084      	sub	sp, #16
 8000792:	af00      	add	r7, sp, #0
 8000794:	0002      	movs	r2, r0
 8000796:	1dfb      	adds	r3, r7, #7
 8000798:	701a      	strb	r2, [r3, #0]
	uint32_t tick = CORE_GetTick();
 800079a:	f7ff ff69 	bl	8000670 <CORE_GetTick>
 800079e:	0003      	movs	r3, r0
 80007a0:	60bb      	str	r3, [r7, #8]
	LED_GreenOFF();
 80007a2:	f7ff ffad 	bl	8000700 <LED_GreenOFF>
	LED_RedOFF();
 80007a6:	f7ff ffb9 	bl	800071c <LED_RedOFF>
	while (PULSEOFF > (CORE_GetTick() - tick)) { CORE_Idle(); }
 80007aa:	e001      	b.n	80007b0 <LED_nPulse+0x22>
 80007ac:	f003 f972 	bl	8003a94 <CORE_Idle>
 80007b0:	f7ff ff5e 	bl	8000670 <CORE_GetTick>
 80007b4:	0002      	movs	r2, r0
 80007b6:	68bb      	ldr	r3, [r7, #8]
 80007b8:	1ad2      	subs	r2, r2, r3
 80007ba:	2396      	movs	r3, #150	; 0x96
 80007bc:	005b      	lsls	r3, r3, #1
 80007be:	429a      	cmp	r2, r3
 80007c0:	d3f4      	bcc.n	80007ac <LED_nPulse+0x1e>

	for (uint8_t i = 0; i < n; i++)
 80007c2:	230f      	movs	r3, #15
 80007c4:	18fb      	adds	r3, r7, r3
 80007c6:	2200      	movs	r2, #0
 80007c8:	701a      	strb	r2, [r3, #0]
 80007ca:	e017      	b.n	80007fc <LED_nPulse+0x6e>
	{
		LED_Pulse();
 80007cc:	f7ff ffc2 	bl	8000754 <LED_Pulse>
		tick = CORE_GetTick();
 80007d0:	f7ff ff4e 	bl	8000670 <CORE_GetTick>
 80007d4:	0003      	movs	r3, r0
 80007d6:	60bb      	str	r3, [r7, #8]
		while (PULSEOFF > (CORE_GetTick() - tick)) { CORE_Idle(); }
 80007d8:	e001      	b.n	80007de <LED_nPulse+0x50>
 80007da:	f003 f95b 	bl	8003a94 <CORE_Idle>
 80007de:	f7ff ff47 	bl	8000670 <CORE_GetTick>
 80007e2:	0002      	movs	r2, r0
 80007e4:	68bb      	ldr	r3, [r7, #8]
 80007e6:	1ad2      	subs	r2, r2, r3
 80007e8:	2396      	movs	r3, #150	; 0x96
 80007ea:	005b      	lsls	r3, r3, #1
 80007ec:	429a      	cmp	r2, r3
 80007ee:	d3f4      	bcc.n	80007da <LED_nPulse+0x4c>
	for (uint8_t i = 0; i < n; i++)
 80007f0:	210f      	movs	r1, #15
 80007f2:	187b      	adds	r3, r7, r1
 80007f4:	781a      	ldrb	r2, [r3, #0]
 80007f6:	187b      	adds	r3, r7, r1
 80007f8:	3201      	adds	r2, #1
 80007fa:	701a      	strb	r2, [r3, #0]
 80007fc:	230f      	movs	r3, #15
 80007fe:	18fa      	adds	r2, r7, r3
 8000800:	1dfb      	adds	r3, r7, #7
 8000802:	7812      	ldrb	r2, [r2, #0]
 8000804:	781b      	ldrb	r3, [r3, #0]
 8000806:	429a      	cmp	r2, r3
 8000808:	d3e0      	bcc.n	80007cc <LED_nPulse+0x3e>
	}
}
 800080a:	46c0      	nop			; (mov r8, r8)
 800080c:	46c0      	nop			; (mov r8, r8)
 800080e:	46bd      	mov	sp, r7
 8000810:	b004      	add	sp, #16
 8000812:	bd80      	pop	{r7, pc}

08000814 <GPIO_EnableOutput>:
{
 8000814:	b580      	push	{r7, lr}
 8000816:	b084      	sub	sp, #16
 8000818:	af00      	add	r7, sp, #0
 800081a:	60f8      	str	r0, [r7, #12]
 800081c:	60b9      	str	r1, [r7, #8]
 800081e:	1dfb      	adds	r3, r7, #7
 8000820:	701a      	strb	r2, [r3, #0]
	GPIO_Write(gpio, pin, state);
 8000822:	1dfb      	adds	r3, r7, #7
 8000824:	781a      	ldrb	r2, [r3, #0]
 8000826:	68b9      	ldr	r1, [r7, #8]
 8000828:	68fb      	ldr	r3, [r7, #12]
 800082a:	0018      	movs	r0, r3
 800082c:	f003 fa80 	bl	8003d30 <GPIO_Write>
	GPIO_Init(gpio, pin, GPIO_Mode_Output);
 8000830:	68b9      	ldr	r1, [r7, #8]
 8000832:	68fb      	ldr	r3, [r7, #12]
 8000834:	2201      	movs	r2, #1
 8000836:	0018      	movs	r0, r3
 8000838:	f003 fae0 	bl	8003dfc <GPIO_Init>
}
 800083c:	46c0      	nop			; (mov r8, r8)
 800083e:	46bd      	mov	sp, r7
 8000840:	b004      	add	sp, #16
 8000842:	bd80      	pop	{r7, pc}

08000844 <MOTOR_Init>:
/*
 * PUBLIC FUNCTIONS
 */

void MOTOR_Init (void)
{
 8000844:	b580      	push	{r7, lr}
 8000846:	b082      	sub	sp, #8
 8000848:	af02      	add	r7, sp, #8
	TIM_Init(TIM_MOTOR, TIM_MOTOR_FREQ, TIM_MOTOR_RELOAD);
 800084a:	4b24      	ldr	r3, [pc, #144]	; (80008dc <MOTOR_Init+0x98>)
 800084c:	681b      	ldr	r3, [r3, #0]
 800084e:	4924      	ldr	r1, [pc, #144]	; (80008e0 <MOTOR_Init+0x9c>)
 8000850:	22ff      	movs	r2, #255	; 0xff
 8000852:	0018      	movs	r0, r3
 8000854:	f003 fca4 	bl	80041a0 <TIM_Init>

#if defined(USE_DRV8212)
	GPIO_EnableOutput(MOTOR_LMODE_GPIO, MOTOR_LMODE_PIN, MODE_PWM);
 8000858:	2380      	movs	r3, #128	; 0x80
 800085a:	021b      	lsls	r3, r3, #8
 800085c:	4821      	ldr	r0, [pc, #132]	; (80008e4 <MOTOR_Init+0xa0>)
 800085e:	2200      	movs	r2, #0
 8000860:	0019      	movs	r1, r3
 8000862:	f7ff ffd7 	bl	8000814 <GPIO_EnableOutput>
	GPIO_EnableOutput(MOTOR_RMODE_GPIO, MOTOR_RMODE_PIN, MODE_PWM);
 8000866:	23a0      	movs	r3, #160	; 0xa0
 8000868:	05db      	lsls	r3, r3, #23
 800086a:	2200      	movs	r2, #0
 800086c:	2110      	movs	r1, #16
 800086e:	0018      	movs	r0, r3
 8000870:	f7ff ffd0 	bl	8000814 <GPIO_EnableOutput>
#endif

	TIM_EnablePwm(TIM_MOTOR, MOTOR_LPWM1_CH, MOTOR_LPWM1_GPIO, MOTOR_LPWM1_PIN, TIM_MOTOR_AF2);
 8000874:	4b19      	ldr	r3, [pc, #100]	; (80008dc <MOTOR_Init+0x98>)
 8000876:	6818      	ldr	r0, [r3, #0]
 8000878:	23a0      	movs	r3, #160	; 0xa0
 800087a:	05da      	lsls	r2, r3, #23
 800087c:	2302      	movs	r3, #2
 800087e:	9300      	str	r3, [sp, #0]
 8000880:	2301      	movs	r3, #1
 8000882:	2100      	movs	r1, #0
 8000884:	f003 fd17 	bl	80042b6 <TIM_EnablePwm>
	TIM_EnablePwm(TIM_MOTOR, MOTOR_LPWM2_CH, MOTOR_LPWM2_GPIO, MOTOR_LPWM2_PIN, TIM_MOTOR_AF2);
 8000888:	4b14      	ldr	r3, [pc, #80]	; (80008dc <MOTOR_Init+0x98>)
 800088a:	6818      	ldr	r0, [r3, #0]
 800088c:	23a0      	movs	r3, #160	; 0xa0
 800088e:	05da      	lsls	r2, r3, #23
 8000890:	2302      	movs	r3, #2
 8000892:	9300      	str	r3, [sp, #0]
 8000894:	2302      	movs	r3, #2
 8000896:	2101      	movs	r1, #1
 8000898:	f003 fd0d 	bl	80042b6 <TIM_EnablePwm>
	TIM_EnablePwm(TIM_MOTOR, MOTOR_RPWM1_CH, MOTOR_RPWM1_GPIO, MOTOR_RPWM1_PIN, TIM_MOTOR_AF2);
 800089c:	4b0f      	ldr	r3, [pc, #60]	; (80008dc <MOTOR_Init+0x98>)
 800089e:	6818      	ldr	r0, [r3, #0]
 80008a0:	23a0      	movs	r3, #160	; 0xa0
 80008a2:	05da      	lsls	r2, r3, #23
 80008a4:	2302      	movs	r3, #2
 80008a6:	9300      	str	r3, [sp, #0]
 80008a8:	2304      	movs	r3, #4
 80008aa:	2102      	movs	r1, #2
 80008ac:	f003 fd03 	bl	80042b6 <TIM_EnablePwm>
	TIM_EnablePwm(TIM_MOTOR, MOTOR_RPWM2_CH, MOTOR_RPWM2_GPIO, MOTOR_RPWM2_PIN, TIM_MOTOR_AF2);
 80008b0:	4b0a      	ldr	r3, [pc, #40]	; (80008dc <MOTOR_Init+0x98>)
 80008b2:	6818      	ldr	r0, [r3, #0]
 80008b4:	23a0      	movs	r3, #160	; 0xa0
 80008b6:	05da      	lsls	r2, r3, #23
 80008b8:	2302      	movs	r3, #2
 80008ba:	9300      	str	r3, [sp, #0]
 80008bc:	2308      	movs	r3, #8
 80008be:	2103      	movs	r1, #3
 80008c0:	f003 fcf9 	bl	80042b6 <TIM_EnablePwm>

	MOTOR_Update(MOTOR_OFF, MOTOR_OFF);
 80008c4:	2100      	movs	r1, #0
 80008c6:	2000      	movs	r0, #0
 80008c8:	f000 f80e 	bl	80008e8 <MOTOR_Update>
	TIM_Start(TIM_MOTOR);
 80008cc:	4b03      	ldr	r3, [pc, #12]	; (80008dc <MOTOR_Init+0x98>)
 80008ce:	681b      	ldr	r3, [r3, #0]
 80008d0:	0018      	movs	r0, r3
 80008d2:	f003 fd39 	bl	8004348 <TIM_Start>
}
 80008d6:	46c0      	nop			; (mov r8, r8)
 80008d8:	46bd      	mov	sp, r7
 80008da:	bd80      	pop	{r7, pc}
 80008dc:	20000020 	.word	0x20000020
 80008e0:	004e2000 	.word	0x004e2000
 80008e4:	50000800 	.word	0x50000800

080008e8 <MOTOR_Update>:


void MOTOR_Update (int32_t M1, int32_t M2)
{
 80008e8:	b580      	push	{r7, lr}
 80008ea:	b082      	sub	sp, #8
 80008ec:	af00      	add	r7, sp, #0
 80008ee:	6078      	str	r0, [r7, #4]
 80008f0:	6039      	str	r1, [r7, #0]
	MOTOR_M1_Update(M1);
 80008f2:	687b      	ldr	r3, [r7, #4]
 80008f4:	0018      	movs	r0, r3
 80008f6:	f000 f847 	bl	8000988 <MOTOR_M1_Update>
	MOTOR_M2_Update(M2);
 80008fa:	683b      	ldr	r3, [r7, #0]
 80008fc:	0018      	movs	r0, r3
 80008fe:	f000 f89f 	bl	8000a40 <MOTOR_M2_Update>
}
 8000902:	46c0      	nop			; (mov r8, r8)
 8000904:	46bd      	mov	sp, r7
 8000906:	b002      	add	sp, #8
 8000908:	bd80      	pop	{r7, pc}
	...

0800090c <MOTOR_M1_Brake>:
/*
 * PRIVATE FUNCTIONS
 */

void MOTOR_M1_Brake (void)
{
 800090c:	b580      	push	{r7, lr}
 800090e:	af00      	add	r7, sp, #0
	GPIO_Write(MOTOR_LMODE_GPIO, MOTOR_LMODE_PIN, MODE_BRAKE);
 8000910:	2380      	movs	r3, #128	; 0x80
 8000912:	021b      	lsls	r3, r3, #8
 8000914:	480b      	ldr	r0, [pc, #44]	; (8000944 <MOTOR_M1_Brake+0x38>)
 8000916:	2200      	movs	r2, #0
 8000918:	0019      	movs	r1, r3
 800091a:	f003 fa09 	bl	8003d30 <GPIO_Write>
	TIM_SetPulse(TIM_MOTOR, MOTOR_LPWM1_CH, PWM_BRAKE);
 800091e:	4b0a      	ldr	r3, [pc, #40]	; (8000948 <MOTOR_M1_Brake+0x3c>)
 8000920:	681b      	ldr	r3, [r3, #0]
 8000922:	2280      	movs	r2, #128	; 0x80
 8000924:	0052      	lsls	r2, r2, #1
 8000926:	2100      	movs	r1, #0
 8000928:	0018      	movs	r0, r3
 800092a:	f003 fcdf 	bl	80042ec <TIM_SetPulse>
	TIM_SetPulse(TIM_MOTOR, MOTOR_LPWM2_CH, PWM_BRAKE);
 800092e:	4b06      	ldr	r3, [pc, #24]	; (8000948 <MOTOR_M1_Brake+0x3c>)
 8000930:	681b      	ldr	r3, [r3, #0]
 8000932:	2280      	movs	r2, #128	; 0x80
 8000934:	0052      	lsls	r2, r2, #1
 8000936:	2101      	movs	r1, #1
 8000938:	0018      	movs	r0, r3
 800093a:	f003 fcd7 	bl	80042ec <TIM_SetPulse>
}
 800093e:	46c0      	nop			; (mov r8, r8)
 8000940:	46bd      	mov	sp, r7
 8000942:	bd80      	pop	{r7, pc}
 8000944:	50000800 	.word	0x50000800
 8000948:	20000020 	.word	0x20000020

0800094c <MOTOR_M2_Brake>:

void MOTOR_M2_Brake (void)
{
 800094c:	b580      	push	{r7, lr}
 800094e:	af00      	add	r7, sp, #0
	GPIO_Write(MOTOR_RMODE_GPIO, MOTOR_RMODE_PIN, MODE_BRAKE);
 8000950:	23a0      	movs	r3, #160	; 0xa0
 8000952:	05db      	lsls	r3, r3, #23
 8000954:	2200      	movs	r2, #0
 8000956:	2110      	movs	r1, #16
 8000958:	0018      	movs	r0, r3
 800095a:	f003 f9e9 	bl	8003d30 <GPIO_Write>
	TIM_SetPulse(TIM_MOTOR, MOTOR_RPWM1_CH, PWM_BRAKE);
 800095e:	4b09      	ldr	r3, [pc, #36]	; (8000984 <MOTOR_M2_Brake+0x38>)
 8000960:	681b      	ldr	r3, [r3, #0]
 8000962:	2280      	movs	r2, #128	; 0x80
 8000964:	0052      	lsls	r2, r2, #1
 8000966:	2102      	movs	r1, #2
 8000968:	0018      	movs	r0, r3
 800096a:	f003 fcbf 	bl	80042ec <TIM_SetPulse>
	TIM_SetPulse(TIM_MOTOR, MOTOR_RPWM2_CH, PWM_BRAKE);
 800096e:	4b05      	ldr	r3, [pc, #20]	; (8000984 <MOTOR_M2_Brake+0x38>)
 8000970:	681b      	ldr	r3, [r3, #0]
 8000972:	2280      	movs	r2, #128	; 0x80
 8000974:	0052      	lsls	r2, r2, #1
 8000976:	2103      	movs	r1, #3
 8000978:	0018      	movs	r0, r3
 800097a:	f003 fcb7 	bl	80042ec <TIM_SetPulse>
}
 800097e:	46c0      	nop			; (mov r8, r8)
 8000980:	46bd      	mov	sp, r7
 8000982:	bd80      	pop	{r7, pc}
 8000984:	20000020 	.word	0x20000020

08000988 <MOTOR_M1_Update>:
	TIM_SetPulse(TIM_MOTOR, MOTOR_RPWM1_CH, PWM_COAST);
	TIM_SetPulse(TIM_MOTOR, MOTOR_RPWM2_CH, PWM_COAST);
}

void MOTOR_M1_Update (int32_t throttle)
{
 8000988:	b580      	push	{r7, lr}
 800098a:	b084      	sub	sp, #16
 800098c:	af00      	add	r7, sp, #0
 800098e:	6078      	str	r0, [r7, #4]
	bool reverse = false;
 8000990:	210f      	movs	r1, #15
 8000992:	187b      	adds	r3, r7, r1
 8000994:	2200      	movs	r2, #0
 8000996:	701a      	strb	r2, [r3, #0]

	// Check if reversing
	if (throttle < MOTOR_OFF) {
 8000998:	687b      	ldr	r3, [r7, #4]
 800099a:	2b00      	cmp	r3, #0
 800099c:	da05      	bge.n	80009aa <MOTOR_M1_Update+0x22>
		reverse = true;
 800099e:	187b      	adds	r3, r7, r1
 80009a0:	2201      	movs	r2, #1
 80009a2:	701a      	strb	r2, [r3, #0]
		throttle = -throttle;
 80009a4:	687b      	ldr	r3, [r7, #4]
 80009a6:	425b      	negs	r3, r3
 80009a8:	607b      	str	r3, [r7, #4]
	}

	// Clamp maximum speed
	if (throttle > MOTOR_MAX) {
 80009aa:	687a      	ldr	r2, [r7, #4]
 80009ac:	2380      	movs	r3, #128	; 0x80
 80009ae:	005b      	lsls	r3, r3, #1
 80009b0:	429a      	cmp	r2, r3
 80009b2:	dd02      	ble.n	80009ba <MOTOR_M1_Update+0x32>
		throttle = MOTOR_MAX;
 80009b4:	2380      	movs	r3, #128	; 0x80
 80009b6:	005b      	lsls	r3, r3, #1
 80009b8:	607b      	str	r3, [r7, #4]
	}

	if ( throttle <= ( MOTOR_OFF + MOTOR_STALL ) ) {
 80009ba:	687b      	ldr	r3, [r7, #4]
 80009bc:	2b0a      	cmp	r3, #10
 80009be:	dc02      	bgt.n	80009c6 <MOTOR_M1_Update+0x3e>
		if (MOTOR_BRAKE) {
			MOTOR_M1_Brake();
 80009c0:	f7ff ffa4 	bl	800090c <MOTOR_M1_Brake>
		} else {
			TIM_SetPulse(TIM_MOTOR, MOTOR_LPWM1_CH, throttle);
			TIM_SetPulse(TIM_MOTOR, MOTOR_LPWM2_CH, 0);
		}
	}
}
 80009c4:	e036      	b.n	8000a34 <MOTOR_M1_Update+0xac>
		if ( throttle >= (MOTOR_MAX - MOTOR_MAX_THRESH ) ) {
 80009c6:	687b      	ldr	r3, [r7, #4]
 80009c8:	2bf5      	cmp	r3, #245	; 0xf5
 80009ca:	dd03      	ble.n	80009d4 <MOTOR_M1_Update+0x4c>
			throttle = MOTOR_MAX;
 80009cc:	2380      	movs	r3, #128	; 0x80
 80009ce:	005b      	lsls	r3, r3, #1
 80009d0:	607b      	str	r3, [r7, #4]
 80009d2:	e00d      	b.n	80009f0 <MOTOR_M1_Update+0x68>
			throttle += throttle * (MOTOR_MAX - throttle) / MOTOR_MAX;
 80009d4:	687b      	ldr	r3, [r7, #4]
 80009d6:	2280      	movs	r2, #128	; 0x80
 80009d8:	0052      	lsls	r2, r2, #1
 80009da:	1ad3      	subs	r3, r2, r3
 80009dc:	687a      	ldr	r2, [r7, #4]
 80009de:	4353      	muls	r3, r2
 80009e0:	2b00      	cmp	r3, #0
 80009e2:	da00      	bge.n	80009e6 <MOTOR_M1_Update+0x5e>
 80009e4:	33ff      	adds	r3, #255	; 0xff
 80009e6:	121b      	asrs	r3, r3, #8
 80009e8:	001a      	movs	r2, r3
 80009ea:	687b      	ldr	r3, [r7, #4]
 80009ec:	189b      	adds	r3, r3, r2
 80009ee:	607b      	str	r3, [r7, #4]
		if (reverse) {
 80009f0:	230f      	movs	r3, #15
 80009f2:	18fb      	adds	r3, r7, r3
 80009f4:	781b      	ldrb	r3, [r3, #0]
 80009f6:	2b00      	cmp	r3, #0
 80009f8:	d00e      	beq.n	8000a18 <MOTOR_M1_Update+0x90>
			TIM_SetPulse(TIM_MOTOR, MOTOR_LPWM1_CH, 0);
 80009fa:	4b10      	ldr	r3, [pc, #64]	; (8000a3c <MOTOR_M1_Update+0xb4>)
 80009fc:	681b      	ldr	r3, [r3, #0]
 80009fe:	2200      	movs	r2, #0
 8000a00:	2100      	movs	r1, #0
 8000a02:	0018      	movs	r0, r3
 8000a04:	f003 fc72 	bl	80042ec <TIM_SetPulse>
			TIM_SetPulse(TIM_MOTOR, MOTOR_LPWM2_CH, throttle);
 8000a08:	4b0c      	ldr	r3, [pc, #48]	; (8000a3c <MOTOR_M1_Update+0xb4>)
 8000a0a:	681b      	ldr	r3, [r3, #0]
 8000a0c:	687a      	ldr	r2, [r7, #4]
 8000a0e:	2101      	movs	r1, #1
 8000a10:	0018      	movs	r0, r3
 8000a12:	f003 fc6b 	bl	80042ec <TIM_SetPulse>
}
 8000a16:	e00d      	b.n	8000a34 <MOTOR_M1_Update+0xac>
			TIM_SetPulse(TIM_MOTOR, MOTOR_LPWM1_CH, throttle);
 8000a18:	4b08      	ldr	r3, [pc, #32]	; (8000a3c <MOTOR_M1_Update+0xb4>)
 8000a1a:	681b      	ldr	r3, [r3, #0]
 8000a1c:	687a      	ldr	r2, [r7, #4]
 8000a1e:	2100      	movs	r1, #0
 8000a20:	0018      	movs	r0, r3
 8000a22:	f003 fc63 	bl	80042ec <TIM_SetPulse>
			TIM_SetPulse(TIM_MOTOR, MOTOR_LPWM2_CH, 0);
 8000a26:	4b05      	ldr	r3, [pc, #20]	; (8000a3c <MOTOR_M1_Update+0xb4>)
 8000a28:	681b      	ldr	r3, [r3, #0]
 8000a2a:	2200      	movs	r2, #0
 8000a2c:	2101      	movs	r1, #1
 8000a2e:	0018      	movs	r0, r3
 8000a30:	f003 fc5c 	bl	80042ec <TIM_SetPulse>
}
 8000a34:	46c0      	nop			; (mov r8, r8)
 8000a36:	46bd      	mov	sp, r7
 8000a38:	b004      	add	sp, #16
 8000a3a:	bd80      	pop	{r7, pc}
 8000a3c:	20000020 	.word	0x20000020

08000a40 <MOTOR_M2_Update>:

void MOTOR_M2_Update (int32_t throttle)
{
 8000a40:	b580      	push	{r7, lr}
 8000a42:	b084      	sub	sp, #16
 8000a44:	af00      	add	r7, sp, #0
 8000a46:	6078      	str	r0, [r7, #4]
	bool reverse = false;
 8000a48:	210f      	movs	r1, #15
 8000a4a:	187b      	adds	r3, r7, r1
 8000a4c:	2200      	movs	r2, #0
 8000a4e:	701a      	strb	r2, [r3, #0]

	// Check if reversing
	if (throttle < 0) {
 8000a50:	687b      	ldr	r3, [r7, #4]
 8000a52:	2b00      	cmp	r3, #0
 8000a54:	da05      	bge.n	8000a62 <MOTOR_M2_Update+0x22>
		reverse = true;
 8000a56:	187b      	adds	r3, r7, r1
 8000a58:	2201      	movs	r2, #1
 8000a5a:	701a      	strb	r2, [r3, #0]
		throttle = -throttle;
 8000a5c:	687b      	ldr	r3, [r7, #4]
 8000a5e:	425b      	negs	r3, r3
 8000a60:	607b      	str	r3, [r7, #4]
	}

	// Clamp maximum speed
	if (throttle > MOTOR_MAX) {
 8000a62:	687a      	ldr	r2, [r7, #4]
 8000a64:	2380      	movs	r3, #128	; 0x80
 8000a66:	005b      	lsls	r3, r3, #1
 8000a68:	429a      	cmp	r2, r3
 8000a6a:	dd02      	ble.n	8000a72 <MOTOR_M2_Update+0x32>
		throttle = MOTOR_MAX;
 8000a6c:	2380      	movs	r3, #128	; 0x80
 8000a6e:	005b      	lsls	r3, r3, #1
 8000a70:	607b      	str	r3, [r7, #4]
	}

	if (throttle <= MOTOR_OFF + MOTOR_STALL) {
 8000a72:	687b      	ldr	r3, [r7, #4]
 8000a74:	2b0a      	cmp	r3, #10
 8000a76:	dc02      	bgt.n	8000a7e <MOTOR_M2_Update+0x3e>
		if (MOTOR_BRAKE) {
			MOTOR_M2_Brake();
 8000a78:	f7ff ff68 	bl	800094c <MOTOR_M2_Brake>
		TIM_SetPulse(TIM_MOTOR, MOTOR_RPWM2_CH, throttle);
	} else {
		TIM_SetPulse(TIM_MOTOR, MOTOR_RPWM1_CH, throttle);
		TIM_SetPulse(TIM_MOTOR, MOTOR_RPWM2_CH, 0);
	}
}
 8000a7c:	e021      	b.n	8000ac2 <MOTOR_M2_Update+0x82>
	} else if (reverse) {
 8000a7e:	230f      	movs	r3, #15
 8000a80:	18fb      	adds	r3, r7, r3
 8000a82:	781b      	ldrb	r3, [r3, #0]
 8000a84:	2b00      	cmp	r3, #0
 8000a86:	d00e      	beq.n	8000aa6 <MOTOR_M2_Update+0x66>
		TIM_SetPulse(TIM_MOTOR, MOTOR_RPWM1_CH, 0);
 8000a88:	4b10      	ldr	r3, [pc, #64]	; (8000acc <MOTOR_M2_Update+0x8c>)
 8000a8a:	681b      	ldr	r3, [r3, #0]
 8000a8c:	2200      	movs	r2, #0
 8000a8e:	2102      	movs	r1, #2
 8000a90:	0018      	movs	r0, r3
 8000a92:	f003 fc2b 	bl	80042ec <TIM_SetPulse>
		TIM_SetPulse(TIM_MOTOR, MOTOR_RPWM2_CH, throttle);
 8000a96:	4b0d      	ldr	r3, [pc, #52]	; (8000acc <MOTOR_M2_Update+0x8c>)
 8000a98:	681b      	ldr	r3, [r3, #0]
 8000a9a:	687a      	ldr	r2, [r7, #4]
 8000a9c:	2103      	movs	r1, #3
 8000a9e:	0018      	movs	r0, r3
 8000aa0:	f003 fc24 	bl	80042ec <TIM_SetPulse>
}
 8000aa4:	e00d      	b.n	8000ac2 <MOTOR_M2_Update+0x82>
		TIM_SetPulse(TIM_MOTOR, MOTOR_RPWM1_CH, throttle);
 8000aa6:	4b09      	ldr	r3, [pc, #36]	; (8000acc <MOTOR_M2_Update+0x8c>)
 8000aa8:	681b      	ldr	r3, [r3, #0]
 8000aaa:	687a      	ldr	r2, [r7, #4]
 8000aac:	2102      	movs	r1, #2
 8000aae:	0018      	movs	r0, r3
 8000ab0:	f003 fc1c 	bl	80042ec <TIM_SetPulse>
		TIM_SetPulse(TIM_MOTOR, MOTOR_RPWM2_CH, 0);
 8000ab4:	4b05      	ldr	r3, [pc, #20]	; (8000acc <MOTOR_M2_Update+0x8c>)
 8000ab6:	681b      	ldr	r3, [r3, #0]
 8000ab8:	2200      	movs	r2, #0
 8000aba:	2103      	movs	r1, #3
 8000abc:	0018      	movs	r0, r3
 8000abe:	f003 fc15 	bl	80042ec <TIM_SetPulse>
}
 8000ac2:	46c0      	nop			; (mov r8, r8)
 8000ac4:	46bd      	mov	sp, r7
 8000ac6:	b004      	add	sp, #16
 8000ac8:	bd80      	pop	{r7, pc}
 8000aca:	46c0      	nop			; (mov r8, r8)
 8000acc:	20000020 	.word	0x20000020

08000ad0 <GPIO_EnableOutput>:
{
 8000ad0:	b580      	push	{r7, lr}
 8000ad2:	b084      	sub	sp, #16
 8000ad4:	af00      	add	r7, sp, #0
 8000ad6:	60f8      	str	r0, [r7, #12]
 8000ad8:	60b9      	str	r1, [r7, #8]
 8000ada:	1dfb      	adds	r3, r7, #7
 8000adc:	701a      	strb	r2, [r3, #0]
	GPIO_Write(gpio, pin, state);
 8000ade:	1dfb      	adds	r3, r7, #7
 8000ae0:	781a      	ldrb	r2, [r3, #0]
 8000ae2:	68b9      	ldr	r1, [r7, #8]
 8000ae4:	68fb      	ldr	r3, [r7, #12]
 8000ae6:	0018      	movs	r0, r3
 8000ae8:	f003 f922 	bl	8003d30 <GPIO_Write>
	GPIO_Init(gpio, pin, GPIO_Mode_Output);
 8000aec:	68b9      	ldr	r1, [r7, #8]
 8000aee:	68fb      	ldr	r3, [r7, #12]
 8000af0:	2201      	movs	r2, #1
 8000af2:	0018      	movs	r0, r3
 8000af4:	f003 f982 	bl	8003dfc <GPIO_Init>
}
 8000af8:	46c0      	nop			; (mov r8, r8)
 8000afa:	46bd      	mov	sp, r7
 8000afc:	b004      	add	sp, #16
 8000afe:	bd80      	pop	{r7, pc}

08000b00 <GPIO_Set>:
{
 8000b00:	b580      	push	{r7, lr}
 8000b02:	b082      	sub	sp, #8
 8000b04:	af00      	add	r7, sp, #0
 8000b06:	6078      	str	r0, [r7, #4]
 8000b08:	6039      	str	r1, [r7, #0]
	gpio->BSRR = (uint32_t)pin;
 8000b0a:	687b      	ldr	r3, [r7, #4]
 8000b0c:	683a      	ldr	r2, [r7, #0]
 8000b0e:	619a      	str	r2, [r3, #24]
}
 8000b10:	46c0      	nop			; (mov r8, r8)
 8000b12:	46bd      	mov	sp, r7
 8000b14:	b002      	add	sp, #8
 8000b16:	bd80      	pop	{r7, pc}

08000b18 <GPIO_Reset>:
{
 8000b18:	b580      	push	{r7, lr}
 8000b1a:	b082      	sub	sp, #8
 8000b1c:	af00      	add	r7, sp, #0
 8000b1e:	6078      	str	r0, [r7, #4]
 8000b20:	6039      	str	r1, [r7, #0]
	gpio->BRR = (uint32_t)pin;
 8000b22:	687b      	ldr	r3, [r7, #4]
 8000b24:	683a      	ldr	r2, [r7, #0]
 8000b26:	629a      	str	r2, [r3, #40]	; 0x28
}
 8000b28:	46c0      	nop			; (mov r8, r8)
 8000b2a:	46bd      	mov	sp, r7
 8000b2c:	b002      	add	sp, #8
 8000b2e:	bd80      	pop	{r7, pc}

08000b30 <SERVO_Init>:
/*
 * PUBLIC FUNCTIONS
 */

void SERVO_Init(void)
{
 8000b30:	b580      	push	{r7, lr}
 8000b32:	af00      	add	r7, sp, #0
	GPIO_EnableOutput(SERVO1_GPIO, SERVO1_PIN, GPIO_PIN_RESET);
 8000b34:	2380      	movs	r3, #128	; 0x80
 8000b36:	015b      	lsls	r3, r3, #5
 8000b38:	4824      	ldr	r0, [pc, #144]	; (8000bcc <SERVO_Init+0x9c>)
 8000b3a:	2200      	movs	r2, #0
 8000b3c:	0019      	movs	r1, r3
 8000b3e:	f7ff ffc7 	bl	8000ad0 <GPIO_EnableOutput>
	TIM_Init(TIM_SERVO1, TIM_SERVO1_FREQ, TIM_SERVO1_RELOAD);
 8000b42:	4b23      	ldr	r3, [pc, #140]	; (8000bd0 <SERVO_Init+0xa0>)
 8000b44:	681b      	ldr	r3, [r3, #0]
 8000b46:	4a23      	ldr	r2, [pc, #140]	; (8000bd4 <SERVO_Init+0xa4>)
 8000b48:	4923      	ldr	r1, [pc, #140]	; (8000bd8 <SERVO_Init+0xa8>)
 8000b4a:	0018      	movs	r0, r3
 8000b4c:	f003 fb28 	bl	80041a0 <TIM_Init>
	TIM_OnReload(TIM_SERVO1, SERVO1_TimerReloadISR);
 8000b50:	4b1f      	ldr	r3, [pc, #124]	; (8000bd0 <SERVO_Init+0xa0>)
 8000b52:	681b      	ldr	r3, [r3, #0]
 8000b54:	4a21      	ldr	r2, [pc, #132]	; (8000bdc <SERVO_Init+0xac>)
 8000b56:	0011      	movs	r1, r2
 8000b58:	0018      	movs	r0, r3
 8000b5a:	f003 fb71 	bl	8004240 <TIM_OnReload>
	TIM_OnPulse(TIM_SERVO1, 0, SERVO1_TimerPulseISR);
 8000b5e:	4b1c      	ldr	r3, [pc, #112]	; (8000bd0 <SERVO_Init+0xa0>)
 8000b60:	681b      	ldr	r3, [r3, #0]
 8000b62:	4a1f      	ldr	r2, [pc, #124]	; (8000be0 <SERVO_Init+0xb0>)
 8000b64:	2100      	movs	r1, #0
 8000b66:	0018      	movs	r0, r3
 8000b68:	f003 fb7e 	bl	8004268 <TIM_OnPulse>
	SERVO_S1_Update(0);
 8000b6c:	2000      	movs	r0, #0
 8000b6e:	f000 f885 	bl	8000c7c <SERVO_S1_Update>
	TIM_Start(TIM_SERVO1);
 8000b72:	4b17      	ldr	r3, [pc, #92]	; (8000bd0 <SERVO_Init+0xa0>)
 8000b74:	681b      	ldr	r3, [r3, #0]
 8000b76:	0018      	movs	r0, r3
 8000b78:	f003 fbe6 	bl	8004348 <TIM_Start>

	GPIO_EnableOutput(SERVO2_GPIO, SERVO2_PIN, GPIO_PIN_RESET);
 8000b7c:	2380      	movs	r3, #128	; 0x80
 8000b7e:	0219      	lsls	r1, r3, #8
 8000b80:	23a0      	movs	r3, #160	; 0xa0
 8000b82:	05db      	lsls	r3, r3, #23
 8000b84:	2200      	movs	r2, #0
 8000b86:	0018      	movs	r0, r3
 8000b88:	f7ff ffa2 	bl	8000ad0 <GPIO_EnableOutput>
	TIM_Init(TIM_SERVO2, TIM_SERVO2_FREQ, TIM_SERVO2_RELOAD);
 8000b8c:	4b15      	ldr	r3, [pc, #84]	; (8000be4 <SERVO_Init+0xb4>)
 8000b8e:	681b      	ldr	r3, [r3, #0]
 8000b90:	4a10      	ldr	r2, [pc, #64]	; (8000bd4 <SERVO_Init+0xa4>)
 8000b92:	4911      	ldr	r1, [pc, #68]	; (8000bd8 <SERVO_Init+0xa8>)
 8000b94:	0018      	movs	r0, r3
 8000b96:	f003 fb03 	bl	80041a0 <TIM_Init>
	TIM_OnReload(TIM_SERVO2, SERVO2_TimerReloadISR);
 8000b9a:	4b12      	ldr	r3, [pc, #72]	; (8000be4 <SERVO_Init+0xb4>)
 8000b9c:	681b      	ldr	r3, [r3, #0]
 8000b9e:	4a12      	ldr	r2, [pc, #72]	; (8000be8 <SERVO_Init+0xb8>)
 8000ba0:	0011      	movs	r1, r2
 8000ba2:	0018      	movs	r0, r3
 8000ba4:	f003 fb4c 	bl	8004240 <TIM_OnReload>
	TIM_OnPulse(TIM_SERVO2, 0, SERVO2_TimerPulseISR);
 8000ba8:	4b0e      	ldr	r3, [pc, #56]	; (8000be4 <SERVO_Init+0xb4>)
 8000baa:	681b      	ldr	r3, [r3, #0]
 8000bac:	4a0f      	ldr	r2, [pc, #60]	; (8000bec <SERVO_Init+0xbc>)
 8000bae:	2100      	movs	r1, #0
 8000bb0:	0018      	movs	r0, r3
 8000bb2:	f003 fb59 	bl	8004268 <TIM_OnPulse>
	SERVO_S2_Update(0);
 8000bb6:	2000      	movs	r0, #0
 8000bb8:	f000 f874 	bl	8000ca4 <SERVO_S2_Update>
	TIM_Start(TIM_SERVO2);
 8000bbc:	4b09      	ldr	r3, [pc, #36]	; (8000be4 <SERVO_Init+0xb4>)
 8000bbe:	681b      	ldr	r3, [r3, #0]
 8000bc0:	0018      	movs	r0, r3
 8000bc2:	f003 fbc1 	bl	8004348 <TIM_Start>
}
 8000bc6:	46c0      	nop			; (mov r8, r8)
 8000bc8:	46bd      	mov	sp, r7
 8000bca:	bd80      	pop	{r7, pc}
 8000bcc:	50000400 	.word	0x50000400
 8000bd0:	20000058 	.word	0x20000058
 8000bd4:	00002710 	.word	0x00002710
 8000bd8:	000f4240 	.word	0x000f4240
 8000bdc:	08000ccd 	.word	0x08000ccd
 8000be0:	08000ce9 	.word	0x08000ce9
 8000be4:	20000074 	.word	0x20000074
 8000be8:	08000d05 	.word	0x08000d05
 8000bec:	08000d1f 	.word	0x08000d1f

08000bf0 <SERVO_Deinit>:

void SERVO_Deinit(void)
{
 8000bf0:	b580      	push	{r7, lr}
 8000bf2:	af00      	add	r7, sp, #0
	TIM_Stop(TIM_SERVO1);
 8000bf4:	4b12      	ldr	r3, [pc, #72]	; (8000c40 <SERVO_Deinit+0x50>)
 8000bf6:	681b      	ldr	r3, [r3, #0]
 8000bf8:	0018      	movs	r0, r3
 8000bfa:	f003 fbb9 	bl	8004370 <TIM_Stop>
	TIM_Deinit(TIM_SERVO1);
 8000bfe:	4b10      	ldr	r3, [pc, #64]	; (8000c40 <SERVO_Deinit+0x50>)
 8000c00:	681b      	ldr	r3, [r3, #0]
 8000c02:	0018      	movs	r0, r3
 8000c04:	f003 fbcc 	bl	80043a0 <TIM_Deinit>
	GPIO_Write(SERVO1_GPIO, SERVO1_PIN, GPIO_PIN_RESET);
 8000c08:	2380      	movs	r3, #128	; 0x80
 8000c0a:	015b      	lsls	r3, r3, #5
 8000c0c:	480d      	ldr	r0, [pc, #52]	; (8000c44 <SERVO_Deinit+0x54>)
 8000c0e:	2200      	movs	r2, #0
 8000c10:	0019      	movs	r1, r3
 8000c12:	f003 f88d 	bl	8003d30 <GPIO_Write>

	TIM_Stop(TIM_SERVO2);
 8000c16:	4b0c      	ldr	r3, [pc, #48]	; (8000c48 <SERVO_Deinit+0x58>)
 8000c18:	681b      	ldr	r3, [r3, #0]
 8000c1a:	0018      	movs	r0, r3
 8000c1c:	f003 fba8 	bl	8004370 <TIM_Stop>
	TIM_Deinit(TIM_SERVO2);
 8000c20:	4b09      	ldr	r3, [pc, #36]	; (8000c48 <SERVO_Deinit+0x58>)
 8000c22:	681b      	ldr	r3, [r3, #0]
 8000c24:	0018      	movs	r0, r3
 8000c26:	f003 fbbb 	bl	80043a0 <TIM_Deinit>
	GPIO_Write(SERVO2_GPIO, SERVO2_PIN, GPIO_PIN_RESET);
 8000c2a:	2380      	movs	r3, #128	; 0x80
 8000c2c:	0219      	lsls	r1, r3, #8
 8000c2e:	23a0      	movs	r3, #160	; 0xa0
 8000c30:	05db      	lsls	r3, r3, #23
 8000c32:	2200      	movs	r2, #0
 8000c34:	0018      	movs	r0, r3
 8000c36:	f003 f87b 	bl	8003d30 <GPIO_Write>
}
 8000c3a:	46c0      	nop			; (mov r8, r8)
 8000c3c:	46bd      	mov	sp, r7
 8000c3e:	bd80      	pop	{r7, pc}
 8000c40:	20000058 	.word	0x20000058
 8000c44:	50000400 	.word	0x50000400
 8000c48:	20000074 	.word	0x20000074

08000c4c <SERVO_Update>:

void SERVO_Update(uint16_t S1, uint16_t S2)
{
 8000c4c:	b580      	push	{r7, lr}
 8000c4e:	b082      	sub	sp, #8
 8000c50:	af00      	add	r7, sp, #0
 8000c52:	0002      	movs	r2, r0
 8000c54:	1dbb      	adds	r3, r7, #6
 8000c56:	801a      	strh	r2, [r3, #0]
 8000c58:	1d3b      	adds	r3, r7, #4
 8000c5a:	1c0a      	adds	r2, r1, #0
 8000c5c:	801a      	strh	r2, [r3, #0]
	SERVO_S1_Update(S1);
 8000c5e:	1dbb      	adds	r3, r7, #6
 8000c60:	881b      	ldrh	r3, [r3, #0]
 8000c62:	0018      	movs	r0, r3
 8000c64:	f000 f80a 	bl	8000c7c <SERVO_S1_Update>
	SERVO_S2_Update(S2);
 8000c68:	1d3b      	adds	r3, r7, #4
 8000c6a:	881b      	ldrh	r3, [r3, #0]
 8000c6c:	0018      	movs	r0, r3
 8000c6e:	f000 f819 	bl	8000ca4 <SERVO_S2_Update>
}
 8000c72:	46c0      	nop			; (mov r8, r8)
 8000c74:	46bd      	mov	sp, r7
 8000c76:	b002      	add	sp, #8
 8000c78:	bd80      	pop	{r7, pc}
	...

08000c7c <SERVO_S1_Update>:
/*
 * PRIVATE FUNCTIONS
 */

void SERVO_S1_Update(uint16_t pulse)
{
 8000c7c:	b580      	push	{r7, lr}
 8000c7e:	b082      	sub	sp, #8
 8000c80:	af00      	add	r7, sp, #0
 8000c82:	0002      	movs	r2, r0
 8000c84:	1dbb      	adds	r3, r7, #6
 8000c86:	801a      	strh	r2, [r3, #0]
	TIM_SetPulse(TIM_SERVO1, 0, pulse);
 8000c88:	4b05      	ldr	r3, [pc, #20]	; (8000ca0 <SERVO_S1_Update+0x24>)
 8000c8a:	6818      	ldr	r0, [r3, #0]
 8000c8c:	1dbb      	adds	r3, r7, #6
 8000c8e:	881b      	ldrh	r3, [r3, #0]
 8000c90:	001a      	movs	r2, r3
 8000c92:	2100      	movs	r1, #0
 8000c94:	f003 fb2a 	bl	80042ec <TIM_SetPulse>
}
 8000c98:	46c0      	nop			; (mov r8, r8)
 8000c9a:	46bd      	mov	sp, r7
 8000c9c:	b002      	add	sp, #8
 8000c9e:	bd80      	pop	{r7, pc}
 8000ca0:	20000058 	.word	0x20000058

08000ca4 <SERVO_S2_Update>:

void SERVO_S2_Update(uint16_t pulse)
{
 8000ca4:	b580      	push	{r7, lr}
 8000ca6:	b082      	sub	sp, #8
 8000ca8:	af00      	add	r7, sp, #0
 8000caa:	0002      	movs	r2, r0
 8000cac:	1dbb      	adds	r3, r7, #6
 8000cae:	801a      	strh	r2, [r3, #0]
	TIM_SetPulse(TIM_SERVO2, 0, pulse);
 8000cb0:	4b05      	ldr	r3, [pc, #20]	; (8000cc8 <SERVO_S2_Update+0x24>)
 8000cb2:	6818      	ldr	r0, [r3, #0]
 8000cb4:	1dbb      	adds	r3, r7, #6
 8000cb6:	881b      	ldrh	r3, [r3, #0]
 8000cb8:	001a      	movs	r2, r3
 8000cba:	2100      	movs	r1, #0
 8000cbc:	f003 fb16 	bl	80042ec <TIM_SetPulse>
}
 8000cc0:	46c0      	nop			; (mov r8, r8)
 8000cc2:	46bd      	mov	sp, r7
 8000cc4:	b002      	add	sp, #8
 8000cc6:	bd80      	pop	{r7, pc}
 8000cc8:	20000074 	.word	0x20000074

08000ccc <SERVO1_TimerReloadISR>:
/*
 * INTERRUPT ROUTINES
 */

static void SERVO1_TimerReloadISR(void)
{
 8000ccc:	b580      	push	{r7, lr}
 8000cce:	af00      	add	r7, sp, #0
	GPIO_Set(SERVO1_GPIO, SERVO1_PIN);
 8000cd0:	2380      	movs	r3, #128	; 0x80
 8000cd2:	015b      	lsls	r3, r3, #5
 8000cd4:	4a03      	ldr	r2, [pc, #12]	; (8000ce4 <SERVO1_TimerReloadISR+0x18>)
 8000cd6:	0019      	movs	r1, r3
 8000cd8:	0010      	movs	r0, r2
 8000cda:	f7ff ff11 	bl	8000b00 <GPIO_Set>
}
 8000cde:	46c0      	nop			; (mov r8, r8)
 8000ce0:	46bd      	mov	sp, r7
 8000ce2:	bd80      	pop	{r7, pc}
 8000ce4:	50000400 	.word	0x50000400

08000ce8 <SERVO1_TimerPulseISR>:

static void SERVO1_TimerPulseISR(void)
{
 8000ce8:	b580      	push	{r7, lr}
 8000cea:	af00      	add	r7, sp, #0
	GPIO_Reset(SERVO1_GPIO, SERVO1_PIN);
 8000cec:	2380      	movs	r3, #128	; 0x80
 8000cee:	015b      	lsls	r3, r3, #5
 8000cf0:	4a03      	ldr	r2, [pc, #12]	; (8000d00 <SERVO1_TimerPulseISR+0x18>)
 8000cf2:	0019      	movs	r1, r3
 8000cf4:	0010      	movs	r0, r2
 8000cf6:	f7ff ff0f 	bl	8000b18 <GPIO_Reset>
}
 8000cfa:	46c0      	nop			; (mov r8, r8)
 8000cfc:	46bd      	mov	sp, r7
 8000cfe:	bd80      	pop	{r7, pc}
 8000d00:	50000400 	.word	0x50000400

08000d04 <SERVO2_TimerReloadISR>:

static void SERVO2_TimerReloadISR(void)
{
 8000d04:	b580      	push	{r7, lr}
 8000d06:	af00      	add	r7, sp, #0
	GPIO_Set(SERVO2_GPIO, SERVO2_PIN);
 8000d08:	2380      	movs	r3, #128	; 0x80
 8000d0a:	021a      	lsls	r2, r3, #8
 8000d0c:	23a0      	movs	r3, #160	; 0xa0
 8000d0e:	05db      	lsls	r3, r3, #23
 8000d10:	0011      	movs	r1, r2
 8000d12:	0018      	movs	r0, r3
 8000d14:	f7ff fef4 	bl	8000b00 <GPIO_Set>
}
 8000d18:	46c0      	nop			; (mov r8, r8)
 8000d1a:	46bd      	mov	sp, r7
 8000d1c:	bd80      	pop	{r7, pc}

08000d1e <SERVO2_TimerPulseISR>:

static void SERVO2_TimerPulseISR(void)
{
 8000d1e:	b580      	push	{r7, lr}
 8000d20:	af00      	add	r7, sp, #0
	GPIO_Reset(SERVO2_GPIO, SERVO2_PIN);
 8000d22:	2380      	movs	r3, #128	; 0x80
 8000d24:	021a      	lsls	r2, r3, #8
 8000d26:	23a0      	movs	r3, #160	; 0xa0
 8000d28:	05db      	lsls	r3, r3, #23
 8000d2a:	0011      	movs	r1, r2
 8000d2c:	0018      	movs	r0, r3
 8000d2e:	f7ff fef3 	bl	8000b18 <GPIO_Reset>
}
 8000d32:	46c0      	nop			; (mov r8, r8)
 8000d34:	46bd      	mov	sp, r7
 8000d36:	bd80      	pop	{r7, pc}

08000d38 <CORE_GetTick>:
{
 8000d38:	b580      	push	{r7, lr}
 8000d3a:	af00      	add	r7, sp, #0
	return gTicks;
 8000d3c:	4b02      	ldr	r3, [pc, #8]	; (8000d48 <CORE_GetTick+0x10>)
 8000d3e:	681b      	ldr	r3, [r3, #0]
}
 8000d40:	0018      	movs	r0, r3
 8000d42:	46bd      	mov	sp, r7
 8000d44:	bd80      	pop	{r7, pc}
 8000d46:	46c0      	nop			; (mov r8, r8)
 8000d48:	200004a8 	.word	0x200004a8

08000d4c <GPIO_EnableInput>:
{
 8000d4c:	b580      	push	{r7, lr}
 8000d4e:	b084      	sub	sp, #16
 8000d50:	af00      	add	r7, sp, #0
 8000d52:	60f8      	str	r0, [r7, #12]
 8000d54:	60b9      	str	r1, [r7, #8]
 8000d56:	1dfb      	adds	r3, r7, #7
 8000d58:	701a      	strb	r2, [r3, #0]
	GPIO_Init(gpio, pin, GPIO_Mode_Input | pull);
 8000d5a:	1dfb      	adds	r3, r7, #7
 8000d5c:	781b      	ldrb	r3, [r3, #0]
 8000d5e:	b29a      	uxth	r2, r3
 8000d60:	68b9      	ldr	r1, [r7, #8]
 8000d62:	68fb      	ldr	r3, [r7, #12]
 8000d64:	0018      	movs	r0, r3
 8000d66:	f003 f849 	bl	8003dfc <GPIO_Init>
}
 8000d6a:	46c0      	nop			; (mov r8, r8)
 8000d6c:	46bd      	mov	sp, r7
 8000d6e:	b004      	add	sp, #16
 8000d70:	bd80      	pop	{r7, pc}

08000d72 <GPIO_Read>:
{
 8000d72:	b580      	push	{r7, lr}
 8000d74:	b082      	sub	sp, #8
 8000d76:	af00      	add	r7, sp, #0
 8000d78:	6078      	str	r0, [r7, #4]
 8000d7a:	6039      	str	r1, [r7, #0]
	return ((gpio->IDR & pin) > 0);
 8000d7c:	687b      	ldr	r3, [r7, #4]
 8000d7e:	691b      	ldr	r3, [r3, #16]
 8000d80:	683a      	ldr	r2, [r7, #0]
 8000d82:	4013      	ands	r3, r2
 8000d84:	1e5a      	subs	r2, r3, #1
 8000d86:	4193      	sbcs	r3, r2
 8000d88:	b2db      	uxtb	r3, r3
}
 8000d8a:	0018      	movs	r0, r3
 8000d8c:	46bd      	mov	sp, r7
 8000d8e:	b002      	add	sp, #8
 8000d90:	bd80      	pop	{r7, pc}
	...

08000d94 <SYSTEM_Init>:
/*
 * PUBLIC FUNCTIONS
 */

void SYSTEM_Init(void)
{
 8000d94:	b580      	push	{r7, lr}
 8000d96:	af00      	add	r7, sp, #0
	//
	ADC_Init();
 8000d98:	f002 fc86 	bl	80036a8 <ADC_Init>
	GPIO_Init(BATTERY_GPIO, BATTERY_PIN, GPIO_Mode_Analog);
 8000d9c:	23a0      	movs	r3, #160	; 0xa0
 8000d9e:	05db      	lsls	r3, r3, #23
 8000da0:	2203      	movs	r2, #3
 8000da2:	2180      	movs	r1, #128	; 0x80
 8000da4:	0018      	movs	r0, r3
 8000da6:	f003 f829 	bl	8003dfc <GPIO_Init>
	if (SYSTEM_GetBatteryVoltage() >= BATT_2S_LOW) {
 8000daa:	f000 fa69 	bl	8001280 <SYSTEM_GetBatteryVoltage>
 8000dae:	0003      	movs	r3, r0
 8000db0:	4a11      	ldr	r2, [pc, #68]	; (8000df8 <SYSTEM_Init+0x64>)
 8000db2:	4293      	cmp	r3, r2
 8000db4:	d903      	bls.n	8000dbe <SYSTEM_Init+0x2a>
		fault.faultVoltage = BATT_2S_LOW;
 8000db6:	4b11      	ldr	r3, [pc, #68]	; (8000dfc <SYSTEM_Init+0x68>)
 8000db8:	4a11      	ldr	r2, [pc, #68]	; (8000e00 <SYSTEM_Init+0x6c>)
 8000dba:	605a      	str	r2, [r3, #4]
 8000dbc:	e003      	b.n	8000dc6 <SYSTEM_Init+0x32>
	} else {
		fault.faultVoltage = BATT_1S_LOW;
 8000dbe:	4b0f      	ldr	r3, [pc, #60]	; (8000dfc <SYSTEM_Init+0x68>)
 8000dc0:	22c8      	movs	r2, #200	; 0xc8
 8000dc2:	0112      	lsls	r2, r2, #4
 8000dc4:	605a      	str	r2, [r3, #4]
	}
	// INIT THE CALIBRATION INPUT
	GPIO_EnableInput(CALIBRATE_GPIO, CALIBRATE_PIN, GPIO_Pull_Up);
 8000dc6:	2380      	movs	r3, #128	; 0x80
 8000dc8:	00db      	lsls	r3, r3, #3
 8000dca:	480e      	ldr	r0, [pc, #56]	; (8000e04 <SYSTEM_Init+0x70>)
 8000dcc:	2210      	movs	r2, #16
 8000dce:	0019      	movs	r1, r3
 8000dd0:	f7ff ffbc 	bl	8000d4c <GPIO_EnableInput>

	// INIT LEDs
	LED_Init();
 8000dd4:	f7ff fc56 	bl	8000684 <LED_Init>

	// READ CONFIGURATION FROM EEPROM
	EEPROM_Read(EEPROM_OFFSET, &config, sizeof(config));
 8000dd8:	4b0b      	ldr	r3, [pc, #44]	; (8000e08 <SYSTEM_Init+0x74>)
 8000dda:	221c      	movs	r2, #28
 8000ddc:	0019      	movs	r1, r3
 8000dde:	2000      	movs	r0, #0
 8000de0:	f002 ff30 	bl	8003c44 <EEPROM_Read>

	// CHECK FOR VALID CONFIG
	SYSTEM_VerifyConfig();
 8000de4:	f000 fa04 	bl	80011f0 <SYSTEM_VerifyConfig>

	//
	RADIO_Init(&config.radio);
 8000de8:	4b08      	ldr	r3, [pc, #32]	; (8000e0c <SYSTEM_Init+0x78>)
 8000dea:	0018      	movs	r0, r3
 8000dec:	f002 f8b2 	bl	8002f54 <RADIO_Init>
}
 8000df0:	46c0      	nop			; (mov r8, r8)
 8000df2:	46bd      	mov	sp, r7
 8000df4:	bd80      	pop	{r7, pc}
 8000df6:	46c0      	nop			; (mov r8, r8)
 8000df8:	00001837 	.word	0x00001837
 8000dfc:	200002ac 	.word	0x200002ac
 8000e00:	00001838 	.word	0x00001838
 8000e04:	50000400 	.word	0x50000400
 8000e08:	200002b4 	.word	0x200002b4
 8000e0c:	200002c4 	.word	0x200002c4

08000e10 <SYSTEM_Update>:

void SYSTEM_Update (void)
{
 8000e10:	b580      	push	{r7, lr}
 8000e12:	af00      	add	r7, sp, #0
	// Update Inputs
	RADIO_Update();
 8000e14:	f002 f8ee 	bl	8002ff4 <RADIO_Update>

	// Check For Fault Conditions
	SYSTEM_HandleFaultStatus();
 8000e18:	f000 f80a 	bl	8000e30 <SYSTEM_HandleFaultStatus>

	// Update LED's Based on Current Fault Status
	SYSTEM_HandleLEDs();
 8000e1c:	f000 f8a4 	bl	8000f68 <SYSTEM_HandleLEDs>

	// Handle System Calibration
	SYSTEM_HandleCalibration();
 8000e20:	f000 f86c 	bl	8000efc <SYSTEM_HandleCalibration>

	//
	SYSTEM_HandleOutputs();
 8000e24:	f000 f8da 	bl	8000fdc <SYSTEM_HandleOutputs>
}
 8000e28:	46c0      	nop			; (mov r8, r8)
 8000e2a:	46bd      	mov	sp, r7
 8000e2c:	bd80      	pop	{r7, pc}
	...

08000e30 <SYSTEM_HandleFaultStatus>:
/*
 * PRIVATE FUNCTIONS
 */

void SYSTEM_HandleFaultStatus (void)
{
 8000e30:	b580      	push	{r7, lr}
 8000e32:	b084      	sub	sp, #16
 8000e34:	af00      	add	r7, sp, #0
	static bool faultVoltage = false;
	static uint32_t tickVolt = 0;
	uint32_t SystemVolt = SYSTEM_GetBatteryVoltage();
 8000e36:	f000 fa23 	bl	8001280 <SYSTEM_GetBatteryVoltage>
 8000e3a:	0003      	movs	r3, r0
 8000e3c:	60fb      	str	r3, [r7, #12]
	int32_t SystemTemp = ADC_ReadDieTemp();
 8000e3e:	f002 fce1 	bl	8003804 <ADC_ReadDieTemp>
 8000e42:	0003      	movs	r3, r0
 8000e44:	60bb      	str	r3, [r7, #8]

	//
	if (!faultVoltage) {
 8000e46:	4b2a      	ldr	r3, [pc, #168]	; (8000ef0 <SYSTEM_HandleFaultStatus+0xc0>)
 8000e48:	781b      	ldrb	r3, [r3, #0]
 8000e4a:	2201      	movs	r2, #1
 8000e4c:	4053      	eors	r3, r2
 8000e4e:	b2db      	uxtb	r3, r3
 8000e50:	2b00      	cmp	r3, #0
 8000e52:	d00d      	beq.n	8000e70 <SYSTEM_HandleFaultStatus+0x40>
		if (SystemVolt <= fault.faultVoltage) {
 8000e54:	4b27      	ldr	r3, [pc, #156]	; (8000ef4 <SYSTEM_HandleFaultStatus+0xc4>)
 8000e56:	685b      	ldr	r3, [r3, #4]
 8000e58:	68fa      	ldr	r2, [r7, #12]
 8000e5a:	429a      	cmp	r2, r3
 8000e5c:	d820      	bhi.n	8000ea0 <SYSTEM_HandleFaultStatus+0x70>
			faultVoltage = true;
 8000e5e:	4b24      	ldr	r3, [pc, #144]	; (8000ef0 <SYSTEM_HandleFaultStatus+0xc0>)
 8000e60:	2201      	movs	r2, #1
 8000e62:	701a      	strb	r2, [r3, #0]
			tickVolt = CORE_GetTick();
 8000e64:	f7ff ff68 	bl	8000d38 <CORE_GetTick>
 8000e68:	0002      	movs	r2, r0
 8000e6a:	4b23      	ldr	r3, [pc, #140]	; (8000ef8 <SYSTEM_HandleFaultStatus+0xc8>)
 8000e6c:	601a      	str	r2, [r3, #0]
 8000e6e:	e017      	b.n	8000ea0 <SYSTEM_HandleFaultStatus+0x70>
		}
	} else {
		if (SystemVolt >= (fault.faultVoltage + BATT_HYST)) {
 8000e70:	4b20      	ldr	r3, [pc, #128]	; (8000ef4 <SYSTEM_HandleFaultStatus+0xc4>)
 8000e72:	685b      	ldr	r3, [r3, #4]
 8000e74:	3364      	adds	r3, #100	; 0x64
 8000e76:	68fa      	ldr	r2, [r7, #12]
 8000e78:	429a      	cmp	r2, r3
 8000e7a:	d306      	bcc.n	8000e8a <SYSTEM_HandleFaultStatus+0x5a>
			faultVoltage = false;
 8000e7c:	4b1c      	ldr	r3, [pc, #112]	; (8000ef0 <SYSTEM_HandleFaultStatus+0xc0>)
 8000e7e:	2200      	movs	r2, #0
 8000e80:	701a      	strb	r2, [r3, #0]
			fault.inputVoltage = false;
 8000e82:	4b1c      	ldr	r3, [pc, #112]	; (8000ef4 <SYSTEM_HandleFaultStatus+0xc4>)
 8000e84:	2200      	movs	r2, #0
 8000e86:	705a      	strb	r2, [r3, #1]
 8000e88:	e00a      	b.n	8000ea0 <SYSTEM_HandleFaultStatus+0x70>
		} else if (FAULT_VOLTAGE_TRIP <= (CORE_GetTick() - tickVolt)) {
 8000e8a:	f7ff ff55 	bl	8000d38 <CORE_GetTick>
 8000e8e:	0002      	movs	r2, r0
 8000e90:	4b19      	ldr	r3, [pc, #100]	; (8000ef8 <SYSTEM_HandleFaultStatus+0xc8>)
 8000e92:	681b      	ldr	r3, [r3, #0]
 8000e94:	1ad3      	subs	r3, r2, r3
 8000e96:	2b63      	cmp	r3, #99	; 0x63
 8000e98:	d902      	bls.n	8000ea0 <SYSTEM_HandleFaultStatus+0x70>
			fault.inputVoltage = true;
 8000e9a:	4b16      	ldr	r3, [pc, #88]	; (8000ef4 <SYSTEM_HandleFaultStatus+0xc4>)
 8000e9c:	2201      	movs	r2, #1
 8000e9e:	705a      	strb	r2, [r3, #1]
		}
	}

	//
	if (!fault.overTemperature) {
 8000ea0:	4b14      	ldr	r3, [pc, #80]	; (8000ef4 <SYSTEM_HandleFaultStatus+0xc4>)
 8000ea2:	789b      	ldrb	r3, [r3, #2]
 8000ea4:	2201      	movs	r2, #1
 8000ea6:	4053      	eors	r3, r2
 8000ea8:	b2db      	uxtb	r3, r3
 8000eaa:	2b00      	cmp	r3, #0
 8000eac:	d006      	beq.n	8000ebc <SYSTEM_HandleFaultStatus+0x8c>
		if (SystemTemp >= TEMP_HIGH) { fault.overTemperature = true; }
 8000eae:	68bb      	ldr	r3, [r7, #8]
 8000eb0:	2b63      	cmp	r3, #99	; 0x63
 8000eb2:	dd09      	ble.n	8000ec8 <SYSTEM_HandleFaultStatus+0x98>
 8000eb4:	4b0f      	ldr	r3, [pc, #60]	; (8000ef4 <SYSTEM_HandleFaultStatus+0xc4>)
 8000eb6:	2201      	movs	r2, #1
 8000eb8:	709a      	strb	r2, [r3, #2]
 8000eba:	e005      	b.n	8000ec8 <SYSTEM_HandleFaultStatus+0x98>
	} else {
		if (SystemTemp <= (TEMP_HIGH - TEMP_HYST)) { fault.overTemperature = false; }
 8000ebc:	68bb      	ldr	r3, [r7, #8]
 8000ebe:	2b5a      	cmp	r3, #90	; 0x5a
 8000ec0:	dc02      	bgt.n	8000ec8 <SYSTEM_HandleFaultStatus+0x98>
 8000ec2:	4b0c      	ldr	r3, [pc, #48]	; (8000ef4 <SYSTEM_HandleFaultStatus+0xc4>)
 8000ec4:	2200      	movs	r2, #0
 8000ec6:	709a      	strb	r2, [r3, #2]
	}

	//
	RADIO_Data* ptrDataRadio = RADIO_GetDataPtr();
 8000ec8:	f002 f8f8 	bl	80030bc <RADIO_GetDataPtr>
 8000ecc:	0003      	movs	r3, r0
 8000ece:	607b      	str	r3, [r7, #4]
	if (ptrDataRadio->inputLost) {
 8000ed0:	687b      	ldr	r3, [r7, #4]
 8000ed2:	781b      	ldrb	r3, [r3, #0]
 8000ed4:	2b00      	cmp	r3, #0
 8000ed6:	d003      	beq.n	8000ee0 <SYSTEM_HandleFaultStatus+0xb0>
		fault.signalLost = true;
 8000ed8:	4b06      	ldr	r3, [pc, #24]	; (8000ef4 <SYSTEM_HandleFaultStatus+0xc4>)
 8000eda:	2201      	movs	r2, #1
 8000edc:	701a      	strb	r2, [r3, #0]
	} else {
		fault.signalLost = false;
	}
}
 8000ede:	e002      	b.n	8000ee6 <SYSTEM_HandleFaultStatus+0xb6>
		fault.signalLost = false;
 8000ee0:	4b04      	ldr	r3, [pc, #16]	; (8000ef4 <SYSTEM_HandleFaultStatus+0xc4>)
 8000ee2:	2200      	movs	r2, #0
 8000ee4:	701a      	strb	r2, [r3, #0]
}
 8000ee6:	46c0      	nop			; (mov r8, r8)
 8000ee8:	46bd      	mov	sp, r7
 8000eea:	b004      	add	sp, #16
 8000eec:	bd80      	pop	{r7, pc}
 8000eee:	46c0      	nop			; (mov r8, r8)
 8000ef0:	200002f0 	.word	0x200002f0
 8000ef4:	200002ac 	.word	0x200002ac
 8000ef8:	200002f4 	.word	0x200002f4

08000efc <SYSTEM_HandleCalibration>:


void SYSTEM_HandleCalibration (void)
{
 8000efc:	b580      	push	{r7, lr}
 8000efe:	b082      	sub	sp, #8
 8000f00:	af00      	add	r7, sp, #0
	// Initialize Loop Variables
	uint32_t now = CORE_GetTick();
 8000f02:	f7ff ff19 	bl	8000d38 <CORE_GetTick>
 8000f06:	0003      	movs	r3, r0
 8000f08:	607b      	str	r3, [r7, #4]
	static bool calibrateWindow = true;

	//
	if (calibrateWindow) {
 8000f0a:	4b13      	ldr	r3, [pc, #76]	; (8000f58 <SYSTEM_HandleCalibration+0x5c>)
 8000f0c:	781b      	ldrb	r3, [r3, #0]
 8000f0e:	2b00      	cmp	r3, #0
 8000f10:	d01e      	beq.n	8000f50 <SYSTEM_HandleCalibration+0x54>
		if (now > CALIBRATE_TIMEOUT) {
 8000f12:	687b      	ldr	r3, [r7, #4]
 8000f14:	4a11      	ldr	r2, [pc, #68]	; (8000f5c <SYSTEM_HandleCalibration+0x60>)
 8000f16:	4293      	cmp	r3, r2
 8000f18:	d903      	bls.n	8000f22 <SYSTEM_HandleCalibration+0x26>
			calibrateWindow = false;
 8000f1a:	4b0f      	ldr	r3, [pc, #60]	; (8000f58 <SYSTEM_HandleCalibration+0x5c>)
 8000f1c:	2200      	movs	r2, #0
 8000f1e:	701a      	strb	r2, [r3, #0]
		} else if (now < CALIBRATE_TIMEOUT && !GPIO_Read(CALIBRATE_GPIO, CALIBRATE_PIN)) {
			SYSTEM_UpdateCalibration();
			calibrateWindow = false;
		}
	}
}
 8000f20:	e016      	b.n	8000f50 <SYSTEM_HandleCalibration+0x54>
		} else if (now < CALIBRATE_TIMEOUT && !GPIO_Read(CALIBRATE_GPIO, CALIBRATE_PIN)) {
 8000f22:	687b      	ldr	r3, [r7, #4]
 8000f24:	4a0e      	ldr	r2, [pc, #56]	; (8000f60 <SYSTEM_HandleCalibration+0x64>)
 8000f26:	4293      	cmp	r3, r2
 8000f28:	d812      	bhi.n	8000f50 <SYSTEM_HandleCalibration+0x54>
 8000f2a:	2380      	movs	r3, #128	; 0x80
 8000f2c:	00db      	lsls	r3, r3, #3
 8000f2e:	4a0d      	ldr	r2, [pc, #52]	; (8000f64 <SYSTEM_HandleCalibration+0x68>)
 8000f30:	0019      	movs	r1, r3
 8000f32:	0010      	movs	r0, r2
 8000f34:	f7ff ff1d 	bl	8000d72 <GPIO_Read>
 8000f38:	0003      	movs	r3, r0
 8000f3a:	001a      	movs	r2, r3
 8000f3c:	2301      	movs	r3, #1
 8000f3e:	4053      	eors	r3, r2
 8000f40:	b2db      	uxtb	r3, r3
 8000f42:	2b00      	cmp	r3, #0
 8000f44:	d004      	beq.n	8000f50 <SYSTEM_HandleCalibration+0x54>
			SYSTEM_UpdateCalibration();
 8000f46:	f000 f9ef 	bl	8001328 <SYSTEM_UpdateCalibration>
			calibrateWindow = false;
 8000f4a:	4b03      	ldr	r3, [pc, #12]	; (8000f58 <SYSTEM_HandleCalibration+0x5c>)
 8000f4c:	2200      	movs	r2, #0
 8000f4e:	701a      	strb	r2, [r3, #0]
}
 8000f50:	46c0      	nop			; (mov r8, r8)
 8000f52:	46bd      	mov	sp, r7
 8000f54:	b002      	add	sp, #8
 8000f56:	bd80      	pop	{r7, pc}
 8000f58:	20000000 	.word	0x20000000
 8000f5c:	00001388 	.word	0x00001388
 8000f60:	00001387 	.word	0x00001387
 8000f64:	50000400 	.word	0x50000400

08000f68 <SYSTEM_HandleLEDs>:

void SYSTEM_HandleLEDs (void)
{
 8000f68:	b580      	push	{r7, lr}
 8000f6a:	b082      	sub	sp, #8
 8000f6c:	af00      	add	r7, sp, #0
	// Initialize Loop Variables
	uint32_t now = CORE_GetTick();
 8000f6e:	f7ff fee3 	bl	8000d38 <CORE_GetTick>
 8000f72:	0003      	movs	r3, r0
 8000f74:	607b      	str	r3, [r7, #4]
	static uint32_t tick = 0;

	//
	if (fault.overTemperature)
 8000f76:	4b17      	ldr	r3, [pc, #92]	; (8000fd4 <SYSTEM_HandleLEDs+0x6c>)
 8000f78:	789b      	ldrb	r3, [r3, #2]
 8000f7a:	2b00      	cmp	r3, #0
 8000f7c:	d004      	beq.n	8000f88 <SYSTEM_HandleLEDs+0x20>
	{
		LED_RedON();
 8000f7e:	f7ff fbb1 	bl	80006e4 <LED_RedON>
		LED_GreenOFF();
 8000f82:	f7ff fbbd 	bl	8000700 <LED_GreenOFF>
	else
	{
		LED_RedOFF();
		LED_GreenON();
	}
}
 8000f86:	e020      	b.n	8000fca <SYSTEM_HandleLEDs+0x62>
	else if (fault.inputVoltage)
 8000f88:	4b12      	ldr	r3, [pc, #72]	; (8000fd4 <SYSTEM_HandleLEDs+0x6c>)
 8000f8a:	785b      	ldrb	r3, [r3, #1]
 8000f8c:	2b00      	cmp	r3, #0
 8000f8e:	d004      	beq.n	8000f9a <SYSTEM_HandleLEDs+0x32>
		LED_RedON();
 8000f90:	f7ff fba8 	bl	80006e4 <LED_RedON>
		LED_GreenON();
 8000f94:	f7ff fb98 	bl	80006c8 <LED_GreenON>
}
 8000f98:	e017      	b.n	8000fca <SYSTEM_HandleLEDs+0x62>
	else if (fault.signalLost)
 8000f9a:	4b0e      	ldr	r3, [pc, #56]	; (8000fd4 <SYSTEM_HandleLEDs+0x6c>)
 8000f9c:	781b      	ldrb	r3, [r3, #0]
 8000f9e:	2b00      	cmp	r3, #0
 8000fa0:	d00f      	beq.n	8000fc2 <SYSTEM_HandleLEDs+0x5a>
		LED_RedOFF();
 8000fa2:	f7ff fbbb 	bl	800071c <LED_RedOFF>
		if (LED_FAULTFLASH <= (now - tick))
 8000fa6:	4b0c      	ldr	r3, [pc, #48]	; (8000fd8 <SYSTEM_HandleLEDs+0x70>)
 8000fa8:	681b      	ldr	r3, [r3, #0]
 8000faa:	687a      	ldr	r2, [r7, #4]
 8000fac:	1ad2      	subs	r2, r2, r3
 8000fae:	23fa      	movs	r3, #250	; 0xfa
 8000fb0:	005b      	lsls	r3, r3, #1
 8000fb2:	429a      	cmp	r2, r3
 8000fb4:	d309      	bcc.n	8000fca <SYSTEM_HandleLEDs+0x62>
			LED_GreenToggle();
 8000fb6:	f7ff fbbf 	bl	8000738 <LED_GreenToggle>
			tick = now;
 8000fba:	4b07      	ldr	r3, [pc, #28]	; (8000fd8 <SYSTEM_HandleLEDs+0x70>)
 8000fbc:	687a      	ldr	r2, [r7, #4]
 8000fbe:	601a      	str	r2, [r3, #0]
}
 8000fc0:	e003      	b.n	8000fca <SYSTEM_HandleLEDs+0x62>
		LED_RedOFF();
 8000fc2:	f7ff fbab 	bl	800071c <LED_RedOFF>
		LED_GreenON();
 8000fc6:	f7ff fb7f 	bl	80006c8 <LED_GreenON>
}
 8000fca:	46c0      	nop			; (mov r8, r8)
 8000fcc:	46bd      	mov	sp, r7
 8000fce:	b002      	add	sp, #8
 8000fd0:	bd80      	pop	{r7, pc}
 8000fd2:	46c0      	nop			; (mov r8, r8)
 8000fd4:	200002ac 	.word	0x200002ac
 8000fd8:	200002f8 	.word	0x200002f8

08000fdc <SYSTEM_HandleOutputs>:

void SYSTEM_HandleOutputs (void)
{
 8000fdc:	b580      	push	{r7, lr}
 8000fde:	b082      	sub	sp, #8
 8000fe0:	af00      	add	r7, sp, #0
	// Initialize Loop Variables
	bool f = (fault.overTemperature || fault.inputVoltage || fault.signalLost);
 8000fe2:	4b23      	ldr	r3, [pc, #140]	; (8001070 <SYSTEM_HandleOutputs+0x94>)
 8000fe4:	789b      	ldrb	r3, [r3, #2]
 8000fe6:	2b00      	cmp	r3, #0
 8000fe8:	d107      	bne.n	8000ffa <SYSTEM_HandleOutputs+0x1e>
 8000fea:	4b21      	ldr	r3, [pc, #132]	; (8001070 <SYSTEM_HandleOutputs+0x94>)
 8000fec:	785b      	ldrb	r3, [r3, #1]
 8000fee:	2b00      	cmp	r3, #0
 8000ff0:	d103      	bne.n	8000ffa <SYSTEM_HandleOutputs+0x1e>
 8000ff2:	4b1f      	ldr	r3, [pc, #124]	; (8001070 <SYSTEM_HandleOutputs+0x94>)
 8000ff4:	781b      	ldrb	r3, [r3, #0]
 8000ff6:	2b00      	cmp	r3, #0
 8000ff8:	d001      	beq.n	8000ffe <SYSTEM_HandleOutputs+0x22>
 8000ffa:	2201      	movs	r2, #1
 8000ffc:	e000      	b.n	8001000 <SYSTEM_HandleOutputs+0x24>
 8000ffe:	2200      	movs	r2, #0
 8001000:	1dfb      	adds	r3, r7, #7
 8001002:	701a      	strb	r2, [r3, #0]
 8001004:	781a      	ldrb	r2, [r3, #0]
 8001006:	2101      	movs	r1, #1
 8001008:	400a      	ands	r2, r1
 800100a:	701a      	strb	r2, [r3, #0]
	static bool f_p = true; // Init servo on first loop

	// FAULT CONDITION - RISING EDGE
	if (f && !f_p)
 800100c:	1dfb      	adds	r3, r7, #7
 800100e:	781b      	ldrb	r3, [r3, #0]
 8001010:	2b00      	cmp	r3, #0
 8001012:	d00c      	beq.n	800102e <SYSTEM_HandleOutputs+0x52>
 8001014:	4b17      	ldr	r3, [pc, #92]	; (8001074 <SYSTEM_HandleOutputs+0x98>)
 8001016:	781b      	ldrb	r3, [r3, #0]
 8001018:	2201      	movs	r2, #1
 800101a:	4053      	eors	r3, r2
 800101c:	b2db      	uxtb	r3, r3
 800101e:	2b00      	cmp	r3, #0
 8001020:	d005      	beq.n	800102e <SYSTEM_HandleOutputs+0x52>
	{
		MOTOR_Update(MOTOR_OFF, MOTOR_OFF);
 8001022:	2100      	movs	r1, #0
 8001024:	2000      	movs	r0, #0
 8001026:	f7ff fc5f 	bl	80008e8 <MOTOR_Update>
		SERVO_Deinit();
 800102a:	f7ff fde1 	bl	8000bf0 <SERVO_Deinit>
	}

	// FAULT CONDITION - FALLING EDGE
	if (!f && f_p )
 800102e:	1dfb      	adds	r3, r7, #7
 8001030:	781b      	ldrb	r3, [r3, #0]
 8001032:	2201      	movs	r2, #1
 8001034:	4053      	eors	r3, r2
 8001036:	b2db      	uxtb	r3, r3
 8001038:	2b00      	cmp	r3, #0
 800103a:	d005      	beq.n	8001048 <SYSTEM_HandleOutputs+0x6c>
 800103c:	4b0d      	ldr	r3, [pc, #52]	; (8001074 <SYSTEM_HandleOutputs+0x98>)
 800103e:	781b      	ldrb	r3, [r3, #0]
 8001040:	2b00      	cmp	r3, #0
 8001042:	d001      	beq.n	8001048 <SYSTEM_HandleOutputs+0x6c>
	{
		SERVO_Init();
 8001044:	f7ff fd74 	bl	8000b30 <SERVO_Init>
	}

	// NO FAULT
	if (!f)
 8001048:	1dfb      	adds	r3, r7, #7
 800104a:	781b      	ldrb	r3, [r3, #0]
 800104c:	2201      	movs	r2, #1
 800104e:	4053      	eors	r3, r2
 8001050:	b2db      	uxtb	r3, r3
 8001052:	2b00      	cmp	r3, #0
 8001054:	d003      	beq.n	800105e <SYSTEM_HandleOutputs+0x82>
	{
		SYSTEM_UpdateServo();
 8001056:	f000 f80f 	bl	8001078 <SYSTEM_UpdateServo>
		SYSTEM_UpdateMotors();
 800105a:	f000 f84f 	bl	80010fc <SYSTEM_UpdateMotors>
	}

	//
	f_p = f;
 800105e:	4b05      	ldr	r3, [pc, #20]	; (8001074 <SYSTEM_HandleOutputs+0x98>)
 8001060:	1dfa      	adds	r2, r7, #7
 8001062:	7812      	ldrb	r2, [r2, #0]
 8001064:	701a      	strb	r2, [r3, #0]
}
 8001066:	46c0      	nop			; (mov r8, r8)
 8001068:	46bd      	mov	sp, r7
 800106a:	b002      	add	sp, #8
 800106c:	bd80      	pop	{r7, pc}
 800106e:	46c0      	nop			; (mov r8, r8)
 8001070:	200002ac 	.word	0x200002ac
 8001074:	20000001 	.word	0x20000001

08001078 <SYSTEM_UpdateServo>:

void SYSTEM_UpdateServo (void)
{
 8001078:	b590      	push	{r4, r7, lr}
 800107a:	b083      	sub	sp, #12
 800107c:	af00      	add	r7, sp, #0
	// Extract appropriate data for servo
	RADIO_Data* ptrDataRadio = RADIO_GetDataPtr();
 800107e:	f002 f81d 	bl	80030bc <RADIO_GetDataPtr>
 8001082:	0003      	movs	r3, r0
 8001084:	603b      	str	r3, [r7, #0]
	uint16_t servoA = ptrDataRadio->ch[config.chServoA];
 8001086:	4b1c      	ldr	r3, [pc, #112]	; (80010f8 <SYSTEM_UpdateServo+0x80>)
 8001088:	79db      	ldrb	r3, [r3, #7]
 800108a:	683a      	ldr	r2, [r7, #0]
 800108c:	005b      	lsls	r3, r3, #1
 800108e:	18d3      	adds	r3, r2, r3
 8001090:	3302      	adds	r3, #2
 8001092:	2200      	movs	r2, #0
 8001094:	5e9a      	ldrsh	r2, [r3, r2]
 8001096:	1dbb      	adds	r3, r7, #6
 8001098:	801a      	strh	r2, [r3, #0]
	uint16_t servoB = ptrDataRadio->ch[config.chServoB];
 800109a:	4b17      	ldr	r3, [pc, #92]	; (80010f8 <SYSTEM_UpdateServo+0x80>)
 800109c:	7a1b      	ldrb	r3, [r3, #8]
 800109e:	683a      	ldr	r2, [r7, #0]
 80010a0:	005b      	lsls	r3, r3, #1
 80010a2:	18d3      	adds	r3, r2, r3
 80010a4:	3302      	adds	r3, #2
 80010a6:	2200      	movs	r2, #0
 80010a8:	5e9a      	ldrsh	r2, [r3, r2]
 80010aa:	1d3b      	adds	r3, r7, #4
 80010ac:	801a      	strh	r2, [r3, #0]

	// Check for channel reverse
	if (config.chServoArev) { servoA = SYSTEM_ReverseRadio(servoA); }
 80010ae:	4b12      	ldr	r3, [pc, #72]	; (80010f8 <SYSTEM_UpdateServo+0x80>)
 80010b0:	7adb      	ldrb	r3, [r3, #11]
 80010b2:	2b00      	cmp	r3, #0
 80010b4:	d007      	beq.n	80010c6 <SYSTEM_UpdateServo+0x4e>
 80010b6:	1dbc      	adds	r4, r7, #6
 80010b8:	1dbb      	adds	r3, r7, #6
 80010ba:	881b      	ldrh	r3, [r3, #0]
 80010bc:	0018      	movs	r0, r3
 80010be:	f000 f921 	bl	8001304 <SYSTEM_ReverseRadio>
 80010c2:	0003      	movs	r3, r0
 80010c4:	8023      	strh	r3, [r4, #0]
	if (config.chServoBrev) { servoB = SYSTEM_ReverseRadio(servoB); }
 80010c6:	4b0c      	ldr	r3, [pc, #48]	; (80010f8 <SYSTEM_UpdateServo+0x80>)
 80010c8:	7b1b      	ldrb	r3, [r3, #12]
 80010ca:	2b00      	cmp	r3, #0
 80010cc:	d007      	beq.n	80010de <SYSTEM_UpdateServo+0x66>
 80010ce:	1d3c      	adds	r4, r7, #4
 80010d0:	1d3b      	adds	r3, r7, #4
 80010d2:	881b      	ldrh	r3, [r3, #0]
 80010d4:	0018      	movs	r0, r3
 80010d6:	f000 f915 	bl	8001304 <SYSTEM_ReverseRadio>
 80010da:	0003      	movs	r3, r0
 80010dc:	8023      	strh	r3, [r4, #0]

	// Update Servos
	SERVO_Update(servoA, servoB);
 80010de:	1d3b      	adds	r3, r7, #4
 80010e0:	881a      	ldrh	r2, [r3, #0]
 80010e2:	1dbb      	adds	r3, r7, #6
 80010e4:	881b      	ldrh	r3, [r3, #0]
 80010e6:	0011      	movs	r1, r2
 80010e8:	0018      	movs	r0, r3
 80010ea:	f7ff fdaf 	bl	8000c4c <SERVO_Update>
}
 80010ee:	46c0      	nop			; (mov r8, r8)
 80010f0:	46bd      	mov	sp, r7
 80010f2:	b003      	add	sp, #12
 80010f4:	bd90      	pop	{r4, r7, pc}
 80010f6:	46c0      	nop			; (mov r8, r8)
 80010f8:	200002b4 	.word	0x200002b4

080010fc <SYSTEM_UpdateMotors>:

void SYSTEM_UpdateMotors (void)
{
 80010fc:	b590      	push	{r4, r7, lr}
 80010fe:	b085      	sub	sp, #20
 8001100:	af00      	add	r7, sp, #0
	// Extract appropriate data for motors
	RADIO_Data* ptrDataRadio = RADIO_GetDataPtr();
 8001102:	f001 ffdb 	bl	80030bc <RADIO_GetDataPtr>
 8001106:	0003      	movs	r3, r0
 8001108:	60bb      	str	r3, [r7, #8]
	uint16_t driveA = ptrDataRadio->ch[config.chDriveA];
 800110a:	4b37      	ldr	r3, [pc, #220]	; (80011e8 <SYSTEM_UpdateMotors+0xec>)
 800110c:	795b      	ldrb	r3, [r3, #5]
 800110e:	68ba      	ldr	r2, [r7, #8]
 8001110:	005b      	lsls	r3, r3, #1
 8001112:	18d3      	adds	r3, r2, r3
 8001114:	3302      	adds	r3, #2
 8001116:	2200      	movs	r2, #0
 8001118:	5e9a      	ldrsh	r2, [r3, r2]
 800111a:	210e      	movs	r1, #14
 800111c:	187b      	adds	r3, r7, r1
 800111e:	801a      	strh	r2, [r3, #0]
	uint16_t driveB = ptrDataRadio->ch[config.chDriveB];
 8001120:	4b31      	ldr	r3, [pc, #196]	; (80011e8 <SYSTEM_UpdateMotors+0xec>)
 8001122:	799b      	ldrb	r3, [r3, #6]
 8001124:	68ba      	ldr	r2, [r7, #8]
 8001126:	005b      	lsls	r3, r3, #1
 8001128:	18d3      	adds	r3, r2, r3
 800112a:	3302      	adds	r3, #2
 800112c:	2200      	movs	r2, #0
 800112e:	5e9a      	ldrsh	r2, [r3, r2]
 8001130:	200c      	movs	r0, #12
 8001132:	183b      	adds	r3, r7, r0
 8001134:	801a      	strh	r2, [r3, #0]

	if (driveA && driveB)
 8001136:	187b      	adds	r3, r7, r1
 8001138:	881b      	ldrh	r3, [r3, #0]
 800113a:	2b00      	cmp	r3, #0
 800113c:	d04b      	beq.n	80011d6 <SYSTEM_UpdateMotors+0xda>
 800113e:	183b      	adds	r3, r7, r0
 8001140:	881b      	ldrh	r3, [r3, #0]
 8001142:	2b00      	cmp	r3, #0
 8001144:	d047      	beq.n	80011d6 <SYSTEM_UpdateMotors+0xda>
	{
		// Check for channel reverse
		if (config.chDriveArev) { driveA = SYSTEM_ReverseRadio(driveA); }
 8001146:	4b28      	ldr	r3, [pc, #160]	; (80011e8 <SYSTEM_UpdateMotors+0xec>)
 8001148:	7a5b      	ldrb	r3, [r3, #9]
 800114a:	2b00      	cmp	r3, #0
 800114c:	d007      	beq.n	800115e <SYSTEM_UpdateMotors+0x62>
 800114e:	187c      	adds	r4, r7, r1
 8001150:	187b      	adds	r3, r7, r1
 8001152:	881b      	ldrh	r3, [r3, #0]
 8001154:	0018      	movs	r0, r3
 8001156:	f000 f8d5 	bl	8001304 <SYSTEM_ReverseRadio>
 800115a:	0003      	movs	r3, r0
 800115c:	8023      	strh	r3, [r4, #0]
		if (config.chDriveBrev) { driveB = SYSTEM_ReverseRadio(driveB); }
 800115e:	4b22      	ldr	r3, [pc, #136]	; (80011e8 <SYSTEM_UpdateMotors+0xec>)
 8001160:	7a9b      	ldrb	r3, [r3, #10]
 8001162:	2b00      	cmp	r3, #0
 8001164:	d008      	beq.n	8001178 <SYSTEM_UpdateMotors+0x7c>
 8001166:	230c      	movs	r3, #12
 8001168:	18fc      	adds	r4, r7, r3
 800116a:	18fb      	adds	r3, r7, r3
 800116c:	881b      	ldrh	r3, [r3, #0]
 800116e:	0018      	movs	r0, r3
 8001170:	f000 f8c8 	bl	8001304 <SYSTEM_ReverseRadio>
 8001174:	0003      	movs	r3, r0
 8001176:	8023      	strh	r3, [r4, #0]

		// Mix channels for Arcade drive mode
		if (config.mode == ARCADE)
 8001178:	4b1b      	ldr	r3, [pc, #108]	; (80011e8 <SYSTEM_UpdateMotors+0xec>)
 800117a:	791b      	ldrb	r3, [r3, #4]
 800117c:	2b01      	cmp	r3, #1
 800117e:	d117      	bne.n	80011b0 <SYSTEM_UpdateMotors+0xb4>
		{
			int32_t dA = driveA - (RADIO_CENTER - driveB);
 8001180:	200e      	movs	r0, #14
 8001182:	183b      	adds	r3, r7, r0
 8001184:	881a      	ldrh	r2, [r3, #0]
 8001186:	240c      	movs	r4, #12
 8001188:	193b      	adds	r3, r7, r4
 800118a:	881b      	ldrh	r3, [r3, #0]
 800118c:	4917      	ldr	r1, [pc, #92]	; (80011ec <SYSTEM_UpdateMotors+0xf0>)
 800118e:	1acb      	subs	r3, r1, r3
 8001190:	1ad3      	subs	r3, r2, r3
 8001192:	607b      	str	r3, [r7, #4]
			int32_t dB = driveA + (RADIO_CENTER - driveB);
 8001194:	183b      	adds	r3, r7, r0
 8001196:	881a      	ldrh	r2, [r3, #0]
 8001198:	193b      	adds	r3, r7, r4
 800119a:	881b      	ldrh	r3, [r3, #0]
 800119c:	4913      	ldr	r1, [pc, #76]	; (80011ec <SYSTEM_UpdateMotors+0xf0>)
 800119e:	1acb      	subs	r3, r1, r3
 80011a0:	18d3      	adds	r3, r2, r3
 80011a2:	603b      	str	r3, [r7, #0]
			driveA = (uint16_t)dA;
 80011a4:	183b      	adds	r3, r7, r0
 80011a6:	687a      	ldr	r2, [r7, #4]
 80011a8:	801a      	strh	r2, [r3, #0]
			driveB = (uint16_t)dB;
 80011aa:	193b      	adds	r3, r7, r4
 80011ac:	683a      	ldr	r2, [r7, #0]
 80011ae:	801a      	strh	r2, [r3, #0]
		}
		MOTOR_Update( SYSTEM_RadioToMotor(driveA), SYSTEM_RadioToMotor(driveB) );
 80011b0:	230e      	movs	r3, #14
 80011b2:	18fb      	adds	r3, r7, r3
 80011b4:	881b      	ldrh	r3, [r3, #0]
 80011b6:	0018      	movs	r0, r3
 80011b8:	f000 f876 	bl	80012a8 <SYSTEM_RadioToMotor>
 80011bc:	0004      	movs	r4, r0
 80011be:	230c      	movs	r3, #12
 80011c0:	18fb      	adds	r3, r7, r3
 80011c2:	881b      	ldrh	r3, [r3, #0]
 80011c4:	0018      	movs	r0, r3
 80011c6:	f000 f86f 	bl	80012a8 <SYSTEM_RadioToMotor>
 80011ca:	0003      	movs	r3, r0
 80011cc:	0019      	movs	r1, r3
 80011ce:	0020      	movs	r0, r4
 80011d0:	f7ff fb8a 	bl	80008e8 <MOTOR_Update>
 80011d4:	e004      	b.n	80011e0 <SYSTEM_UpdateMotors+0xe4>
	}
	else
	{
		MOTOR_Update(MOTOR_OFF, MOTOR_OFF);
 80011d6:	2100      	movs	r1, #0
 80011d8:	2000      	movs	r0, #0
 80011da:	f7ff fb85 	bl	80008e8 <MOTOR_Update>
	}
}
 80011de:	46c0      	nop			; (mov r8, r8)
 80011e0:	46c0      	nop			; (mov r8, r8)
 80011e2:	46bd      	mov	sp, r7
 80011e4:	b005      	add	sp, #20
 80011e6:	bd90      	pop	{r4, r7, pc}
 80011e8:	200002b4 	.word	0x200002b4
 80011ec:	000005dc 	.word	0x000005dc

080011f0 <SYSTEM_VerifyConfig>:

void SYSTEM_VerifyConfig (void)
{
 80011f0:	b580      	push	{r7, lr}
 80011f2:	af00      	add	r7, sp, #0
	if ((config.hashA != CONFIG_HASH_A) || (config.hashB != CONFIG_HASH_B))
 80011f4:	4b1e      	ldr	r3, [pc, #120]	; (8001270 <SYSTEM_VerifyConfig+0x80>)
 80011f6:	681b      	ldr	r3, [r3, #0]
 80011f8:	4a1e      	ldr	r2, [pc, #120]	; (8001274 <SYSTEM_VerifyConfig+0x84>)
 80011fa:	4293      	cmp	r3, r2
 80011fc:	d104      	bne.n	8001208 <SYSTEM_VerifyConfig+0x18>
 80011fe:	4b1c      	ldr	r3, [pc, #112]	; (8001270 <SYSTEM_VerifyConfig+0x80>)
 8001200:	699b      	ldr	r3, [r3, #24]
 8001202:	4a1d      	ldr	r2, [pc, #116]	; (8001278 <SYSTEM_VerifyConfig+0x88>)
 8001204:	4293      	cmp	r3, r2
 8001206:	d02f      	beq.n	8001268 <SYSTEM_VerifyConfig+0x78>
	{
		config.hashA = 				CONFIG_HASH_A;
 8001208:	4b19      	ldr	r3, [pc, #100]	; (8001270 <SYSTEM_VerifyConfig+0x80>)
 800120a:	4a1a      	ldr	r2, [pc, #104]	; (8001274 <SYSTEM_VerifyConfig+0x84>)
 800120c:	601a      	str	r2, [r3, #0]
		config.mode = 				TANK;
 800120e:	4b18      	ldr	r3, [pc, #96]	; (8001270 <SYSTEM_VerifyConfig+0x80>)
 8001210:	2200      	movs	r2, #0
 8001212:	711a      	strb	r2, [r3, #4]
		config.chDriveA = 			IP1;
 8001214:	4b16      	ldr	r3, [pc, #88]	; (8001270 <SYSTEM_VerifyConfig+0x80>)
 8001216:	2200      	movs	r2, #0
 8001218:	715a      	strb	r2, [r3, #5]
		config.chDriveArev = 		false;
 800121a:	4b15      	ldr	r3, [pc, #84]	; (8001270 <SYSTEM_VerifyConfig+0x80>)
 800121c:	2200      	movs	r2, #0
 800121e:	725a      	strb	r2, [r3, #9]
		config.chDriveB = 			IP2;
 8001220:	4b13      	ldr	r3, [pc, #76]	; (8001270 <SYSTEM_VerifyConfig+0x80>)
 8001222:	2201      	movs	r2, #1
 8001224:	719a      	strb	r2, [r3, #6]
		config.chDriveBrev = 		false;
 8001226:	4b12      	ldr	r3, [pc, #72]	; (8001270 <SYSTEM_VerifyConfig+0x80>)
 8001228:	2200      	movs	r2, #0
 800122a:	729a      	strb	r2, [r3, #10]
		config.chServoA = 			IP3;
 800122c:	4b10      	ldr	r3, [pc, #64]	; (8001270 <SYSTEM_VerifyConfig+0x80>)
 800122e:	2202      	movs	r2, #2
 8001230:	71da      	strb	r2, [r3, #7]
		config.chServoArev =		false;
 8001232:	4b0f      	ldr	r3, [pc, #60]	; (8001270 <SYSTEM_VerifyConfig+0x80>)
 8001234:	2200      	movs	r2, #0
 8001236:	72da      	strb	r2, [r3, #11]
		config.chServoB = 			IP4;
 8001238:	4b0d      	ldr	r3, [pc, #52]	; (8001270 <SYSTEM_VerifyConfig+0x80>)
 800123a:	2203      	movs	r2, #3
 800123c:	721a      	strb	r2, [r3, #8]
		config.chServoBrev = 		false;
 800123e:	4b0c      	ldr	r3, [pc, #48]	; (8001270 <SYSTEM_VerifyConfig+0x80>)
 8001240:	2200      	movs	r2, #0
 8001242:	731a      	strb	r2, [r3, #12]
		config.radio.Baud_SBUS = 	SBUS_BAUD;
 8001244:	4b0a      	ldr	r3, [pc, #40]	; (8001270 <SYSTEM_VerifyConfig+0x80>)
 8001246:	4a0d      	ldr	r2, [pc, #52]	; (800127c <SYSTEM_VerifyConfig+0x8c>)
 8001248:	611a      	str	r2, [r3, #16]
		config.radio.Protocol =		PPM;
 800124a:	4b09      	ldr	r3, [pc, #36]	; (8001270 <SYSTEM_VerifyConfig+0x80>)
 800124c:	2200      	movs	r2, #0
 800124e:	751a      	strb	r2, [r3, #20]
		config.hashB = 				CONFIG_HASH_B;
 8001250:	4b07      	ldr	r3, [pc, #28]	; (8001270 <SYSTEM_VerifyConfig+0x80>)
 8001252:	4a09      	ldr	r2, [pc, #36]	; (8001278 <SYSTEM_VerifyConfig+0x88>)
 8001254:	619a      	str	r2, [r3, #24]

		EEPROM_Write(EEPROM_OFFSET, &config, sizeof(config));
 8001256:	4b06      	ldr	r3, [pc, #24]	; (8001270 <SYSTEM_VerifyConfig+0x80>)
 8001258:	221c      	movs	r2, #28
 800125a:	0019      	movs	r1, r3
 800125c:	2000      	movs	r0, #0
 800125e:	f002 fcbb 	bl	8003bd8 <EEPROM_Write>
		LED_nPulse(5);
 8001262:	2005      	movs	r0, #5
 8001264:	f7ff fa93 	bl	800078e <LED_nPulse>
	}
}
 8001268:	46c0      	nop			; (mov r8, r8)
 800126a:	46bd      	mov	sp, r7
 800126c:	bd80      	pop	{r7, pc}
 800126e:	46c0      	nop			; (mov r8, r8)
 8001270:	200002b4 	.word	0x200002b4
 8001274:	7be13336 	.word	0x7be13336
 8001278:	8761d50e 	.word	0x8761d50e
 800127c:	000186a0 	.word	0x000186a0

08001280 <SYSTEM_GetBatteryVoltage>:

uint32_t SYSTEM_GetBatteryVoltage (void)
{
 8001280:	b580      	push	{r7, lr}
 8001282:	b082      	sub	sp, #8
 8001284:	af00      	add	r7, sp, #0
	uint32_t ain = ADC_Read(BATTERY_CHANNEL);
 8001286:	2080      	movs	r0, #128	; 0x80
 8001288:	f002 fa6a 	bl	8003760 <ADC_Read>
 800128c:	0003      	movs	r3, r0
 800128e:	607b      	str	r3, [r7, #4]
	return AIN_AinToDivider(ain, BATTERY_DET_RLOW, BATTERY_DET_RHIGH);
 8001290:	687b      	ldr	r3, [r7, #4]
 8001292:	2264      	movs	r2, #100	; 0x64
 8001294:	2112      	movs	r1, #18
 8001296:	0018      	movs	r0, r3
 8001298:	f002 fa88 	bl	80037ac <AIN_AinToDivider>
 800129c:	0003      	movs	r3, r0
}
 800129e:	0018      	movs	r0, r3
 80012a0:	46bd      	mov	sp, r7
 80012a2:	b002      	add	sp, #8
 80012a4:	bd80      	pop	{r7, pc}
	...

080012a8 <SYSTEM_RadioToMotor>:

int32_t SYSTEM_RadioToMotor (uint16_t radio)
{
 80012a8:	b580      	push	{r7, lr}
 80012aa:	b082      	sub	sp, #8
 80012ac:	af00      	add	r7, sp, #0
 80012ae:	0002      	movs	r2, r0
 80012b0:	1dbb      	adds	r3, r7, #6
 80012b2:	801a      	strh	r2, [r3, #0]
	if (radio > RADIO_MAX) {
 80012b4:	1dbb      	adds	r3, r7, #6
 80012b6:	881a      	ldrh	r2, [r3, #0]
 80012b8:	23fa      	movs	r3, #250	; 0xfa
 80012ba:	00db      	lsls	r3, r3, #3
 80012bc:	429a      	cmp	r2, r3
 80012be:	d904      	bls.n	80012ca <SYSTEM_RadioToMotor+0x22>
		radio = RADIO_MAX;
 80012c0:	1dbb      	adds	r3, r7, #6
 80012c2:	22fa      	movs	r2, #250	; 0xfa
 80012c4:	00d2      	lsls	r2, r2, #3
 80012c6:	801a      	strh	r2, [r3, #0]
 80012c8:	e009      	b.n	80012de <SYSTEM_RadioToMotor+0x36>
	} else if (radio < RADIO_MIN) {
 80012ca:	1dbb      	adds	r3, r7, #6
 80012cc:	881a      	ldrh	r2, [r3, #0]
 80012ce:	23fa      	movs	r3, #250	; 0xfa
 80012d0:	009b      	lsls	r3, r3, #2
 80012d2:	429a      	cmp	r2, r3
 80012d4:	d203      	bcs.n	80012de <SYSTEM_RadioToMotor+0x36>
		radio = RADIO_MIN;
 80012d6:	1dbb      	adds	r3, r7, #6
 80012d8:	22fa      	movs	r2, #250	; 0xfa
 80012da:	0092      	lsls	r2, r2, #2
 80012dc:	801a      	strh	r2, [r3, #0]
	}

	return (((int32_t)radio - RADIO_CENTER) * MOTOR_MAX) / RADIO_HALFSCALE;
 80012de:	1dbb      	adds	r3, r7, #6
 80012e0:	881b      	ldrh	r3, [r3, #0]
 80012e2:	4a07      	ldr	r2, [pc, #28]	; (8001300 <SYSTEM_RadioToMotor+0x58>)
 80012e4:	4694      	mov	ip, r2
 80012e6:	4463      	add	r3, ip
 80012e8:	021b      	lsls	r3, r3, #8
 80012ea:	22fa      	movs	r2, #250	; 0xfa
 80012ec:	0051      	lsls	r1, r2, #1
 80012ee:	0018      	movs	r0, r3
 80012f0:	f7fe ff94 	bl	800021c <__divsi3>
 80012f4:	0003      	movs	r3, r0
}
 80012f6:	0018      	movs	r0, r3
 80012f8:	46bd      	mov	sp, r7
 80012fa:	b002      	add	sp, #8
 80012fc:	bd80      	pop	{r7, pc}
 80012fe:	46c0      	nop			; (mov r8, r8)
 8001300:	fffffa24 	.word	0xfffffa24

08001304 <SYSTEM_ReverseRadio>:

uint16_t SYSTEM_ReverseRadio (uint16_t radio)
{
 8001304:	b580      	push	{r7, lr}
 8001306:	b082      	sub	sp, #8
 8001308:	af00      	add	r7, sp, #0
 800130a:	0002      	movs	r2, r0
 800130c:	1dbb      	adds	r3, r7, #6
 800130e:	801a      	strh	r2, [r3, #0]
	return ((2 * RADIO_CENTER) - radio);
 8001310:	1dbb      	adds	r3, r7, #6
 8001312:	881b      	ldrh	r3, [r3, #0]
 8001314:	4a03      	ldr	r2, [pc, #12]	; (8001324 <SYSTEM_ReverseRadio+0x20>)
 8001316:	1ad3      	subs	r3, r2, r3
 8001318:	b29b      	uxth	r3, r3
}
 800131a:	0018      	movs	r0, r3
 800131c:	46bd      	mov	sp, r7
 800131e:	b002      	add	sp, #8
 8001320:	bd80      	pop	{r7, pc}
 8001322:	46c0      	nop			; (mov r8, r8)
 8001324:	00000bb8 	.word	0x00000bb8

08001328 <SYSTEM_UpdateCalibration>:


//////////////////////////////////////////////////////////////////////////////////////////////////////////////

void SYSTEM_UpdateCalibration (void)
{
 8001328:	b580      	push	{r7, lr}
 800132a:	b088      	sub	sp, #32
 800132c:	af00      	add	r7, sp, #0
	// DISABLE ALL OUTPUTS
	MOTOR_Update(MOTOR_OFF, MOTOR_OFF);
 800132e:	2100      	movs	r1, #0
 8001330:	2000      	movs	r0, #0
 8001332:	f7ff fad9 	bl	80008e8 <MOTOR_Update>
	SERVO_Deinit();
 8001336:	f7ff fc5b 	bl	8000bf0 <SERVO_Deinit>

	// CREATE LOCAL VARIABLE TO ASSIST IN CALIBRATION
	SYSTEM_Config c;

	//
	RADIO_Detect(&c.radio);
 800133a:	1d3b      	adds	r3, r7, #4
 800133c:	3310      	adds	r3, #16
 800133e:	0018      	movs	r0, r3
 8001340:	f001 fdbc 	bl	8002ebc <RADIO_Detect>
	RADIO_Init(&c.radio);
 8001344:	1d3b      	adds	r3, r7, #4
 8001346:	3310      	adds	r3, #16
 8001348:	0018      	movs	r0, r3
 800134a:	f001 fe03 	bl	8002f54 <RADIO_Init>

	//
	SYSTEM_CalibrateSampleChannelZero();
 800134e:	f000 f8a5 	bl	800149c <SYSTEM_CalibrateSampleChannelZero>

	//
	LED_GreenON();
 8001352:	f7ff f9b9 	bl	80006c8 <LED_GreenON>
	LED_RedON();
 8001356:	f7ff f9c5 	bl	80006e4 <LED_RedON>
	SYSTEM_WaitForInput();
 800135a:	f000 fc63 	bl	8001c24 <SYSTEM_WaitForInput>


	// TURN ON LEDS TO TELL OPERATOR CALIBRATION IS STARTING
	LED_nPulse(2);
 800135e:	2002      	movs	r0, #2
 8001360:	f7ff fa15 	bl	800078e <LED_nPulse>
	LED_GreenON();
 8001364:	f7ff f9b0 	bl	80006c8 <LED_GreenON>
	LED_RedON();
 8001368:	f7ff f9bc 	bl	80006e4 <LED_RedON>
	SYSTEM_CalibrateMotorSameDirection(&c);
 800136c:	1d3b      	adds	r3, r7, #4
 800136e:	0018      	movs	r0, r3
 8001370:	f000 f8d0 	bl	8001514 <SYSTEM_CalibrateMotorSameDirection>
	LED_RedOFF();
 8001374:	f7ff f9d2 	bl	800071c <LED_RedOFF>
	LED_GreenOFF();
 8001378:	f7ff f9c2 	bl	8000700 <LED_GreenOFF>

	//
	SYSTEM_WaitForResetInputs();
 800137c:	f000 fc02 	bl	8001b84 <SYSTEM_WaitForResetInputs>
	CORE_Delay(CALIBRATION_TEST_DELAY);
 8001380:	23fa      	movs	r3, #250	; 0xfa
 8001382:	00db      	lsls	r3, r3, #3
 8001384:	0018      	movs	r0, r3
 8001386:	f002 fb8b 	bl	8003aa0 <CORE_Delay>

	//
	LED_GreenON();
 800138a:	f7ff f99d 	bl	80006c8 <LED_GreenON>
	LED_RedON();
 800138e:	f7ff f9a9 	bl	80006e4 <LED_RedON>
	SYSTEM_CalibrateMotorOppositeDirection(&c);
 8001392:	1d3b      	adds	r3, r7, #4
 8001394:	0018      	movs	r0, r3
 8001396:	f000 f9a3 	bl	80016e0 <SYSTEM_CalibrateMotorOppositeDirection>
	LED_RedOFF();
 800139a:	f7ff f9bf 	bl	800071c <LED_RedOFF>
	LED_GreenOFF();
 800139e:	f7ff f9af 	bl	8000700 <LED_GreenOFF>

	//
	SYSTEM_WaitForResetInputs();
 80013a2:	f000 fbef 	bl	8001b84 <SYSTEM_WaitForResetInputs>
	CORE_Delay(CALIBRATION_TEST_DELAY);
 80013a6:	23fa      	movs	r3, #250	; 0xfa
 80013a8:	00db      	lsls	r3, r3, #3
 80013aa:	0018      	movs	r0, r3
 80013ac:	f002 fb78 	bl	8003aa0 <CORE_Delay>

	// TURN ON LEDS TO TELL OPERATOR CALIBRATION IS STARTING
	LED_GreenON();
 80013b0:	f7ff f98a 	bl	80006c8 <LED_GreenON>
	LED_RedON();
 80013b4:	f7ff f996 	bl	80006e4 <LED_RedON>
	SYSTEM_CalibrateServoA(&c);
 80013b8:	1d3b      	adds	r3, r7, #4
 80013ba:	0018      	movs	r0, r3
 80013bc:	f000 faea 	bl	8001994 <SYSTEM_CalibrateServoA>
	LED_RedOFF();
 80013c0:	f7ff f9ac 	bl	800071c <LED_RedOFF>
	LED_GreenOFF();
 80013c4:	f7ff f99c 	bl	8000700 <LED_GreenOFF>

	// WAIT FOR INPUTS TO FALL BACK TO ZERO REFERENCE
	SYSTEM_WaitForResetInputs();
 80013c8:	f000 fbdc 	bl	8001b84 <SYSTEM_WaitForResetInputs>
	CORE_Delay(CALIBRATION_TEST_DELAY);
 80013cc:	23fa      	movs	r3, #250	; 0xfa
 80013ce:	00db      	lsls	r3, r3, #3
 80013d0:	0018      	movs	r0, r3
 80013d2:	f002 fb65 	bl	8003aa0 <CORE_Delay>

	// TURN ON LEDS TO TELL OPERATOR CALIBRATION IS STARTING
	LED_GreenON();
 80013d6:	f7ff f977 	bl	80006c8 <LED_GreenON>
	LED_RedON();
 80013da:	f7ff f983 	bl	80006e4 <LED_RedON>
	SYSTEM_CalibrateServoB(&c);
 80013de:	1d3b      	adds	r3, r7, #4
 80013e0:	0018      	movs	r0, r3
 80013e2:	f000 fb53 	bl	8001a8c <SYSTEM_CalibrateServoB>
	LED_RedOFF();
 80013e6:	f7ff f999 	bl	800071c <LED_RedOFF>
	LED_GreenOFF();
 80013ea:	f7ff f989 	bl	8000700 <LED_GreenOFF>

	// WAIT FOR INPUTS TO FALL BACK TO ZERO REFERENCE
	SYSTEM_WaitForResetInputs();
 80013ee:	f000 fbc9 	bl	8001b84 <SYSTEM_WaitForResetInputs>
	CORE_Delay(CALIBRATION_TEST_DELAY);
 80013f2:	23fa      	movs	r3, #250	; 0xfa
 80013f4:	00db      	lsls	r3, r3, #3
 80013f6:	0018      	movs	r0, r3
 80013f8:	f002 fb52 	bl	8003aa0 <CORE_Delay>

	// WRITE NEW CONFIG TO EEPROM
	config.chDriveA 		= c.chDriveA;
 80013fc:	1d3b      	adds	r3, r7, #4
 80013fe:	795a      	ldrb	r2, [r3, #5]
 8001400:	4b23      	ldr	r3, [pc, #140]	; (8001490 <SYSTEM_UpdateCalibration+0x168>)
 8001402:	715a      	strb	r2, [r3, #5]
	config.chDriveArev 		= c.chDriveArev;
 8001404:	1d3b      	adds	r3, r7, #4
 8001406:	7a5a      	ldrb	r2, [r3, #9]
 8001408:	4b21      	ldr	r3, [pc, #132]	; (8001490 <SYSTEM_UpdateCalibration+0x168>)
 800140a:	725a      	strb	r2, [r3, #9]
	config.chDriveB 		= c.chDriveB;
 800140c:	1d3b      	adds	r3, r7, #4
 800140e:	799a      	ldrb	r2, [r3, #6]
 8001410:	4b1f      	ldr	r3, [pc, #124]	; (8001490 <SYSTEM_UpdateCalibration+0x168>)
 8001412:	719a      	strb	r2, [r3, #6]
	config.chDriveBrev 		= c.chDriveBrev;
 8001414:	1d3b      	adds	r3, r7, #4
 8001416:	7a9a      	ldrb	r2, [r3, #10]
 8001418:	4b1d      	ldr	r3, [pc, #116]	; (8001490 <SYSTEM_UpdateCalibration+0x168>)
 800141a:	729a      	strb	r2, [r3, #10]
	config.chServoA 		= c.chServoA;
 800141c:	1d3b      	adds	r3, r7, #4
 800141e:	79da      	ldrb	r2, [r3, #7]
 8001420:	4b1b      	ldr	r3, [pc, #108]	; (8001490 <SYSTEM_UpdateCalibration+0x168>)
 8001422:	71da      	strb	r2, [r3, #7]
	config.chServoArev 		= c.chServoArev;
 8001424:	1d3b      	adds	r3, r7, #4
 8001426:	7ada      	ldrb	r2, [r3, #11]
 8001428:	4b19      	ldr	r3, [pc, #100]	; (8001490 <SYSTEM_UpdateCalibration+0x168>)
 800142a:	72da      	strb	r2, [r3, #11]
	config.chServoB 		= c.chServoB;
 800142c:	1d3b      	adds	r3, r7, #4
 800142e:	7a1a      	ldrb	r2, [r3, #8]
 8001430:	4b17      	ldr	r3, [pc, #92]	; (8001490 <SYSTEM_UpdateCalibration+0x168>)
 8001432:	721a      	strb	r2, [r3, #8]
	config.chServoBrev 		= c.chServoBrev;
 8001434:	1d3b      	adds	r3, r7, #4
 8001436:	7b1a      	ldrb	r2, [r3, #12]
 8001438:	4b15      	ldr	r3, [pc, #84]	; (8001490 <SYSTEM_UpdateCalibration+0x168>)
 800143a:	731a      	strb	r2, [r3, #12]
	config.mode 			= c.mode;
 800143c:	1d3b      	adds	r3, r7, #4
 800143e:	791a      	ldrb	r2, [r3, #4]
 8001440:	4b13      	ldr	r3, [pc, #76]	; (8001490 <SYSTEM_UpdateCalibration+0x168>)
 8001442:	711a      	strb	r2, [r3, #4]
	config.radio.Protocol 	= c.radio.Protocol;
 8001444:	1d3b      	adds	r3, r7, #4
 8001446:	7d1a      	ldrb	r2, [r3, #20]
 8001448:	4b11      	ldr	r3, [pc, #68]	; (8001490 <SYSTEM_UpdateCalibration+0x168>)
 800144a:	751a      	strb	r2, [r3, #20]
	config.radio.Baud_SBUS	= c.radio.Baud_SBUS;
 800144c:	1d3b      	adds	r3, r7, #4
 800144e:	691a      	ldr	r2, [r3, #16]
 8001450:	4b0f      	ldr	r3, [pc, #60]	; (8001490 <SYSTEM_UpdateCalibration+0x168>)
 8001452:	611a      	str	r2, [r3, #16]
	config.hashA 			= CONFIG_HASH_A;
 8001454:	4b0e      	ldr	r3, [pc, #56]	; (8001490 <SYSTEM_UpdateCalibration+0x168>)
 8001456:	4a0f      	ldr	r2, [pc, #60]	; (8001494 <SYSTEM_UpdateCalibration+0x16c>)
 8001458:	601a      	str	r2, [r3, #0]
	config.hashB 			= CONFIG_HASH_B;
 800145a:	4b0d      	ldr	r3, [pc, #52]	; (8001490 <SYSTEM_UpdateCalibration+0x168>)
 800145c:	4a0e      	ldr	r2, [pc, #56]	; (8001498 <SYSTEM_UpdateCalibration+0x170>)
 800145e:	619a      	str	r2, [r3, #24]
	EEPROM_Write(EEPROM_OFFSET, &config, sizeof(config));
 8001460:	4b0b      	ldr	r3, [pc, #44]	; (8001490 <SYSTEM_UpdateCalibration+0x168>)
 8001462:	221c      	movs	r2, #28
 8001464:	0019      	movs	r1, r3
 8001466:	2000      	movs	r0, #0
 8001468:	f002 fbb6 	bl	8003bd8 <EEPROM_Write>

	// PULSE LED TO LET USER KNOW SUCCESSFUL
	LED_nPulse (5);
 800146c:	2005      	movs	r0, #5
 800146e:	f7ff f98e 	bl	800078e <LED_nPulse>
	LED_RedOFF();
 8001472:	f7ff f953 	bl	800071c <LED_RedOFF>
	LED_GreenOFF();
 8001476:	f7ff f943 	bl	8000700 <LED_GreenOFF>

	// Reinitialize Outputs
	MOTOR_Update(MOTOR_OFF, MOTOR_OFF);
 800147a:	2100      	movs	r1, #0
 800147c:	2000      	movs	r0, #0
 800147e:	f7ff fa33 	bl	80008e8 <MOTOR_Update>
	SERVO_Init();
 8001482:	f7ff fb55 	bl	8000b30 <SERVO_Init>
}
 8001486:	46c0      	nop			; (mov r8, r8)
 8001488:	46bd      	mov	sp, r7
 800148a:	b008      	add	sp, #32
 800148c:	bd80      	pop	{r7, pc}
 800148e:	46c0      	nop			; (mov r8, r8)
 8001490:	200002b4 	.word	0x200002b4
 8001494:	7be13336 	.word	0x7be13336
 8001498:	8761d50e 	.word	0x8761d50e

0800149c <SYSTEM_CalibrateSampleChannelZero>:

void SYSTEM_CalibrateSampleChannelZero (void)
{
 800149c:	b580      	push	{r7, lr}
 800149e:	b084      	sub	sp, #16
 80014a0:	af00      	add	r7, sp, #0
	// Initialize Function Variables
	RADIO_Data * ptrDataRadio = RADIO_GetDataPtr();
 80014a2:	f001 fe0b 	bl	80030bc <RADIO_GetDataPtr>
 80014a6:	0003      	movs	r3, r0
 80014a8:	60bb      	str	r3, [r7, #8]

	// Update Radio Inputs
	uint32_t tick = CORE_GetTick();
 80014aa:	f7ff fc45 	bl	8000d38 <CORE_GetTick>
 80014ae:	0003      	movs	r3, r0
 80014b0:	607b      	str	r3, [r7, #4]
	while (100 > CORE_GetTick() - tick) { RADIO_Update(); }
 80014b2:	e001      	b.n	80014b8 <SYSTEM_CalibrateSampleChannelZero+0x1c>
 80014b4:	f001 fd9e 	bl	8002ff4 <RADIO_Update>
 80014b8:	f7ff fc3e 	bl	8000d38 <CORE_GetTick>
 80014bc:	0002      	movs	r2, r0
 80014be:	687b      	ldr	r3, [r7, #4]
 80014c0:	1ad3      	subs	r3, r2, r3
 80014c2:	2b63      	cmp	r3, #99	; 0x63
 80014c4:	d9f6      	bls.n	80014b4 <SYSTEM_CalibrateSampleChannelZero+0x18>

	// Sample All Radio Inputs
	for (uint8_t i = 0; i < ptrDataRadio->ch_num; i++)
 80014c6:	230f      	movs	r3, #15
 80014c8:	18fb      	adds	r3, r7, r3
 80014ca:	2200      	movs	r2, #0
 80014cc:	701a      	strb	r2, [r3, #0]
 80014ce:	e013      	b.n	80014f8 <SYSTEM_CalibrateSampleChannelZero+0x5c>
	{
		channelZero[i] = ptrDataRadio->ch[i];
 80014d0:	200f      	movs	r0, #15
 80014d2:	183b      	adds	r3, r7, r0
 80014d4:	781b      	ldrb	r3, [r3, #0]
 80014d6:	68ba      	ldr	r2, [r7, #8]
 80014d8:	005b      	lsls	r3, r3, #1
 80014da:	18d3      	adds	r3, r2, r3
 80014dc:	3302      	adds	r3, #2
 80014de:	2100      	movs	r1, #0
 80014e0:	5e59      	ldrsh	r1, [r3, r1]
 80014e2:	183b      	adds	r3, r7, r0
 80014e4:	781a      	ldrb	r2, [r3, #0]
 80014e6:	b289      	uxth	r1, r1
 80014e8:	4b09      	ldr	r3, [pc, #36]	; (8001510 <SYSTEM_CalibrateSampleChannelZero+0x74>)
 80014ea:	0052      	lsls	r2, r2, #1
 80014ec:	52d1      	strh	r1, [r2, r3]
	for (uint8_t i = 0; i < ptrDataRadio->ch_num; i++)
 80014ee:	183b      	adds	r3, r7, r0
 80014f0:	781a      	ldrb	r2, [r3, #0]
 80014f2:	183b      	adds	r3, r7, r0
 80014f4:	3201      	adds	r2, #1
 80014f6:	701a      	strb	r2, [r3, #0]
 80014f8:	68bb      	ldr	r3, [r7, #8]
 80014fa:	785b      	ldrb	r3, [r3, #1]
 80014fc:	220f      	movs	r2, #15
 80014fe:	18ba      	adds	r2, r7, r2
 8001500:	7812      	ldrb	r2, [r2, #0]
 8001502:	429a      	cmp	r2, r3
 8001504:	d3e4      	bcc.n	80014d0 <SYSTEM_CalibrateSampleChannelZero+0x34>
	}
}
 8001506:	46c0      	nop			; (mov r8, r8)
 8001508:	46c0      	nop			; (mov r8, r8)
 800150a:	46bd      	mov	sp, r7
 800150c:	b004      	add	sp, #16
 800150e:	bd80      	pop	{r7, pc}
 8001510:	200002d0 	.word	0x200002d0

08001514 <SYSTEM_CalibrateMotorSameDirection>:

void SYSTEM_CalibrateMotorSameDirection (SYSTEM_Config* c)
{
 8001514:	b590      	push	{r4, r7, lr}
 8001516:	b087      	sub	sp, #28
 8001518:	af00      	add	r7, sp, #0
 800151a:	6078      	str	r0, [r7, #4]
	// Initialize Function Variables
	RADIO_Data * ptrDataRadio = RADIO_GetDataPtr();
 800151c:	f001 fdce 	bl	80030bc <RADIO_GetDataPtr>
 8001520:	0003      	movs	r3, r0
 8001522:	613b      	str	r3, [r7, #16]

	// JERK THE MOTORS
	MOTOR_Update(MOTOR_MAX, MOTOR_MAX);
 8001524:	2380      	movs	r3, #128	; 0x80
 8001526:	005a      	lsls	r2, r3, #1
 8001528:	2380      	movs	r3, #128	; 0x80
 800152a:	005b      	lsls	r3, r3, #1
 800152c:	0011      	movs	r1, r2
 800152e:	0018      	movs	r0, r3
 8001530:	f7ff f9da 	bl	80008e8 <MOTOR_Update>
	CORE_Delay(CALIBRATE_MOTORJERK_PERIOD);
 8001534:	23fa      	movs	r3, #250	; 0xfa
 8001536:	005b      	lsls	r3, r3, #1
 8001538:	0018      	movs	r0, r3
 800153a:	f002 fab1 	bl	8003aa0 <CORE_Delay>
	MOTOR_Update(MOTOR_OFF, MOTOR_OFF);
 800153e:	2100      	movs	r1, #0
 8001540:	2000      	movs	r0, #0
 8001542:	f7ff f9d1 	bl	80008e8 <MOTOR_Update>

	// CHECK FOR OPERATOR INPUT
	while (1)
	{
		// Initialize Loop Variables
		uint8_t numSticks = 0;
 8001546:	2317      	movs	r3, #23
 8001548:	18fb      	adds	r3, r7, r3
 800154a:	2200      	movs	r2, #0
 800154c:	701a      	strb	r2, [r3, #0]
		uint32_t tick = CORE_GetTick();
 800154e:	f7ff fbf3 	bl	8000d38 <CORE_GetTick>
 8001552:	0003      	movs	r3, r0
 8001554:	60fb      	str	r3, [r7, #12]

		// Update Radio Inputs
		RADIO_Update();
 8001556:	f001 fd4d 	bl	8002ff4 <RADIO_Update>

		// Check All Inputs
		for (uint8_t i = 0; i < ptrDataRadio->ch_num; i++)
 800155a:	2316      	movs	r3, #22
 800155c:	18fb      	adds	r3, r7, r3
 800155e:	2200      	movs	r2, #0
 8001560:	701a      	strb	r2, [r3, #0]
 8001562:	e090      	b.n	8001686 <SYSTEM_CalibrateMotorSameDirection+0x172>
		{
			// Detect Drive Channel A
			if (numSticks == 0)
 8001564:	2417      	movs	r4, #23
 8001566:	193b      	adds	r3, r7, r4
 8001568:	781b      	ldrb	r3, [r3, #0]
 800156a:	2b00      	cmp	r3, #0
 800156c:	d13a      	bne.n	80015e4 <SYSTEM_CalibrateMotorSameDirection+0xd0>
			{
				if (ptrDataRadio->ch[i] > (channelZero[i] + CALIBRATE_INPUT_THRESHOLD))
 800156e:	2016      	movs	r0, #22
 8001570:	183b      	adds	r3, r7, r0
 8001572:	781b      	ldrb	r3, [r3, #0]
 8001574:	693a      	ldr	r2, [r7, #16]
 8001576:	005b      	lsls	r3, r3, #1
 8001578:	18d3      	adds	r3, r2, r3
 800157a:	3302      	adds	r3, #2
 800157c:	2200      	movs	r2, #0
 800157e:	5e9b      	ldrsh	r3, [r3, r2]
 8001580:	0019      	movs	r1, r3
 8001582:	183b      	adds	r3, r7, r0
 8001584:	781a      	ldrb	r2, [r3, #0]
 8001586:	4b55      	ldr	r3, [pc, #340]	; (80016dc <SYSTEM_CalibrateMotorSameDirection+0x1c8>)
 8001588:	0052      	lsls	r2, r2, #1
 800158a:	5ad3      	ldrh	r3, [r2, r3]
 800158c:	33c8      	adds	r3, #200	; 0xc8
 800158e:	4299      	cmp	r1, r3
 8001590:	dd0a      	ble.n	80015a8 <SYSTEM_CalibrateMotorSameDirection+0x94>
				{
					c->chDriveA = i;
 8001592:	687b      	ldr	r3, [r7, #4]
 8001594:	183a      	adds	r2, r7, r0
 8001596:	7812      	ldrb	r2, [r2, #0]
 8001598:	715a      	strb	r2, [r3, #5]
					c->chDriveArev = false;
 800159a:	687b      	ldr	r3, [r7, #4]
 800159c:	2200      	movs	r2, #0
 800159e:	725a      	strb	r2, [r3, #9]
					numSticks = 1;
 80015a0:	193b      	adds	r3, r7, r4
 80015a2:	2201      	movs	r2, #1
 80015a4:	701a      	strb	r2, [r3, #0]
 80015a6:	e068      	b.n	800167a <SYSTEM_CalibrateMotorSameDirection+0x166>
				}
				else if (ptrDataRadio->ch[i] < (channelZero[i] - CALIBRATE_INPUT_THRESHOLD))
 80015a8:	2016      	movs	r0, #22
 80015aa:	183b      	adds	r3, r7, r0
 80015ac:	781b      	ldrb	r3, [r3, #0]
 80015ae:	693a      	ldr	r2, [r7, #16]
 80015b0:	005b      	lsls	r3, r3, #1
 80015b2:	18d3      	adds	r3, r2, r3
 80015b4:	3302      	adds	r3, #2
 80015b6:	2200      	movs	r2, #0
 80015b8:	5e9b      	ldrsh	r3, [r3, r2]
 80015ba:	0019      	movs	r1, r3
 80015bc:	183b      	adds	r3, r7, r0
 80015be:	781a      	ldrb	r2, [r3, #0]
 80015c0:	4b46      	ldr	r3, [pc, #280]	; (80016dc <SYSTEM_CalibrateMotorSameDirection+0x1c8>)
 80015c2:	0052      	lsls	r2, r2, #1
 80015c4:	5ad3      	ldrh	r3, [r2, r3]
 80015c6:	3bc8      	subs	r3, #200	; 0xc8
 80015c8:	4299      	cmp	r1, r3
 80015ca:	da56      	bge.n	800167a <SYSTEM_CalibrateMotorSameDirection+0x166>
				{
					c->chDriveA = i;
 80015cc:	687b      	ldr	r3, [r7, #4]
 80015ce:	183a      	adds	r2, r7, r0
 80015d0:	7812      	ldrb	r2, [r2, #0]
 80015d2:	715a      	strb	r2, [r3, #5]
					c->chDriveArev = true;
 80015d4:	687b      	ldr	r3, [r7, #4]
 80015d6:	2201      	movs	r2, #1
 80015d8:	725a      	strb	r2, [r3, #9]
					numSticks = 1;
 80015da:	2317      	movs	r3, #23
 80015dc:	18fb      	adds	r3, r7, r3
 80015de:	2201      	movs	r2, #1
 80015e0:	701a      	strb	r2, [r3, #0]
 80015e2:	e04a      	b.n	800167a <SYSTEM_CalibrateMotorSameDirection+0x166>
				}
			}
			// Detect Drive Channel B
			else // if (numSticks >= 1)
			{
				if (ptrDataRadio->ch[i] > (channelZero[i] + CALIBRATE_INPUT_THRESHOLD))
 80015e4:	2016      	movs	r0, #22
 80015e6:	183b      	adds	r3, r7, r0
 80015e8:	781b      	ldrb	r3, [r3, #0]
 80015ea:	693a      	ldr	r2, [r7, #16]
 80015ec:	005b      	lsls	r3, r3, #1
 80015ee:	18d3      	adds	r3, r2, r3
 80015f0:	3302      	adds	r3, #2
 80015f2:	2200      	movs	r2, #0
 80015f4:	5e9b      	ldrsh	r3, [r3, r2]
 80015f6:	0019      	movs	r1, r3
 80015f8:	183b      	adds	r3, r7, r0
 80015fa:	781a      	ldrb	r2, [r3, #0]
 80015fc:	4b37      	ldr	r3, [pc, #220]	; (80016dc <SYSTEM_CalibrateMotorSameDirection+0x1c8>)
 80015fe:	0052      	lsls	r2, r2, #1
 8001600:	5ad3      	ldrh	r3, [r2, r3]
 8001602:	33c8      	adds	r3, #200	; 0xc8
 8001604:	4299      	cmp	r1, r3
 8001606:	dd13      	ble.n	8001630 <SYSTEM_CalibrateMotorSameDirection+0x11c>
				{
					if (i != c->chDriveA) {
 8001608:	687b      	ldr	r3, [r7, #4]
 800160a:	795b      	ldrb	r3, [r3, #5]
 800160c:	183a      	adds	r2, r7, r0
 800160e:	7812      	ldrb	r2, [r2, #0]
 8001610:	429a      	cmp	r2, r3
 8001612:	d032      	beq.n	800167a <SYSTEM_CalibrateMotorSameDirection+0x166>
						c->chDriveB = i;
 8001614:	687b      	ldr	r3, [r7, #4]
 8001616:	183a      	adds	r2, r7, r0
 8001618:	7812      	ldrb	r2, [r2, #0]
 800161a:	719a      	strb	r2, [r3, #6]
						c->chDriveBrev = false;
 800161c:	687b      	ldr	r3, [r7, #4]
 800161e:	2200      	movs	r2, #0
 8001620:	729a      	strb	r2, [r3, #10]
						numSticks += 1;
 8001622:	2217      	movs	r2, #23
 8001624:	18bb      	adds	r3, r7, r2
 8001626:	18ba      	adds	r2, r7, r2
 8001628:	7812      	ldrb	r2, [r2, #0]
 800162a:	3201      	adds	r2, #1
 800162c:	701a      	strb	r2, [r3, #0]
 800162e:	e024      	b.n	800167a <SYSTEM_CalibrateMotorSameDirection+0x166>
					}

				}
				else if (ptrDataRadio->ch[i] < (channelZero[i] - CALIBRATE_INPUT_THRESHOLD))
 8001630:	2016      	movs	r0, #22
 8001632:	183b      	adds	r3, r7, r0
 8001634:	781b      	ldrb	r3, [r3, #0]
 8001636:	693a      	ldr	r2, [r7, #16]
 8001638:	005b      	lsls	r3, r3, #1
 800163a:	18d3      	adds	r3, r2, r3
 800163c:	3302      	adds	r3, #2
 800163e:	2200      	movs	r2, #0
 8001640:	5e9b      	ldrsh	r3, [r3, r2]
 8001642:	0019      	movs	r1, r3
 8001644:	183b      	adds	r3, r7, r0
 8001646:	781a      	ldrb	r2, [r3, #0]
 8001648:	4b24      	ldr	r3, [pc, #144]	; (80016dc <SYSTEM_CalibrateMotorSameDirection+0x1c8>)
 800164a:	0052      	lsls	r2, r2, #1
 800164c:	5ad3      	ldrh	r3, [r2, r3]
 800164e:	3bc8      	subs	r3, #200	; 0xc8
 8001650:	4299      	cmp	r1, r3
 8001652:	da12      	bge.n	800167a <SYSTEM_CalibrateMotorSameDirection+0x166>
				{
					if (i != c->chDriveA) {
 8001654:	687b      	ldr	r3, [r7, #4]
 8001656:	795b      	ldrb	r3, [r3, #5]
 8001658:	183a      	adds	r2, r7, r0
 800165a:	7812      	ldrb	r2, [r2, #0]
 800165c:	429a      	cmp	r2, r3
 800165e:	d00c      	beq.n	800167a <SYSTEM_CalibrateMotorSameDirection+0x166>
						c->chDriveB = i;
 8001660:	687b      	ldr	r3, [r7, #4]
 8001662:	183a      	adds	r2, r7, r0
 8001664:	7812      	ldrb	r2, [r2, #0]
 8001666:	719a      	strb	r2, [r3, #6]
						c->chDriveBrev = true;
 8001668:	687b      	ldr	r3, [r7, #4]
 800166a:	2201      	movs	r2, #1
 800166c:	729a      	strb	r2, [r3, #10]
						numSticks += 1;
 800166e:	2217      	movs	r2, #23
 8001670:	18bb      	adds	r3, r7, r2
 8001672:	18ba      	adds	r2, r7, r2
 8001674:	7812      	ldrb	r2, [r2, #0]
 8001676:	3201      	adds	r2, #1
 8001678:	701a      	strb	r2, [r3, #0]
		for (uint8_t i = 0; i < ptrDataRadio->ch_num; i++)
 800167a:	2116      	movs	r1, #22
 800167c:	187b      	adds	r3, r7, r1
 800167e:	781a      	ldrb	r2, [r3, #0]
 8001680:	187b      	adds	r3, r7, r1
 8001682:	3201      	adds	r2, #1
 8001684:	701a      	strb	r2, [r3, #0]
 8001686:	693b      	ldr	r3, [r7, #16]
 8001688:	785b      	ldrb	r3, [r3, #1]
 800168a:	2216      	movs	r2, #22
 800168c:	18ba      	adds	r2, r7, r2
 800168e:	7812      	ldrb	r2, [r2, #0]
 8001690:	429a      	cmp	r2, r3
 8001692:	d200      	bcs.n	8001696 <SYSTEM_CalibrateMotorSameDirection+0x182>
 8001694:	e766      	b.n	8001564 <SYSTEM_CalibrateMotorSameDirection+0x50>
				}
			}
		}

		// Check For Break Condition
		if (numSticks == 1) {
 8001696:	2317      	movs	r3, #23
 8001698:	18fb      	adds	r3, r7, r3
 800169a:	781b      	ldrb	r3, [r3, #0]
 800169c:	2b01      	cmp	r3, #1
 800169e:	d103      	bne.n	80016a8 <SYSTEM_CalibrateMotorSameDirection+0x194>
			c->mode = ARCADE;
 80016a0:	687b      	ldr	r3, [r7, #4]
 80016a2:	2201      	movs	r2, #1
 80016a4:	711a      	strb	r2, [r3, #4]
			break;
 80016a6:	e014      	b.n	80016d2 <SYSTEM_CalibrateMotorSameDirection+0x1be>
		} else if (numSticks == 2) 	{
 80016a8:	2317      	movs	r3, #23
 80016aa:	18fb      	adds	r3, r7, r3
 80016ac:	781b      	ldrb	r3, [r3, #0]
 80016ae:	2b02      	cmp	r3, #2
 80016b0:	d107      	bne.n	80016c2 <SYSTEM_CalibrateMotorSameDirection+0x1ae>
			c->mode = TANK;
 80016b2:	687b      	ldr	r3, [r7, #4]
 80016b4:	2200      	movs	r2, #0
 80016b6:	711a      	strb	r2, [r3, #4]
			break;
 80016b8:	e00b      	b.n	80016d2 <SYSTEM_CalibrateMotorSameDirection+0x1be>
		}

		while (CALIBRATE_DRIVEINPUT_PERIOD >= CORE_GetTick() - tick)
		{
			RADIO_Update();
 80016ba:	f001 fc9b 	bl	8002ff4 <RADIO_Update>
			CORE_Idle();
 80016be:	f002 f9e9 	bl	8003a94 <CORE_Idle>
		while (CALIBRATE_DRIVEINPUT_PERIOD >= CORE_GetTick() - tick)
 80016c2:	f7ff fb39 	bl	8000d38 <CORE_GetTick>
 80016c6:	0002      	movs	r2, r0
 80016c8:	68fb      	ldr	r3, [r7, #12]
 80016ca:	1ad3      	subs	r3, r2, r3
 80016cc:	2b64      	cmp	r3, #100	; 0x64
 80016ce:	d9f4      	bls.n	80016ba <SYSTEM_CalibrateMotorSameDirection+0x1a6>
	{
 80016d0:	e739      	b.n	8001546 <SYSTEM_CalibrateMotorSameDirection+0x32>
		}
	}
}
 80016d2:	46c0      	nop			; (mov r8, r8)
 80016d4:	46bd      	mov	sp, r7
 80016d6:	b007      	add	sp, #28
 80016d8:	bd90      	pop	{r4, r7, pc}
 80016da:	46c0      	nop			; (mov r8, r8)
 80016dc:	200002d0 	.word	0x200002d0

080016e0 <SYSTEM_CalibrateMotorOppositeDirection>:


void SYSTEM_CalibrateMotorOppositeDirection (SYSTEM_Config* c)
{
 80016e0:	b590      	push	{r4, r7, lr}
 80016e2:	b08f      	sub	sp, #60	; 0x3c
 80016e4:	af00      	add	r7, sp, #0
 80016e6:	6078      	str	r0, [r7, #4]
	// Initialize Function Variables
	RADIO_Data * ptrDataRadio = RADIO_GetDataPtr();
 80016e8:	f001 fce8 	bl	80030bc <RADIO_GetDataPtr>
 80016ec:	0003      	movs	r3, r0
 80016ee:	62fb      	str	r3, [r7, #44]	; 0x2c

	// JERK THE MOTORS
	MOTOR_Update(-MOTOR_MAX, MOTOR_MAX);
 80016f0:	2380      	movs	r3, #128	; 0x80
 80016f2:	005b      	lsls	r3, r3, #1
 80016f4:	4aa5      	ldr	r2, [pc, #660]	; (800198c <SYSTEM_CalibrateMotorOppositeDirection+0x2ac>)
 80016f6:	0019      	movs	r1, r3
 80016f8:	0010      	movs	r0, r2
 80016fa:	f7ff f8f5 	bl	80008e8 <MOTOR_Update>
	CORE_Delay(CALIBRATE_MOTORJERK_PERIOD);
 80016fe:	23fa      	movs	r3, #250	; 0xfa
 8001700:	005b      	lsls	r3, r3, #1
 8001702:	0018      	movs	r0, r3
 8001704:	f002 f9cc 	bl	8003aa0 <CORE_Delay>
	MOTOR_Update(MOTOR_OFF, MOTOR_OFF);
 8001708:	2100      	movs	r1, #0
 800170a:	2000      	movs	r0, #0
 800170c:	f7ff f8ec 	bl	80008e8 <MOTOR_Update>

	// CHECK FOR OPERATOR INPUT
	while (1)
	{
		// Initialize Loop Variables
		uint8_t numSticks = 0;
 8001710:	2337      	movs	r3, #55	; 0x37
 8001712:	18fb      	adds	r3, r7, r3
 8001714:	2200      	movs	r2, #0
 8001716:	701a      	strb	r2, [r3, #0]
		uint32_t tick = CORE_GetTick();
 8001718:	f7ff fb0e 	bl	8000d38 <CORE_GetTick>
 800171c:	0003      	movs	r3, r0
 800171e:	62bb      	str	r3, [r7, #40]	; 0x28

		// Update Radio Inputs
		RADIO_Update();
 8001720:	f001 fc68 	bl	8002ff4 <RADIO_Update>

		// Check All Inputs

		switch (c->mode) {
 8001724:	687b      	ldr	r3, [r7, #4]
 8001726:	791b      	ldrb	r3, [r3, #4]
 8001728:	2b00      	cmp	r3, #0
 800172a:	d003      	beq.n	8001734 <SYSTEM_CalibrateMotorOppositeDirection+0x54>
 800172c:	2b01      	cmp	r3, #1
 800172e:	d100      	bne.n	8001732 <SYSTEM_CalibrateMotorOppositeDirection+0x52>
 8001730:	e0b7      	b.n	80018a2 <SYSTEM_CalibrateMotorOppositeDirection+0x1c2>
 8001732:	e113      	b.n	800195c <SYSTEM_CalibrateMotorOppositeDirection+0x27c>
		case TANK:;
			bool driveA = false;
 8001734:	2036      	movs	r0, #54	; 0x36
 8001736:	183b      	adds	r3, r7, r0
 8001738:	2200      	movs	r2, #0
 800173a:	701a      	strb	r2, [r3, #0]
			bool driveRevA = false;
 800173c:	2335      	movs	r3, #53	; 0x35
 800173e:	18fb      	adds	r3, r7, r3
 8001740:	2200      	movs	r2, #0
 8001742:	701a      	strb	r2, [r3, #0]
			if (ptrDataRadio->ch[c->chDriveA] > (channelZero[c->chDriveA] + CALIBRATE_INPUT_THRESHOLD)) {
 8001744:	687b      	ldr	r3, [r7, #4]
 8001746:	795b      	ldrb	r3, [r3, #5]
 8001748:	6afa      	ldr	r2, [r7, #44]	; 0x2c
 800174a:	005b      	lsls	r3, r3, #1
 800174c:	18d3      	adds	r3, r2, r3
 800174e:	3302      	adds	r3, #2
 8001750:	2200      	movs	r2, #0
 8001752:	5e9b      	ldrsh	r3, [r3, r2]
 8001754:	0019      	movs	r1, r3
 8001756:	687b      	ldr	r3, [r7, #4]
 8001758:	795b      	ldrb	r3, [r3, #5]
 800175a:	001a      	movs	r2, r3
 800175c:	4b8c      	ldr	r3, [pc, #560]	; (8001990 <SYSTEM_CalibrateMotorOppositeDirection+0x2b0>)
 800175e:	0052      	lsls	r2, r2, #1
 8001760:	5ad3      	ldrh	r3, [r2, r3]
 8001762:	33c8      	adds	r3, #200	; 0xc8
 8001764:	4299      	cmp	r1, r3
 8001766:	dd03      	ble.n	8001770 <SYSTEM_CalibrateMotorOppositeDirection+0x90>
				driveA = true;
 8001768:	183b      	adds	r3, r7, r0
 800176a:	2201      	movs	r2, #1
 800176c:	701a      	strb	r2, [r3, #0]
 800176e:	e019      	b.n	80017a4 <SYSTEM_CalibrateMotorOppositeDirection+0xc4>
			} else if (ptrDataRadio->ch[c->chDriveA] < (channelZero[c->chDriveA] - CALIBRATE_INPUT_THRESHOLD)) {
 8001770:	687b      	ldr	r3, [r7, #4]
 8001772:	795b      	ldrb	r3, [r3, #5]
 8001774:	6afa      	ldr	r2, [r7, #44]	; 0x2c
 8001776:	005b      	lsls	r3, r3, #1
 8001778:	18d3      	adds	r3, r2, r3
 800177a:	3302      	adds	r3, #2
 800177c:	2200      	movs	r2, #0
 800177e:	5e9b      	ldrsh	r3, [r3, r2]
 8001780:	0019      	movs	r1, r3
 8001782:	687b      	ldr	r3, [r7, #4]
 8001784:	795b      	ldrb	r3, [r3, #5]
 8001786:	001a      	movs	r2, r3
 8001788:	4b81      	ldr	r3, [pc, #516]	; (8001990 <SYSTEM_CalibrateMotorOppositeDirection+0x2b0>)
 800178a:	0052      	lsls	r2, r2, #1
 800178c:	5ad3      	ldrh	r3, [r2, r3]
 800178e:	3bc8      	subs	r3, #200	; 0xc8
 8001790:	4299      	cmp	r1, r3
 8001792:	da07      	bge.n	80017a4 <SYSTEM_CalibrateMotorOppositeDirection+0xc4>
				driveA = true;
 8001794:	2336      	movs	r3, #54	; 0x36
 8001796:	18fb      	adds	r3, r7, r3
 8001798:	2201      	movs	r2, #1
 800179a:	701a      	strb	r2, [r3, #0]
				driveRevA = true;
 800179c:	2335      	movs	r3, #53	; 0x35
 800179e:	18fb      	adds	r3, r7, r3
 80017a0:	2201      	movs	r2, #1
 80017a2:	701a      	strb	r2, [r3, #0]
			}

			bool driveB = false;
 80017a4:	2034      	movs	r0, #52	; 0x34
 80017a6:	183b      	adds	r3, r7, r0
 80017a8:	2200      	movs	r2, #0
 80017aa:	701a      	strb	r2, [r3, #0]
			bool driveRevB = false;
 80017ac:	2333      	movs	r3, #51	; 0x33
 80017ae:	18fb      	adds	r3, r7, r3
 80017b0:	2200      	movs	r2, #0
 80017b2:	701a      	strb	r2, [r3, #0]
			if (ptrDataRadio->ch[c->chDriveB] > (channelZero[c->chDriveB] + CALIBRATE_INPUT_THRESHOLD)) {
 80017b4:	687b      	ldr	r3, [r7, #4]
 80017b6:	799b      	ldrb	r3, [r3, #6]
 80017b8:	6afa      	ldr	r2, [r7, #44]	; 0x2c
 80017ba:	005b      	lsls	r3, r3, #1
 80017bc:	18d3      	adds	r3, r2, r3
 80017be:	3302      	adds	r3, #2
 80017c0:	2200      	movs	r2, #0
 80017c2:	5e9b      	ldrsh	r3, [r3, r2]
 80017c4:	0019      	movs	r1, r3
 80017c6:	687b      	ldr	r3, [r7, #4]
 80017c8:	799b      	ldrb	r3, [r3, #6]
 80017ca:	001a      	movs	r2, r3
 80017cc:	4b70      	ldr	r3, [pc, #448]	; (8001990 <SYSTEM_CalibrateMotorOppositeDirection+0x2b0>)
 80017ce:	0052      	lsls	r2, r2, #1
 80017d0:	5ad3      	ldrh	r3, [r2, r3]
 80017d2:	33c8      	adds	r3, #200	; 0xc8
 80017d4:	4299      	cmp	r1, r3
 80017d6:	dd03      	ble.n	80017e0 <SYSTEM_CalibrateMotorOppositeDirection+0x100>
				driveB = true;
 80017d8:	183b      	adds	r3, r7, r0
 80017da:	2201      	movs	r2, #1
 80017dc:	701a      	strb	r2, [r3, #0]
 80017de:	e019      	b.n	8001814 <SYSTEM_CalibrateMotorOppositeDirection+0x134>
			} else if (ptrDataRadio->ch[c->chDriveB] < (channelZero[c->chDriveB] - CALIBRATE_INPUT_THRESHOLD)) {
 80017e0:	687b      	ldr	r3, [r7, #4]
 80017e2:	799b      	ldrb	r3, [r3, #6]
 80017e4:	6afa      	ldr	r2, [r7, #44]	; 0x2c
 80017e6:	005b      	lsls	r3, r3, #1
 80017e8:	18d3      	adds	r3, r2, r3
 80017ea:	3302      	adds	r3, #2
 80017ec:	2200      	movs	r2, #0
 80017ee:	5e9b      	ldrsh	r3, [r3, r2]
 80017f0:	0019      	movs	r1, r3
 80017f2:	687b      	ldr	r3, [r7, #4]
 80017f4:	799b      	ldrb	r3, [r3, #6]
 80017f6:	001a      	movs	r2, r3
 80017f8:	4b65      	ldr	r3, [pc, #404]	; (8001990 <SYSTEM_CalibrateMotorOppositeDirection+0x2b0>)
 80017fa:	0052      	lsls	r2, r2, #1
 80017fc:	5ad3      	ldrh	r3, [r2, r3]
 80017fe:	3bc8      	subs	r3, #200	; 0xc8
 8001800:	4299      	cmp	r1, r3
 8001802:	da07      	bge.n	8001814 <SYSTEM_CalibrateMotorOppositeDirection+0x134>
				driveB = true;
 8001804:	2334      	movs	r3, #52	; 0x34
 8001806:	18fb      	adds	r3, r7, r3
 8001808:	2201      	movs	r2, #1
 800180a:	701a      	strb	r2, [r3, #0]
				driveRevB = true;
 800180c:	2333      	movs	r3, #51	; 0x33
 800180e:	18fb      	adds	r3, r7, r3
 8001810:	2201      	movs	r2, #1
 8001812:	701a      	strb	r2, [r3, #0]
			}
			// Check if both sticks are pressed and one channel has been reversed
			if (  driveA &&
 8001814:	2336      	movs	r3, #54	; 0x36
 8001816:	18fb      	adds	r3, r7, r3
 8001818:	781b      	ldrb	r3, [r3, #0]
 800181a:	2b00      	cmp	r3, #0
 800181c:	d100      	bne.n	8001820 <SYSTEM_CalibrateMotorOppositeDirection+0x140>
 800181e:	e09c      	b.n	800195a <SYSTEM_CalibrateMotorOppositeDirection+0x27a>
 8001820:	2334      	movs	r3, #52	; 0x34
 8001822:	18fb      	adds	r3, r7, r3
 8001824:	781b      	ldrb	r3, [r3, #0]
 8001826:	2b00      	cmp	r3, #0
 8001828:	d100      	bne.n	800182c <SYSTEM_CalibrateMotorOppositeDirection+0x14c>
 800182a:	e096      	b.n	800195a <SYSTEM_CalibrateMotorOppositeDirection+0x27a>
				  driveB &&
				((driveRevA == c->chDriveArev) != (driveRevB == c->chDriveBrev)) )
 800182c:	687b      	ldr	r3, [r7, #4]
 800182e:	7a5b      	ldrb	r3, [r3, #9]
 8001830:	2235      	movs	r2, #53	; 0x35
 8001832:	18ba      	adds	r2, r7, r2
 8001834:	7812      	ldrb	r2, [r2, #0]
 8001836:	1ad3      	subs	r3, r2, r3
 8001838:	425a      	negs	r2, r3
 800183a:	4153      	adcs	r3, r2
 800183c:	b2da      	uxtb	r2, r3
 800183e:	687b      	ldr	r3, [r7, #4]
 8001840:	7a9b      	ldrb	r3, [r3, #10]
 8001842:	2033      	movs	r0, #51	; 0x33
 8001844:	1839      	adds	r1, r7, r0
 8001846:	7809      	ldrb	r1, [r1, #0]
 8001848:	1acb      	subs	r3, r1, r3
 800184a:	4259      	negs	r1, r3
 800184c:	414b      	adcs	r3, r1
 800184e:	b2db      	uxtb	r3, r3
 8001850:	4053      	eors	r3, r2
 8001852:	b2db      	uxtb	r3, r3
				  driveB &&
 8001854:	2b00      	cmp	r3, #0
 8001856:	d100      	bne.n	800185a <SYSTEM_CalibrateMotorOppositeDirection+0x17a>
 8001858:	e07f      	b.n	800195a <SYSTEM_CalibrateMotorOppositeDirection+0x27a>
			{
				// if driveB has been reversed then channels A and B need to be swapped
				if (driveRevB != c->chDriveBrev) {
 800185a:	687b      	ldr	r3, [r7, #4]
 800185c:	7a9b      	ldrb	r3, [r3, #10]
 800185e:	183a      	adds	r2, r7, r0
 8001860:	7812      	ldrb	r2, [r2, #0]
 8001862:	429a      	cmp	r2, r3
 8001864:	d018      	beq.n	8001898 <SYSTEM_CalibrateMotorOppositeDirection+0x1b8>
					SYSTEM_Config cInt;
					cInt.chDriveA = 	c->chDriveA;
 8001866:	687b      	ldr	r3, [r7, #4]
 8001868:	795a      	ldrb	r2, [r3, #5]
 800186a:	210c      	movs	r1, #12
 800186c:	187b      	adds	r3, r7, r1
 800186e:	715a      	strb	r2, [r3, #5]
					cInt.chDriveArev =	c->chDriveArev;
 8001870:	687b      	ldr	r3, [r7, #4]
 8001872:	7a5a      	ldrb	r2, [r3, #9]
 8001874:	187b      	adds	r3, r7, r1
 8001876:	725a      	strb	r2, [r3, #9]
					c->chDriveA = 		c->chDriveB;
 8001878:	687b      	ldr	r3, [r7, #4]
 800187a:	799a      	ldrb	r2, [r3, #6]
 800187c:	687b      	ldr	r3, [r7, #4]
 800187e:	715a      	strb	r2, [r3, #5]
					c->chDriveArev = 	c->chDriveBrev;
 8001880:	687b      	ldr	r3, [r7, #4]
 8001882:	7a9a      	ldrb	r2, [r3, #10]
 8001884:	687b      	ldr	r3, [r7, #4]
 8001886:	725a      	strb	r2, [r3, #9]
					c->chDriveB = 		cInt.chDriveA;
 8001888:	187b      	adds	r3, r7, r1
 800188a:	795a      	ldrb	r2, [r3, #5]
 800188c:	687b      	ldr	r3, [r7, #4]
 800188e:	719a      	strb	r2, [r3, #6]
					c->chDriveBrev = 	cInt.chDriveArev;
 8001890:	187b      	adds	r3, r7, r1
 8001892:	7a5a      	ldrb	r2, [r3, #9]
 8001894:	687b      	ldr	r3, [r7, #4]
 8001896:	729a      	strb	r2, [r3, #10]
				}
				numSticks = 1;
 8001898:	2337      	movs	r3, #55	; 0x37
 800189a:	18fb      	adds	r3, r7, r3
 800189c:	2201      	movs	r2, #1
 800189e:	701a      	strb	r2, [r3, #0]
			}
			break; //break from case
 80018a0:	e05b      	b.n	800195a <SYSTEM_CalibrateMotorOppositeDirection+0x27a>

		case ARCADE:;
			for (uint8_t i = 0; i < ptrDataRadio->ch_num; i++)
 80018a2:	2332      	movs	r3, #50	; 0x32
 80018a4:	18fb      	adds	r3, r7, r3
 80018a6:	2200      	movs	r2, #0
 80018a8:	701a      	strb	r2, [r3, #0]
 80018aa:	e04e      	b.n	800194a <SYSTEM_CalibrateMotorOppositeDirection+0x26a>
			{
				if (numSticks == 0 && i != c->chDriveA)
 80018ac:	2437      	movs	r4, #55	; 0x37
 80018ae:	193b      	adds	r3, r7, r4
 80018b0:	781b      	ldrb	r3, [r3, #0]
 80018b2:	2b00      	cmp	r3, #0
 80018b4:	d143      	bne.n	800193e <SYSTEM_CalibrateMotorOppositeDirection+0x25e>
 80018b6:	687b      	ldr	r3, [r7, #4]
 80018b8:	795b      	ldrb	r3, [r3, #5]
 80018ba:	2032      	movs	r0, #50	; 0x32
 80018bc:	183a      	adds	r2, r7, r0
 80018be:	7812      	ldrb	r2, [r2, #0]
 80018c0:	429a      	cmp	r2, r3
 80018c2:	d03c      	beq.n	800193e <SYSTEM_CalibrateMotorOppositeDirection+0x25e>
				{
					if (ptrDataRadio->ch[i] > (channelZero[i] + CALIBRATE_INPUT_THRESHOLD))
 80018c4:	183b      	adds	r3, r7, r0
 80018c6:	781b      	ldrb	r3, [r3, #0]
 80018c8:	6afa      	ldr	r2, [r7, #44]	; 0x2c
 80018ca:	005b      	lsls	r3, r3, #1
 80018cc:	18d3      	adds	r3, r2, r3
 80018ce:	3302      	adds	r3, #2
 80018d0:	2200      	movs	r2, #0
 80018d2:	5e9b      	ldrsh	r3, [r3, r2]
 80018d4:	0019      	movs	r1, r3
 80018d6:	183b      	adds	r3, r7, r0
 80018d8:	781a      	ldrb	r2, [r3, #0]
 80018da:	4b2d      	ldr	r3, [pc, #180]	; (8001990 <SYSTEM_CalibrateMotorOppositeDirection+0x2b0>)
 80018dc:	0052      	lsls	r2, r2, #1
 80018de:	5ad3      	ldrh	r3, [r2, r3]
 80018e0:	33c8      	adds	r3, #200	; 0xc8
 80018e2:	4299      	cmp	r1, r3
 80018e4:	dd0c      	ble.n	8001900 <SYSTEM_CalibrateMotorOppositeDirection+0x220>
					{
						c->chDriveB = i;
 80018e6:	687b      	ldr	r3, [r7, #4]
 80018e8:	183a      	adds	r2, r7, r0
 80018ea:	7812      	ldrb	r2, [r2, #0]
 80018ec:	719a      	strb	r2, [r3, #6]
						c->chDriveBrev = true;
 80018ee:	687b      	ldr	r3, [r7, #4]
 80018f0:	2201      	movs	r2, #1
 80018f2:	729a      	strb	r2, [r3, #10]
						numSticks += 1;
 80018f4:	193b      	adds	r3, r7, r4
 80018f6:	193a      	adds	r2, r7, r4
 80018f8:	7812      	ldrb	r2, [r2, #0]
 80018fa:	3201      	adds	r2, #1
 80018fc:	701a      	strb	r2, [r3, #0]
 80018fe:	e01e      	b.n	800193e <SYSTEM_CalibrateMotorOppositeDirection+0x25e>
					}
					else if (ptrDataRadio->ch[i] < (channelZero[i] - CALIBRATE_INPUT_THRESHOLD))
 8001900:	2032      	movs	r0, #50	; 0x32
 8001902:	183b      	adds	r3, r7, r0
 8001904:	781b      	ldrb	r3, [r3, #0]
 8001906:	6afa      	ldr	r2, [r7, #44]	; 0x2c
 8001908:	005b      	lsls	r3, r3, #1
 800190a:	18d3      	adds	r3, r2, r3
 800190c:	3302      	adds	r3, #2
 800190e:	2200      	movs	r2, #0
 8001910:	5e9b      	ldrsh	r3, [r3, r2]
 8001912:	0019      	movs	r1, r3
 8001914:	183b      	adds	r3, r7, r0
 8001916:	781a      	ldrb	r2, [r3, #0]
 8001918:	4b1d      	ldr	r3, [pc, #116]	; (8001990 <SYSTEM_CalibrateMotorOppositeDirection+0x2b0>)
 800191a:	0052      	lsls	r2, r2, #1
 800191c:	5ad3      	ldrh	r3, [r2, r3]
 800191e:	3bc8      	subs	r3, #200	; 0xc8
 8001920:	4299      	cmp	r1, r3
 8001922:	da0c      	bge.n	800193e <SYSTEM_CalibrateMotorOppositeDirection+0x25e>
					{
						c->chDriveB = i;
 8001924:	687b      	ldr	r3, [r7, #4]
 8001926:	183a      	adds	r2, r7, r0
 8001928:	7812      	ldrb	r2, [r2, #0]
 800192a:	719a      	strb	r2, [r3, #6]
						c->chDriveBrev = false;
 800192c:	687b      	ldr	r3, [r7, #4]
 800192e:	2200      	movs	r2, #0
 8001930:	729a      	strb	r2, [r3, #10]
						numSticks += 1;
 8001932:	2237      	movs	r2, #55	; 0x37
 8001934:	18bb      	adds	r3, r7, r2
 8001936:	18ba      	adds	r2, r7, r2
 8001938:	7812      	ldrb	r2, [r2, #0]
 800193a:	3201      	adds	r2, #1
 800193c:	701a      	strb	r2, [r3, #0]
			for (uint8_t i = 0; i < ptrDataRadio->ch_num; i++)
 800193e:	2132      	movs	r1, #50	; 0x32
 8001940:	187b      	adds	r3, r7, r1
 8001942:	781a      	ldrb	r2, [r3, #0]
 8001944:	187b      	adds	r3, r7, r1
 8001946:	3201      	adds	r2, #1
 8001948:	701a      	strb	r2, [r3, #0]
 800194a:	6afb      	ldr	r3, [r7, #44]	; 0x2c
 800194c:	785b      	ldrb	r3, [r3, #1]
 800194e:	2232      	movs	r2, #50	; 0x32
 8001950:	18ba      	adds	r2, r7, r2
 8001952:	7812      	ldrb	r2, [r2, #0]
 8001954:	429a      	cmp	r2, r3
 8001956:	d3a9      	bcc.n	80018ac <SYSTEM_CalibrateMotorOppositeDirection+0x1cc>
					}

				}
			}
			break; //break from case
 8001958:	e000      	b.n	800195c <SYSTEM_CalibrateMotorOppositeDirection+0x27c>
			break; //break from case
 800195a:	46c0      	nop			; (mov r8, r8)
		}

		// Check For Break Condition
		if (numSticks == 1) {
 800195c:	2337      	movs	r3, #55	; 0x37
 800195e:	18fb      	adds	r3, r7, r3
 8001960:	781b      	ldrb	r3, [r3, #0]
 8001962:	2b01      	cmp	r3, #1
 8001964:	d00c      	beq.n	8001980 <SYSTEM_CalibrateMotorOppositeDirection+0x2a0>
			break;
		}

		// Loop Pacing
		while (CALIBRATE_DRIVEINPUT_PERIOD >= CORE_GetTick() - tick)
 8001966:	e003      	b.n	8001970 <SYSTEM_CalibrateMotorOppositeDirection+0x290>
		{
			RADIO_Update();
 8001968:	f001 fb44 	bl	8002ff4 <RADIO_Update>
			CORE_Idle();
 800196c:	f002 f892 	bl	8003a94 <CORE_Idle>
		while (CALIBRATE_DRIVEINPUT_PERIOD >= CORE_GetTick() - tick)
 8001970:	f7ff f9e2 	bl	8000d38 <CORE_GetTick>
 8001974:	0002      	movs	r2, r0
 8001976:	6abb      	ldr	r3, [r7, #40]	; 0x28
 8001978:	1ad3      	subs	r3, r2, r3
 800197a:	2b64      	cmp	r3, #100	; 0x64
 800197c:	d9f4      	bls.n	8001968 <SYSTEM_CalibrateMotorOppositeDirection+0x288>
	{
 800197e:	e6c7      	b.n	8001710 <SYSTEM_CalibrateMotorOppositeDirection+0x30>
			break;
 8001980:	46c0      	nop			; (mov r8, r8)
		}
	}
}
 8001982:	46c0      	nop			; (mov r8, r8)
 8001984:	46bd      	mov	sp, r7
 8001986:	b00f      	add	sp, #60	; 0x3c
 8001988:	bd90      	pop	{r4, r7, pc}
 800198a:	46c0      	nop			; (mov r8, r8)
 800198c:	ffffff00 	.word	0xffffff00
 8001990:	200002d0 	.word	0x200002d0

08001994 <SYSTEM_CalibrateServoA>:


void SYSTEM_CalibrateServoA (SYSTEM_Config* c)
{
 8001994:	b580      	push	{r7, lr}
 8001996:	b084      	sub	sp, #16
 8001998:	af00      	add	r7, sp, #0
 800199a:	6078      	str	r0, [r7, #4]
	// Initialize Function Variables
	RADIO_Data * ptrDataRadio = RADIO_GetDataPtr();
 800199c:	f001 fb8e 	bl	80030bc <RADIO_GetDataPtr>
 80019a0:	0003      	movs	r3, r0
 80019a2:	60bb      	str	r3, [r7, #8]

	//
	while (1)
	{
		// Initialize Loop Variables
		uint8_t numSticks = 0;
 80019a4:	230f      	movs	r3, #15
 80019a6:	18fb      	adds	r3, r7, r3
 80019a8:	2200      	movs	r2, #0
 80019aa:	701a      	strb	r2, [r3, #0]

		// Update Radio Inputs
		RADIO_Update();
 80019ac:	f001 fb22 	bl	8002ff4 <RADIO_Update>

		// Check All Inputs
		for (uint8_t i = 0; i < ptrDataRadio->ch_num; i++)
 80019b0:	230e      	movs	r3, #14
 80019b2:	18fb      	adds	r3, r7, r3
 80019b4:	2200      	movs	r2, #0
 80019b6:	701a      	strb	r2, [r3, #0]
 80019b8:	e050      	b.n	8001a5c <SYSTEM_CalibrateServoA+0xc8>
		{
			if ( (i != config.chDriveA) && (i != config.chDriveB) )
 80019ba:	4b32      	ldr	r3, [pc, #200]	; (8001a84 <SYSTEM_CalibrateServoA+0xf0>)
 80019bc:	795b      	ldrb	r3, [r3, #5]
 80019be:	200e      	movs	r0, #14
 80019c0:	183a      	adds	r2, r7, r0
 80019c2:	7812      	ldrb	r2, [r2, #0]
 80019c4:	429a      	cmp	r2, r3
 80019c6:	d043      	beq.n	8001a50 <SYSTEM_CalibrateServoA+0xbc>
 80019c8:	4b2e      	ldr	r3, [pc, #184]	; (8001a84 <SYSTEM_CalibrateServoA+0xf0>)
 80019ca:	799b      	ldrb	r3, [r3, #6]
 80019cc:	183a      	adds	r2, r7, r0
 80019ce:	7812      	ldrb	r2, [r2, #0]
 80019d0:	429a      	cmp	r2, r3
 80019d2:	d03d      	beq.n	8001a50 <SYSTEM_CalibrateServoA+0xbc>
			{
				if (ptrDataRadio->ch[i] > (channelZero[i] + CALIBRATE_ZERO_THRESHOLD))
 80019d4:	183b      	adds	r3, r7, r0
 80019d6:	781b      	ldrb	r3, [r3, #0]
 80019d8:	68ba      	ldr	r2, [r7, #8]
 80019da:	005b      	lsls	r3, r3, #1
 80019dc:	18d3      	adds	r3, r2, r3
 80019de:	3302      	adds	r3, #2
 80019e0:	2200      	movs	r2, #0
 80019e2:	5e9b      	ldrsh	r3, [r3, r2]
 80019e4:	0019      	movs	r1, r3
 80019e6:	183b      	adds	r3, r7, r0
 80019e8:	781a      	ldrb	r2, [r3, #0]
 80019ea:	4b27      	ldr	r3, [pc, #156]	; (8001a88 <SYSTEM_CalibrateServoA+0xf4>)
 80019ec:	0052      	lsls	r2, r2, #1
 80019ee:	5ad3      	ldrh	r3, [r2, r3]
 80019f0:	3332      	adds	r3, #50	; 0x32
 80019f2:	4299      	cmp	r1, r3
 80019f4:	dd0d      	ble.n	8001a12 <SYSTEM_CalibrateServoA+0x7e>
				{
					c->chServoA = i;
 80019f6:	687b      	ldr	r3, [r7, #4]
 80019f8:	183a      	adds	r2, r7, r0
 80019fa:	7812      	ldrb	r2, [r2, #0]
 80019fc:	71da      	strb	r2, [r3, #7]
					c->chServoArev = false;
 80019fe:	687b      	ldr	r3, [r7, #4]
 8001a00:	2200      	movs	r2, #0
 8001a02:	72da      	strb	r2, [r3, #11]
					numSticks += 1;
 8001a04:	220f      	movs	r2, #15
 8001a06:	18bb      	adds	r3, r7, r2
 8001a08:	18ba      	adds	r2, r7, r2
 8001a0a:	7812      	ldrb	r2, [r2, #0]
 8001a0c:	3201      	adds	r2, #1
 8001a0e:	701a      	strb	r2, [r3, #0]
 8001a10:	e01e      	b.n	8001a50 <SYSTEM_CalibrateServoA+0xbc>
				} else if (ptrDataRadio->ch[i] < (channelZero[i] - CALIBRATE_ZERO_THRESHOLD)) {
 8001a12:	200e      	movs	r0, #14
 8001a14:	183b      	adds	r3, r7, r0
 8001a16:	781b      	ldrb	r3, [r3, #0]
 8001a18:	68ba      	ldr	r2, [r7, #8]
 8001a1a:	005b      	lsls	r3, r3, #1
 8001a1c:	18d3      	adds	r3, r2, r3
 8001a1e:	3302      	adds	r3, #2
 8001a20:	2200      	movs	r2, #0
 8001a22:	5e9b      	ldrsh	r3, [r3, r2]
 8001a24:	0019      	movs	r1, r3
 8001a26:	183b      	adds	r3, r7, r0
 8001a28:	781a      	ldrb	r2, [r3, #0]
 8001a2a:	4b17      	ldr	r3, [pc, #92]	; (8001a88 <SYSTEM_CalibrateServoA+0xf4>)
 8001a2c:	0052      	lsls	r2, r2, #1
 8001a2e:	5ad3      	ldrh	r3, [r2, r3]
 8001a30:	3b32      	subs	r3, #50	; 0x32
 8001a32:	4299      	cmp	r1, r3
 8001a34:	da0c      	bge.n	8001a50 <SYSTEM_CalibrateServoA+0xbc>
					c->chServoA = i;
 8001a36:	687b      	ldr	r3, [r7, #4]
 8001a38:	183a      	adds	r2, r7, r0
 8001a3a:	7812      	ldrb	r2, [r2, #0]
 8001a3c:	71da      	strb	r2, [r3, #7]
					c->chServoArev = true;
 8001a3e:	687b      	ldr	r3, [r7, #4]
 8001a40:	2201      	movs	r2, #1
 8001a42:	72da      	strb	r2, [r3, #11]
					numSticks += 1;
 8001a44:	220f      	movs	r2, #15
 8001a46:	18bb      	adds	r3, r7, r2
 8001a48:	18ba      	adds	r2, r7, r2
 8001a4a:	7812      	ldrb	r2, [r2, #0]
 8001a4c:	3201      	adds	r2, #1
 8001a4e:	701a      	strb	r2, [r3, #0]
		for (uint8_t i = 0; i < ptrDataRadio->ch_num; i++)
 8001a50:	210e      	movs	r1, #14
 8001a52:	187b      	adds	r3, r7, r1
 8001a54:	781a      	ldrb	r2, [r3, #0]
 8001a56:	187b      	adds	r3, r7, r1
 8001a58:	3201      	adds	r2, #1
 8001a5a:	701a      	strb	r2, [r3, #0]
 8001a5c:	68bb      	ldr	r3, [r7, #8]
 8001a5e:	785b      	ldrb	r3, [r3, #1]
 8001a60:	220e      	movs	r2, #14
 8001a62:	18ba      	adds	r2, r7, r2
 8001a64:	7812      	ldrb	r2, [r2, #0]
 8001a66:	429a      	cmp	r2, r3
 8001a68:	d3a7      	bcc.n	80019ba <SYSTEM_CalibrateServoA+0x26>
				}
			}
		}

		// Check For Break Condition
		if (numSticks == 1) { break; }
 8001a6a:	230f      	movs	r3, #15
 8001a6c:	18fb      	adds	r3, r7, r3
 8001a6e:	781b      	ldrb	r3, [r3, #0]
 8001a70:	2b01      	cmp	r3, #1
 8001a72:	d002      	beq.n	8001a7a <SYSTEM_CalibrateServoA+0xe6>

		// Loop Pacing
		CORE_Idle();
 8001a74:	f002 f80e 	bl	8003a94 <CORE_Idle>
	{
 8001a78:	e794      	b.n	80019a4 <SYSTEM_CalibrateServoA+0x10>
		if (numSticks == 1) { break; }
 8001a7a:	46c0      	nop			; (mov r8, r8)
	}
}
 8001a7c:	46c0      	nop			; (mov r8, r8)
 8001a7e:	46bd      	mov	sp, r7
 8001a80:	b004      	add	sp, #16
 8001a82:	bd80      	pop	{r7, pc}
 8001a84:	200002b4 	.word	0x200002b4
 8001a88:	200002d0 	.word	0x200002d0

08001a8c <SYSTEM_CalibrateServoB>:


void SYSTEM_CalibrateServoB (SYSTEM_Config* c)
{
 8001a8c:	b580      	push	{r7, lr}
 8001a8e:	b084      	sub	sp, #16
 8001a90:	af00      	add	r7, sp, #0
 8001a92:	6078      	str	r0, [r7, #4]
	// Initialize Function Variables
	RADIO_Data * ptrDataRadio = RADIO_GetDataPtr();
 8001a94:	f001 fb12 	bl	80030bc <RADIO_GetDataPtr>
 8001a98:	0003      	movs	r3, r0
 8001a9a:	60bb      	str	r3, [r7, #8]

	//
	while (1)
	{
		// Initialize Loop Variables
		uint8_t numSticks = 0;
 8001a9c:	230f      	movs	r3, #15
 8001a9e:	18fb      	adds	r3, r7, r3
 8001aa0:	2200      	movs	r2, #0
 8001aa2:	701a      	strb	r2, [r3, #0]

		// Update Radio Inputs
		RADIO_Update();
 8001aa4:	f001 faa6 	bl	8002ff4 <RADIO_Update>

		// Check All Inputs
		for (uint8_t i = 0; i < ptrDataRadio->ch_num; i++)
 8001aa8:	230e      	movs	r3, #14
 8001aaa:	18fb      	adds	r3, r7, r3
 8001aac:	2200      	movs	r2, #0
 8001aae:	701a      	strb	r2, [r3, #0]
 8001ab0:	e050      	b.n	8001b54 <SYSTEM_CalibrateServoB+0xc8>
		{
			if ( (i != config.chDriveA) && (i != config.chDriveB) )
 8001ab2:	4b32      	ldr	r3, [pc, #200]	; (8001b7c <SYSTEM_CalibrateServoB+0xf0>)
 8001ab4:	795b      	ldrb	r3, [r3, #5]
 8001ab6:	200e      	movs	r0, #14
 8001ab8:	183a      	adds	r2, r7, r0
 8001aba:	7812      	ldrb	r2, [r2, #0]
 8001abc:	429a      	cmp	r2, r3
 8001abe:	d043      	beq.n	8001b48 <SYSTEM_CalibrateServoB+0xbc>
 8001ac0:	4b2e      	ldr	r3, [pc, #184]	; (8001b7c <SYSTEM_CalibrateServoB+0xf0>)
 8001ac2:	799b      	ldrb	r3, [r3, #6]
 8001ac4:	183a      	adds	r2, r7, r0
 8001ac6:	7812      	ldrb	r2, [r2, #0]
 8001ac8:	429a      	cmp	r2, r3
 8001aca:	d03d      	beq.n	8001b48 <SYSTEM_CalibrateServoB+0xbc>
			{
				if (ptrDataRadio->ch[i] > (channelZero[i] + CALIBRATE_ZERO_THRESHOLD))
 8001acc:	183b      	adds	r3, r7, r0
 8001ace:	781b      	ldrb	r3, [r3, #0]
 8001ad0:	68ba      	ldr	r2, [r7, #8]
 8001ad2:	005b      	lsls	r3, r3, #1
 8001ad4:	18d3      	adds	r3, r2, r3
 8001ad6:	3302      	adds	r3, #2
 8001ad8:	2200      	movs	r2, #0
 8001ada:	5e9b      	ldrsh	r3, [r3, r2]
 8001adc:	0019      	movs	r1, r3
 8001ade:	183b      	adds	r3, r7, r0
 8001ae0:	781a      	ldrb	r2, [r3, #0]
 8001ae2:	4b27      	ldr	r3, [pc, #156]	; (8001b80 <SYSTEM_CalibrateServoB+0xf4>)
 8001ae4:	0052      	lsls	r2, r2, #1
 8001ae6:	5ad3      	ldrh	r3, [r2, r3]
 8001ae8:	3332      	adds	r3, #50	; 0x32
 8001aea:	4299      	cmp	r1, r3
 8001aec:	dd0d      	ble.n	8001b0a <SYSTEM_CalibrateServoB+0x7e>
				{
					c->chServoB = i;
 8001aee:	687b      	ldr	r3, [r7, #4]
 8001af0:	183a      	adds	r2, r7, r0
 8001af2:	7812      	ldrb	r2, [r2, #0]
 8001af4:	721a      	strb	r2, [r3, #8]
					c->chServoBrev = false;
 8001af6:	687b      	ldr	r3, [r7, #4]
 8001af8:	2200      	movs	r2, #0
 8001afa:	731a      	strb	r2, [r3, #12]
					numSticks += 1;
 8001afc:	220f      	movs	r2, #15
 8001afe:	18bb      	adds	r3, r7, r2
 8001b00:	18ba      	adds	r2, r7, r2
 8001b02:	7812      	ldrb	r2, [r2, #0]
 8001b04:	3201      	adds	r2, #1
 8001b06:	701a      	strb	r2, [r3, #0]
 8001b08:	e01e      	b.n	8001b48 <SYSTEM_CalibrateServoB+0xbc>
				} else if (ptrDataRadio->ch[i] < (channelZero[i] - CALIBRATE_ZERO_THRESHOLD)) {
 8001b0a:	200e      	movs	r0, #14
 8001b0c:	183b      	adds	r3, r7, r0
 8001b0e:	781b      	ldrb	r3, [r3, #0]
 8001b10:	68ba      	ldr	r2, [r7, #8]
 8001b12:	005b      	lsls	r3, r3, #1
 8001b14:	18d3      	adds	r3, r2, r3
 8001b16:	3302      	adds	r3, #2
 8001b18:	2200      	movs	r2, #0
 8001b1a:	5e9b      	ldrsh	r3, [r3, r2]
 8001b1c:	0019      	movs	r1, r3
 8001b1e:	183b      	adds	r3, r7, r0
 8001b20:	781a      	ldrb	r2, [r3, #0]
 8001b22:	4b17      	ldr	r3, [pc, #92]	; (8001b80 <SYSTEM_CalibrateServoB+0xf4>)
 8001b24:	0052      	lsls	r2, r2, #1
 8001b26:	5ad3      	ldrh	r3, [r2, r3]
 8001b28:	3b32      	subs	r3, #50	; 0x32
 8001b2a:	4299      	cmp	r1, r3
 8001b2c:	da0c      	bge.n	8001b48 <SYSTEM_CalibrateServoB+0xbc>
					c->chServoB = i;
 8001b2e:	687b      	ldr	r3, [r7, #4]
 8001b30:	183a      	adds	r2, r7, r0
 8001b32:	7812      	ldrb	r2, [r2, #0]
 8001b34:	721a      	strb	r2, [r3, #8]
					c->chServoBrev = true;
 8001b36:	687b      	ldr	r3, [r7, #4]
 8001b38:	2201      	movs	r2, #1
 8001b3a:	731a      	strb	r2, [r3, #12]
					numSticks += 1;
 8001b3c:	220f      	movs	r2, #15
 8001b3e:	18bb      	adds	r3, r7, r2
 8001b40:	18ba      	adds	r2, r7, r2
 8001b42:	7812      	ldrb	r2, [r2, #0]
 8001b44:	3201      	adds	r2, #1
 8001b46:	701a      	strb	r2, [r3, #0]
		for (uint8_t i = 0; i < ptrDataRadio->ch_num; i++)
 8001b48:	210e      	movs	r1, #14
 8001b4a:	187b      	adds	r3, r7, r1
 8001b4c:	781a      	ldrb	r2, [r3, #0]
 8001b4e:	187b      	adds	r3, r7, r1
 8001b50:	3201      	adds	r2, #1
 8001b52:	701a      	strb	r2, [r3, #0]
 8001b54:	68bb      	ldr	r3, [r7, #8]
 8001b56:	785b      	ldrb	r3, [r3, #1]
 8001b58:	220e      	movs	r2, #14
 8001b5a:	18ba      	adds	r2, r7, r2
 8001b5c:	7812      	ldrb	r2, [r2, #0]
 8001b5e:	429a      	cmp	r2, r3
 8001b60:	d3a7      	bcc.n	8001ab2 <SYSTEM_CalibrateServoB+0x26>
				}
			}
		}

		// Check For Break Condition
		if (numSticks == 1) { break; }
 8001b62:	230f      	movs	r3, #15
 8001b64:	18fb      	adds	r3, r7, r3
 8001b66:	781b      	ldrb	r3, [r3, #0]
 8001b68:	2b01      	cmp	r3, #1
 8001b6a:	d002      	beq.n	8001b72 <SYSTEM_CalibrateServoB+0xe6>

		// Loop Pacing
		CORE_Idle();
 8001b6c:	f001 ff92 	bl	8003a94 <CORE_Idle>
	{
 8001b70:	e794      	b.n	8001a9c <SYSTEM_CalibrateServoB+0x10>
		if (numSticks == 1) { break; }
 8001b72:	46c0      	nop			; (mov r8, r8)
	}
}
 8001b74:	46c0      	nop			; (mov r8, r8)
 8001b76:	46bd      	mov	sp, r7
 8001b78:	b004      	add	sp, #16
 8001b7a:	bd80      	pop	{r7, pc}
 8001b7c:	200002b4 	.word	0x200002b4
 8001b80:	200002d0 	.word	0x200002d0

08001b84 <SYSTEM_WaitForResetInputs>:


void SYSTEM_WaitForResetInputs (void)
{
 8001b84:	b580      	push	{r7, lr}
 8001b86:	b082      	sub	sp, #8
 8001b88:	af00      	add	r7, sp, #0
	// Initialize Function Variables
	RADIO_Data * ptrDataRadio = RADIO_GetDataPtr();
 8001b8a:	f001 fa97 	bl	80030bc <RADIO_GetDataPtr>
 8001b8e:	0003      	movs	r3, r0
 8001b90:	603b      	str	r3, [r7, #0]

	//
	while (1)
	{
		// Initialize Loop Variables
		uint8_t numSticks = 0;
 8001b92:	1dfb      	adds	r3, r7, #7
 8001b94:	2200      	movs	r2, #0
 8001b96:	701a      	strb	r2, [r3, #0]

		// Update Radio Inputs
		RADIO_Update();
 8001b98:	f001 fa2c 	bl	8002ff4 <RADIO_Update>

		// Check All Inputs
		for (uint8_t i = 0; i < ptrDataRadio->ch_num; i++)
 8001b9c:	1dbb      	adds	r3, r7, #6
 8001b9e:	2200      	movs	r2, #0
 8001ba0:	701a      	strb	r2, [r3, #0]
 8001ba2:	e02b      	b.n	8001bfc <SYSTEM_WaitForResetInputs+0x78>
		{
			if ((ptrDataRadio->ch[i] > (channelZero[i] + CALIBRATE_ZERO_THRESHOLD)) || (ptrDataRadio->ch[i] < (channelZero[i] - CALIBRATE_ZERO_THRESHOLD)))
 8001ba4:	1dbb      	adds	r3, r7, #6
 8001ba6:	781b      	ldrb	r3, [r3, #0]
 8001ba8:	683a      	ldr	r2, [r7, #0]
 8001baa:	005b      	lsls	r3, r3, #1
 8001bac:	18d3      	adds	r3, r2, r3
 8001bae:	3302      	adds	r3, #2
 8001bb0:	2200      	movs	r2, #0
 8001bb2:	5e9b      	ldrsh	r3, [r3, r2]
 8001bb4:	0019      	movs	r1, r3
 8001bb6:	1dbb      	adds	r3, r7, #6
 8001bb8:	781a      	ldrb	r2, [r3, #0]
 8001bba:	4b19      	ldr	r3, [pc, #100]	; (8001c20 <SYSTEM_WaitForResetInputs+0x9c>)
 8001bbc:	0052      	lsls	r2, r2, #1
 8001bbe:	5ad3      	ldrh	r3, [r2, r3]
 8001bc0:	3332      	adds	r3, #50	; 0x32
 8001bc2:	4299      	cmp	r1, r3
 8001bc4:	dc10      	bgt.n	8001be8 <SYSTEM_WaitForResetInputs+0x64>
 8001bc6:	1dbb      	adds	r3, r7, #6
 8001bc8:	781b      	ldrb	r3, [r3, #0]
 8001bca:	683a      	ldr	r2, [r7, #0]
 8001bcc:	005b      	lsls	r3, r3, #1
 8001bce:	18d3      	adds	r3, r2, r3
 8001bd0:	3302      	adds	r3, #2
 8001bd2:	2200      	movs	r2, #0
 8001bd4:	5e9b      	ldrsh	r3, [r3, r2]
 8001bd6:	0019      	movs	r1, r3
 8001bd8:	1dbb      	adds	r3, r7, #6
 8001bda:	781a      	ldrb	r2, [r3, #0]
 8001bdc:	4b10      	ldr	r3, [pc, #64]	; (8001c20 <SYSTEM_WaitForResetInputs+0x9c>)
 8001bde:	0052      	lsls	r2, r2, #1
 8001be0:	5ad3      	ldrh	r3, [r2, r3]
 8001be2:	3b32      	subs	r3, #50	; 0x32
 8001be4:	4299      	cmp	r1, r3
 8001be6:	da04      	bge.n	8001bf2 <SYSTEM_WaitForResetInputs+0x6e>
			{
				numSticks += 1;
 8001be8:	1dfb      	adds	r3, r7, #7
 8001bea:	1dfa      	adds	r2, r7, #7
 8001bec:	7812      	ldrb	r2, [r2, #0]
 8001bee:	3201      	adds	r2, #1
 8001bf0:	701a      	strb	r2, [r3, #0]
		for (uint8_t i = 0; i < ptrDataRadio->ch_num; i++)
 8001bf2:	1dbb      	adds	r3, r7, #6
 8001bf4:	781a      	ldrb	r2, [r3, #0]
 8001bf6:	1dbb      	adds	r3, r7, #6
 8001bf8:	3201      	adds	r2, #1
 8001bfa:	701a      	strb	r2, [r3, #0]
 8001bfc:	683b      	ldr	r3, [r7, #0]
 8001bfe:	785b      	ldrb	r3, [r3, #1]
 8001c00:	1dba      	adds	r2, r7, #6
 8001c02:	7812      	ldrb	r2, [r2, #0]
 8001c04:	429a      	cmp	r2, r3
 8001c06:	d3cd      	bcc.n	8001ba4 <SYSTEM_WaitForResetInputs+0x20>
			}
		}

		// Check For Break Condition
		if (numSticks == 0) { break; }
 8001c08:	1dfb      	adds	r3, r7, #7
 8001c0a:	781b      	ldrb	r3, [r3, #0]
 8001c0c:	2b00      	cmp	r3, #0
 8001c0e:	d002      	beq.n	8001c16 <SYSTEM_WaitForResetInputs+0x92>

		// Loop Pacing
		CORE_Idle();
 8001c10:	f001 ff40 	bl	8003a94 <CORE_Idle>
	{
 8001c14:	e7bd      	b.n	8001b92 <SYSTEM_WaitForResetInputs+0xe>
		if (numSticks == 0) { break; }
 8001c16:	46c0      	nop			; (mov r8, r8)
	}
}
 8001c18:	46c0      	nop			; (mov r8, r8)
 8001c1a:	46bd      	mov	sp, r7
 8001c1c:	b002      	add	sp, #8
 8001c1e:	bd80      	pop	{r7, pc}
 8001c20:	200002d0 	.word	0x200002d0

08001c24 <SYSTEM_WaitForInput>:


void SYSTEM_WaitForInput (void)
{
 8001c24:	b580      	push	{r7, lr}
 8001c26:	b082      	sub	sp, #8
 8001c28:	af00      	add	r7, sp, #0
	// Initialize Function Variables
	RADIO_Data * ptrDataRadio = RADIO_GetDataPtr();
 8001c2a:	f001 fa47 	bl	80030bc <RADIO_GetDataPtr>
 8001c2e:	0003      	movs	r3, r0
 8001c30:	603b      	str	r3, [r7, #0]

	//
	while (1)
	{
		// Initialize Loop Variables
		uint8_t numSticks = 0;
 8001c32:	1dfb      	adds	r3, r7, #7
 8001c34:	2200      	movs	r2, #0
 8001c36:	701a      	strb	r2, [r3, #0]

		// Update Radio Inputs
		RADIO_Update();
 8001c38:	f001 f9dc 	bl	8002ff4 <RADIO_Update>

		// Check All Inputs
		for (uint8_t i = 0; i < ptrDataRadio->ch_num; i++)
 8001c3c:	1dbb      	adds	r3, r7, #6
 8001c3e:	2200      	movs	r2, #0
 8001c40:	701a      	strb	r2, [r3, #0]
 8001c42:	e02b      	b.n	8001c9c <SYSTEM_WaitForInput+0x78>
		{
			if ((ptrDataRadio->ch[i] > (channelZero[i] + CALIBRATE_ZERO_THRESHOLD)) || (ptrDataRadio->ch[i] < (channelZero[i] - CALIBRATE_ZERO_THRESHOLD)))
 8001c44:	1dbb      	adds	r3, r7, #6
 8001c46:	781b      	ldrb	r3, [r3, #0]
 8001c48:	683a      	ldr	r2, [r7, #0]
 8001c4a:	005b      	lsls	r3, r3, #1
 8001c4c:	18d3      	adds	r3, r2, r3
 8001c4e:	3302      	adds	r3, #2
 8001c50:	2200      	movs	r2, #0
 8001c52:	5e9b      	ldrsh	r3, [r3, r2]
 8001c54:	0019      	movs	r1, r3
 8001c56:	1dbb      	adds	r3, r7, #6
 8001c58:	781a      	ldrb	r2, [r3, #0]
 8001c5a:	4b19      	ldr	r3, [pc, #100]	; (8001cc0 <SYSTEM_WaitForInput+0x9c>)
 8001c5c:	0052      	lsls	r2, r2, #1
 8001c5e:	5ad3      	ldrh	r3, [r2, r3]
 8001c60:	3332      	adds	r3, #50	; 0x32
 8001c62:	4299      	cmp	r1, r3
 8001c64:	dc10      	bgt.n	8001c88 <SYSTEM_WaitForInput+0x64>
 8001c66:	1dbb      	adds	r3, r7, #6
 8001c68:	781b      	ldrb	r3, [r3, #0]
 8001c6a:	683a      	ldr	r2, [r7, #0]
 8001c6c:	005b      	lsls	r3, r3, #1
 8001c6e:	18d3      	adds	r3, r2, r3
 8001c70:	3302      	adds	r3, #2
 8001c72:	2200      	movs	r2, #0
 8001c74:	5e9b      	ldrsh	r3, [r3, r2]
 8001c76:	0019      	movs	r1, r3
 8001c78:	1dbb      	adds	r3, r7, #6
 8001c7a:	781a      	ldrb	r2, [r3, #0]
 8001c7c:	4b10      	ldr	r3, [pc, #64]	; (8001cc0 <SYSTEM_WaitForInput+0x9c>)
 8001c7e:	0052      	lsls	r2, r2, #1
 8001c80:	5ad3      	ldrh	r3, [r2, r3]
 8001c82:	3b32      	subs	r3, #50	; 0x32
 8001c84:	4299      	cmp	r1, r3
 8001c86:	da04      	bge.n	8001c92 <SYSTEM_WaitForInput+0x6e>
			{
				numSticks += 1;
 8001c88:	1dfb      	adds	r3, r7, #7
 8001c8a:	1dfa      	adds	r2, r7, #7
 8001c8c:	7812      	ldrb	r2, [r2, #0]
 8001c8e:	3201      	adds	r2, #1
 8001c90:	701a      	strb	r2, [r3, #0]
		for (uint8_t i = 0; i < ptrDataRadio->ch_num; i++)
 8001c92:	1dbb      	adds	r3, r7, #6
 8001c94:	781a      	ldrb	r2, [r3, #0]
 8001c96:	1dbb      	adds	r3, r7, #6
 8001c98:	3201      	adds	r2, #1
 8001c9a:	701a      	strb	r2, [r3, #0]
 8001c9c:	683b      	ldr	r3, [r7, #0]
 8001c9e:	785b      	ldrb	r3, [r3, #1]
 8001ca0:	1dba      	adds	r2, r7, #6
 8001ca2:	7812      	ldrb	r2, [r2, #0]
 8001ca4:	429a      	cmp	r2, r3
 8001ca6:	d3cd      	bcc.n	8001c44 <SYSTEM_WaitForInput+0x20>
			}
		}

		// Check For Break Condition
		if (numSticks > 0) { break; }
 8001ca8:	1dfb      	adds	r3, r7, #7
 8001caa:	781b      	ldrb	r3, [r3, #0]
 8001cac:	2b00      	cmp	r3, #0
 8001cae:	d102      	bne.n	8001cb6 <SYSTEM_WaitForInput+0x92>

		// Loop Pacing
		CORE_Idle();
 8001cb0:	f001 fef0 	bl	8003a94 <CORE_Idle>
	{
 8001cb4:	e7bd      	b.n	8001c32 <SYSTEM_WaitForInput+0xe>
		if (numSticks > 0) { break; }
 8001cb6:	46c0      	nop			; (mov r8, r8)
	}
}
 8001cb8:	46c0      	nop			; (mov r8, r8)
 8001cba:	46bd      	mov	sp, r7
 8001cbc:	b002      	add	sp, #8
 8001cbe:	bd80      	pop	{r7, pc}
 8001cc0:	200002d0 	.word	0x200002d0

08001cc4 <CORE_GetTick>:
{
 8001cc4:	b580      	push	{r7, lr}
 8001cc6:	af00      	add	r7, sp, #0
	return gTicks;
 8001cc8:	4b02      	ldr	r3, [pc, #8]	; (8001cd4 <CORE_GetTick+0x10>)
 8001cca:	681b      	ldr	r3, [r3, #0]
}
 8001ccc:	0018      	movs	r0, r3
 8001cce:	46bd      	mov	sp, r7
 8001cd0:	bd80      	pop	{r7, pc}
 8001cd2:	46c0      	nop			; (mov r8, r8)
 8001cd4:	200004a8 	.word	0x200004a8

08001cd8 <main>:
/*
 * PUBLIC FUNCTIONS
 */

int main (void)
{
 8001cd8:	b580      	push	{r7, lr}
 8001cda:	b082      	sub	sp, #8
 8001cdc:	af00      	add	r7, sp, #0
	CORE_Init();
 8001cde:	f001 fea3 	bl	8003a28 <CORE_Init>
	SYSTEM_Init();
 8001ce2:	f7ff f857 	bl	8000d94 <SYSTEM_Init>
	MOTOR_Init();
 8001ce6:	f7fe fdad 	bl	8000844 <MOTOR_Init>

	uint32_t tick = CORE_GetTick();
 8001cea:	f7ff ffeb 	bl	8001cc4 <CORE_GetTick>
 8001cee:	0003      	movs	r3, r0
 8001cf0:	607b      	str	r3, [r7, #4]
	while (100 > CORE_GetTick() - tick) {
 8001cf2:	e003      	b.n	8001cfc <main+0x24>
		RADIO_Update();
 8001cf4:	f001 f97e 	bl	8002ff4 <RADIO_Update>
		CORE_Idle();
 8001cf8:	f001 fecc 	bl	8003a94 <CORE_Idle>
	while (100 > CORE_GetTick() - tick) {
 8001cfc:	f7ff ffe2 	bl	8001cc4 <CORE_GetTick>
 8001d00:	0002      	movs	r2, r0
 8001d02:	687b      	ldr	r3, [r7, #4]
 8001d04:	1ad3      	subs	r3, r2, r3
 8001d06:	2b63      	cmp	r3, #99	; 0x63
 8001d08:	d9f4      	bls.n	8001cf4 <main+0x1c>
	}
	US_Delay(2000);
 8001d0a:	23fa      	movs	r3, #250	; 0xfa
 8001d0c:	00db      	lsls	r3, r3, #3
 8001d0e:	0018      	movs	r0, r3
 8001d10:	f002 ffde 	bl	8004cd0 <US_Delay>

	while (1)
	{
		SYSTEM_Update();
 8001d14:	f7ff f87c 	bl	8000e10 <SYSTEM_Update>

		US_Delay(1000);
 8001d18:	23fa      	movs	r3, #250	; 0xfa
 8001d1a:	009b      	lsls	r3, r3, #2
 8001d1c:	0018      	movs	r0, r3
 8001d1e:	f002 ffd7 	bl	8004cd0 <US_Delay>
		SYSTEM_Update();
 8001d22:	e7f7      	b.n	8001d14 <main+0x3c>

08001d24 <SystemInit>:
  * @brief  Setup the microcontroller system.
  * @param  None
  * @retval None
  */
void SystemInit (void)
{
 8001d24:	b580      	push	{r7, lr}
 8001d26:	af00      	add	r7, sp, #0
  /* Configure the Vector Table location add offset address ------------------*/
#if defined (USER_VECT_TAB_ADDRESS)
  SCB->VTOR = VECT_TAB_BASE_ADDRESS | VECT_TAB_OFFSET; /* Vector Table Relocation in Internal SRAM */
#endif /* USER_VECT_TAB_ADDRESS */
}
 8001d28:	46c0      	nop			; (mov r8, r8)
 8001d2a:	46bd      	mov	sp, r7
 8001d2c:	bd80      	pop	{r7, pc}
	...

08001d30 <Reset_Handler>:

    .section  .text.Reset_Handler
  .weak  Reset_Handler
  .type  Reset_Handler, %function
Reset_Handler:  
   ldr   r0, =_estack
 8001d30:	480d      	ldr	r0, [pc, #52]	; (8001d68 <LoopForever+0x2>)
   mov   sp, r0          /* set stack pointer */
 8001d32:	4685      	mov	sp, r0

/* Copy the data segment initializers from flash to SRAM */
  ldr r0, =_sdata
 8001d34:	480d      	ldr	r0, [pc, #52]	; (8001d6c <LoopForever+0x6>)
  ldr r1, =_edata
 8001d36:	490e      	ldr	r1, [pc, #56]	; (8001d70 <LoopForever+0xa>)
  ldr r2, =_sidata
 8001d38:	4a0e      	ldr	r2, [pc, #56]	; (8001d74 <LoopForever+0xe>)
  movs r3, #0
 8001d3a:	2300      	movs	r3, #0
  b LoopCopyDataInit
 8001d3c:	e002      	b.n	8001d44 <LoopCopyDataInit>

08001d3e <CopyDataInit>:

CopyDataInit:
  ldr r4, [r2, r3]
 8001d3e:	58d4      	ldr	r4, [r2, r3]
  str r4, [r0, r3]
 8001d40:	50c4      	str	r4, [r0, r3]
  adds r3, r3, #4
 8001d42:	3304      	adds	r3, #4

08001d44 <LoopCopyDataInit>:

LoopCopyDataInit:
  adds r4, r0, r3
 8001d44:	18c4      	adds	r4, r0, r3
  cmp r4, r1
 8001d46:	428c      	cmp	r4, r1
  bcc CopyDataInit
 8001d48:	d3f9      	bcc.n	8001d3e <CopyDataInit>
  
/* Zero fill the bss segment. */
  ldr r2, =_sbss
 8001d4a:	4a0b      	ldr	r2, [pc, #44]	; (8001d78 <LoopForever+0x12>)
  ldr r4, =_ebss
 8001d4c:	4c0b      	ldr	r4, [pc, #44]	; (8001d7c <LoopForever+0x16>)
  movs r3, #0
 8001d4e:	2300      	movs	r3, #0
  b LoopFillZerobss
 8001d50:	e001      	b.n	8001d56 <LoopFillZerobss>

08001d52 <FillZerobss>:

FillZerobss:
  str  r3, [r2]
 8001d52:	6013      	str	r3, [r2, #0]
  adds r2, r2, #4
 8001d54:	3204      	adds	r2, #4

08001d56 <LoopFillZerobss>:

LoopFillZerobss:
  cmp r2, r4
 8001d56:	42a2      	cmp	r2, r4
  bcc FillZerobss
 8001d58:	d3fb      	bcc.n	8001d52 <FillZerobss>

/* Call the clock system intitialization function.*/
  bl  SystemInit
 8001d5a:	f7ff ffe3 	bl	8001d24 <SystemInit>
/* Call static constructors */
    bl __libc_init_array
 8001d5e:	f002 ffc9 	bl	8004cf4 <__libc_init_array>
/* Call the application's entry point.*/
  bl  main
 8001d62:	f7ff ffb9 	bl	8001cd8 <main>

08001d66 <LoopForever>:

LoopForever:
    b LoopForever
 8001d66:	e7fe      	b.n	8001d66 <LoopForever>
   ldr   r0, =_estack
 8001d68:	20002000 	.word	0x20002000
  ldr r0, =_sdata
 8001d6c:	20000000 	.word	0x20000000
  ldr r1, =_edata
 8001d70:	20000290 	.word	0x20000290
  ldr r2, =_sidata
 8001d74:	08004d88 	.word	0x08004d88
  ldr r2, =_sbss
 8001d78:	20000290 	.word	0x20000290
  ldr r4, =_ebss
 8001d7c:	200004ec 	.word	0x200004ec

08001d80 <ADC1_COMP_IRQHandler>:
 * @retval : None
*/
    .section  .text.Default_Handler,"ax",%progbits
Default_Handler:
Infinite_Loop:
  b  Infinite_Loop
 8001d80:	e7fe      	b.n	8001d80 <ADC1_COMP_IRQHandler>
	...

08001d84 <__NVIC_EnableIRQ>:
  \details Enables a device specific interrupt in the NVIC interrupt controller.
  \param [in]      IRQn  Device specific interrupt number.
  \note    IRQn must not be negative.
 */
__STATIC_INLINE void __NVIC_EnableIRQ(IRQn_Type IRQn)
{
 8001d84:	b580      	push	{r7, lr}
 8001d86:	b082      	sub	sp, #8
 8001d88:	af00      	add	r7, sp, #0
 8001d8a:	0002      	movs	r2, r0
 8001d8c:	1dfb      	adds	r3, r7, #7
 8001d8e:	701a      	strb	r2, [r3, #0]
  if ((int32_t)(IRQn) >= 0)
 8001d90:	1dfb      	adds	r3, r7, #7
 8001d92:	781b      	ldrb	r3, [r3, #0]
 8001d94:	2b7f      	cmp	r3, #127	; 0x7f
 8001d96:	d809      	bhi.n	8001dac <__NVIC_EnableIRQ+0x28>
  {
    NVIC->ISER[0U] = (uint32_t)(1UL << (((uint32_t)IRQn) & 0x1FUL));
 8001d98:	1dfb      	adds	r3, r7, #7
 8001d9a:	781b      	ldrb	r3, [r3, #0]
 8001d9c:	001a      	movs	r2, r3
 8001d9e:	231f      	movs	r3, #31
 8001da0:	401a      	ands	r2, r3
 8001da2:	4b04      	ldr	r3, [pc, #16]	; (8001db4 <__NVIC_EnableIRQ+0x30>)
 8001da4:	2101      	movs	r1, #1
 8001da6:	4091      	lsls	r1, r2
 8001da8:	000a      	movs	r2, r1
 8001daa:	601a      	str	r2, [r3, #0]
  }
}
 8001dac:	46c0      	nop			; (mov r8, r8)
 8001dae:	46bd      	mov	sp, r7
 8001db0:	b002      	add	sp, #8
 8001db2:	bd80      	pop	{r7, pc}
 8001db4:	e000e100 	.word	0xe000e100

08001db8 <__NVIC_DisableIRQ>:
  \details Disables a device specific interrupt in the NVIC interrupt controller.
  \param [in]      IRQn  Device specific interrupt number.
  \note    IRQn must not be negative.
 */
__STATIC_INLINE void __NVIC_DisableIRQ(IRQn_Type IRQn)
{
 8001db8:	b580      	push	{r7, lr}
 8001dba:	b082      	sub	sp, #8
 8001dbc:	af00      	add	r7, sp, #0
 8001dbe:	0002      	movs	r2, r0
 8001dc0:	1dfb      	adds	r3, r7, #7
 8001dc2:	701a      	strb	r2, [r3, #0]
  if ((int32_t)(IRQn) >= 0)
 8001dc4:	1dfb      	adds	r3, r7, #7
 8001dc6:	781b      	ldrb	r3, [r3, #0]
 8001dc8:	2b7f      	cmp	r3, #127	; 0x7f
 8001dca:	d810      	bhi.n	8001dee <__NVIC_DisableIRQ+0x36>
  {
    NVIC->ICER[0U] = (uint32_t)(1UL << (((uint32_t)IRQn) & 0x1FUL));
 8001dcc:	1dfb      	adds	r3, r7, #7
 8001dce:	781b      	ldrb	r3, [r3, #0]
 8001dd0:	001a      	movs	r2, r3
 8001dd2:	231f      	movs	r3, #31
 8001dd4:	4013      	ands	r3, r2
 8001dd6:	4908      	ldr	r1, [pc, #32]	; (8001df8 <__NVIC_DisableIRQ+0x40>)
 8001dd8:	2201      	movs	r2, #1
 8001dda:	409a      	lsls	r2, r3
 8001ddc:	0013      	movs	r3, r2
 8001dde:	2280      	movs	r2, #128	; 0x80
 8001de0:	508b      	str	r3, [r1, r2]
  \details Acts as a special kind of Data Memory Barrier.
           It completes when all explicit memory accesses before this instruction complete.
 */
__STATIC_FORCEINLINE void __DSB(void)
{
  __ASM volatile ("dsb 0xF":::"memory");
 8001de2:	f3bf 8f4f 	dsb	sy
}
 8001de6:	46c0      	nop			; (mov r8, r8)
  __ASM volatile ("isb 0xF":::"memory");
 8001de8:	f3bf 8f6f 	isb	sy
}
 8001dec:	46c0      	nop			; (mov r8, r8)
    __DSB();
    __ISB();
  }
}
 8001dee:	46c0      	nop			; (mov r8, r8)
 8001df0:	46bd      	mov	sp, r7
 8001df2:	b002      	add	sp, #8
 8001df4:	bd80      	pop	{r7, pc}
 8001df6:	46c0      	nop			; (mov r8, r8)
 8001df8:	e000e100 	.word	0xe000e100

08001dfc <__NVIC_SetPriority>:
  \param [in]      IRQn  Interrupt number.
  \param [in]  priority  Priority to set.
  \note    The priority cannot be set for every processor exception.
 */
__STATIC_INLINE void __NVIC_SetPriority(IRQn_Type IRQn, uint32_t priority)
{
 8001dfc:	b590      	push	{r4, r7, lr}
 8001dfe:	b083      	sub	sp, #12
 8001e00:	af00      	add	r7, sp, #0
 8001e02:	0002      	movs	r2, r0
 8001e04:	6039      	str	r1, [r7, #0]
 8001e06:	1dfb      	adds	r3, r7, #7
 8001e08:	701a      	strb	r2, [r3, #0]
  if ((int32_t)(IRQn) >= 0)
 8001e0a:	1dfb      	adds	r3, r7, #7
 8001e0c:	781b      	ldrb	r3, [r3, #0]
 8001e0e:	2b7f      	cmp	r3, #127	; 0x7f
 8001e10:	d828      	bhi.n	8001e64 <__NVIC_SetPriority+0x68>
  {
    NVIC->IP[_IP_IDX(IRQn)]  = ((uint32_t)(NVIC->IP[_IP_IDX(IRQn)]  & ~(0xFFUL << _BIT_SHIFT(IRQn))) |
 8001e12:	4a2f      	ldr	r2, [pc, #188]	; (8001ed0 <__NVIC_SetPriority+0xd4>)
 8001e14:	1dfb      	adds	r3, r7, #7
 8001e16:	781b      	ldrb	r3, [r3, #0]
 8001e18:	b25b      	sxtb	r3, r3
 8001e1a:	089b      	lsrs	r3, r3, #2
 8001e1c:	33c0      	adds	r3, #192	; 0xc0
 8001e1e:	009b      	lsls	r3, r3, #2
 8001e20:	589b      	ldr	r3, [r3, r2]
 8001e22:	1dfa      	adds	r2, r7, #7
 8001e24:	7812      	ldrb	r2, [r2, #0]
 8001e26:	0011      	movs	r1, r2
 8001e28:	2203      	movs	r2, #3
 8001e2a:	400a      	ands	r2, r1
 8001e2c:	00d2      	lsls	r2, r2, #3
 8001e2e:	21ff      	movs	r1, #255	; 0xff
 8001e30:	4091      	lsls	r1, r2
 8001e32:	000a      	movs	r2, r1
 8001e34:	43d2      	mvns	r2, r2
 8001e36:	401a      	ands	r2, r3
 8001e38:	0011      	movs	r1, r2
       (((priority << (8U - __NVIC_PRIO_BITS)) & (uint32_t)0xFFUL) << _BIT_SHIFT(IRQn)));
 8001e3a:	683b      	ldr	r3, [r7, #0]
 8001e3c:	019b      	lsls	r3, r3, #6
 8001e3e:	22ff      	movs	r2, #255	; 0xff
 8001e40:	401a      	ands	r2, r3
 8001e42:	1dfb      	adds	r3, r7, #7
 8001e44:	781b      	ldrb	r3, [r3, #0]
 8001e46:	0018      	movs	r0, r3
 8001e48:	2303      	movs	r3, #3
 8001e4a:	4003      	ands	r3, r0
 8001e4c:	00db      	lsls	r3, r3, #3
 8001e4e:	409a      	lsls	r2, r3
    NVIC->IP[_IP_IDX(IRQn)]  = ((uint32_t)(NVIC->IP[_IP_IDX(IRQn)]  & ~(0xFFUL << _BIT_SHIFT(IRQn))) |
 8001e50:	481f      	ldr	r0, [pc, #124]	; (8001ed0 <__NVIC_SetPriority+0xd4>)
 8001e52:	1dfb      	adds	r3, r7, #7
 8001e54:	781b      	ldrb	r3, [r3, #0]
 8001e56:	b25b      	sxtb	r3, r3
 8001e58:	089b      	lsrs	r3, r3, #2
 8001e5a:	430a      	orrs	r2, r1
 8001e5c:	33c0      	adds	r3, #192	; 0xc0
 8001e5e:	009b      	lsls	r3, r3, #2
 8001e60:	501a      	str	r2, [r3, r0]
  else
  {
    SCB->SHP[_SHP_IDX(IRQn)] = ((uint32_t)(SCB->SHP[_SHP_IDX(IRQn)] & ~(0xFFUL << _BIT_SHIFT(IRQn))) |
       (((priority << (8U - __NVIC_PRIO_BITS)) & (uint32_t)0xFFUL) << _BIT_SHIFT(IRQn)));
  }
}
 8001e62:	e031      	b.n	8001ec8 <__NVIC_SetPriority+0xcc>
    SCB->SHP[_SHP_IDX(IRQn)] = ((uint32_t)(SCB->SHP[_SHP_IDX(IRQn)] & ~(0xFFUL << _BIT_SHIFT(IRQn))) |
 8001e64:	4a1b      	ldr	r2, [pc, #108]	; (8001ed4 <__NVIC_SetPriority+0xd8>)
 8001e66:	1dfb      	adds	r3, r7, #7
 8001e68:	781b      	ldrb	r3, [r3, #0]
 8001e6a:	0019      	movs	r1, r3
 8001e6c:	230f      	movs	r3, #15
 8001e6e:	400b      	ands	r3, r1
 8001e70:	3b08      	subs	r3, #8
 8001e72:	089b      	lsrs	r3, r3, #2
 8001e74:	3306      	adds	r3, #6
 8001e76:	009b      	lsls	r3, r3, #2
 8001e78:	18d3      	adds	r3, r2, r3
 8001e7a:	3304      	adds	r3, #4
 8001e7c:	681b      	ldr	r3, [r3, #0]
 8001e7e:	1dfa      	adds	r2, r7, #7
 8001e80:	7812      	ldrb	r2, [r2, #0]
 8001e82:	0011      	movs	r1, r2
 8001e84:	2203      	movs	r2, #3
 8001e86:	400a      	ands	r2, r1
 8001e88:	00d2      	lsls	r2, r2, #3
 8001e8a:	21ff      	movs	r1, #255	; 0xff
 8001e8c:	4091      	lsls	r1, r2
 8001e8e:	000a      	movs	r2, r1
 8001e90:	43d2      	mvns	r2, r2
 8001e92:	401a      	ands	r2, r3
 8001e94:	0011      	movs	r1, r2
       (((priority << (8U - __NVIC_PRIO_BITS)) & (uint32_t)0xFFUL) << _BIT_SHIFT(IRQn)));
 8001e96:	683b      	ldr	r3, [r7, #0]
 8001e98:	019b      	lsls	r3, r3, #6
 8001e9a:	22ff      	movs	r2, #255	; 0xff
 8001e9c:	401a      	ands	r2, r3
 8001e9e:	1dfb      	adds	r3, r7, #7
 8001ea0:	781b      	ldrb	r3, [r3, #0]
 8001ea2:	0018      	movs	r0, r3
 8001ea4:	2303      	movs	r3, #3
 8001ea6:	4003      	ands	r3, r0
 8001ea8:	00db      	lsls	r3, r3, #3
 8001eaa:	409a      	lsls	r2, r3
    SCB->SHP[_SHP_IDX(IRQn)] = ((uint32_t)(SCB->SHP[_SHP_IDX(IRQn)] & ~(0xFFUL << _BIT_SHIFT(IRQn))) |
 8001eac:	4809      	ldr	r0, [pc, #36]	; (8001ed4 <__NVIC_SetPriority+0xd8>)
 8001eae:	1dfb      	adds	r3, r7, #7
 8001eb0:	781b      	ldrb	r3, [r3, #0]
 8001eb2:	001c      	movs	r4, r3
 8001eb4:	230f      	movs	r3, #15
 8001eb6:	4023      	ands	r3, r4
 8001eb8:	3b08      	subs	r3, #8
 8001eba:	089b      	lsrs	r3, r3, #2
 8001ebc:	430a      	orrs	r2, r1
 8001ebe:	3306      	adds	r3, #6
 8001ec0:	009b      	lsls	r3, r3, #2
 8001ec2:	18c3      	adds	r3, r0, r3
 8001ec4:	3304      	adds	r3, #4
 8001ec6:	601a      	str	r2, [r3, #0]
}
 8001ec8:	46c0      	nop			; (mov r8, r8)
 8001eca:	46bd      	mov	sp, r7
 8001ecc:	b003      	add	sp, #12
 8001ece:	bd90      	pop	{r4, r7, pc}
 8001ed0:	e000e100 	.word	0xe000e100
 8001ed4:	e000ed00 	.word	0xe000ed00

08001ed8 <SysTick_Config>:
  \note    When the variable <b>__Vendor_SysTickConfig</b> is set to 1, then the
           function <b>SysTick_Config</b> is not included. In this case, the file <b><i>device</i>.h</b>
           must contain a vendor-specific implementation of this function.
 */
__STATIC_INLINE uint32_t SysTick_Config(uint32_t ticks)
{
 8001ed8:	b580      	push	{r7, lr}
 8001eda:	b082      	sub	sp, #8
 8001edc:	af00      	add	r7, sp, #0
 8001ede:	6078      	str	r0, [r7, #4]
  if ((ticks - 1UL) > SysTick_LOAD_RELOAD_Msk)
 8001ee0:	687b      	ldr	r3, [r7, #4]
 8001ee2:	1e5a      	subs	r2, r3, #1
 8001ee4:	2380      	movs	r3, #128	; 0x80
 8001ee6:	045b      	lsls	r3, r3, #17
 8001ee8:	429a      	cmp	r2, r3
 8001eea:	d301      	bcc.n	8001ef0 <SysTick_Config+0x18>
  {
    return (1UL);                                                   /* Reload value impossible */
 8001eec:	2301      	movs	r3, #1
 8001eee:	e010      	b.n	8001f12 <SysTick_Config+0x3a>
  }

  SysTick->LOAD  = (uint32_t)(ticks - 1UL);                         /* set reload register */
 8001ef0:	4b0a      	ldr	r3, [pc, #40]	; (8001f1c <SysTick_Config+0x44>)
 8001ef2:	687a      	ldr	r2, [r7, #4]
 8001ef4:	3a01      	subs	r2, #1
 8001ef6:	605a      	str	r2, [r3, #4]
  NVIC_SetPriority (SysTick_IRQn, (1UL << __NVIC_PRIO_BITS) - 1UL); /* set Priority for Systick Interrupt */
 8001ef8:	2301      	movs	r3, #1
 8001efa:	425b      	negs	r3, r3
 8001efc:	2103      	movs	r1, #3
 8001efe:	0018      	movs	r0, r3
 8001f00:	f7ff ff7c 	bl	8001dfc <__NVIC_SetPriority>
  SysTick->VAL   = 0UL;                                             /* Load the SysTick Counter Value */
 8001f04:	4b05      	ldr	r3, [pc, #20]	; (8001f1c <SysTick_Config+0x44>)
 8001f06:	2200      	movs	r2, #0
 8001f08:	609a      	str	r2, [r3, #8]
  SysTick->CTRL  = SysTick_CTRL_CLKSOURCE_Msk |
 8001f0a:	4b04      	ldr	r3, [pc, #16]	; (8001f1c <SysTick_Config+0x44>)
 8001f0c:	2207      	movs	r2, #7
 8001f0e:	601a      	str	r2, [r3, #0]
                   SysTick_CTRL_TICKINT_Msk   |
                   SysTick_CTRL_ENABLE_Msk;                         /* Enable SysTick IRQ and SysTick Timer */
  return (0UL);                                                     /* Function successful */
 8001f10:	2300      	movs	r3, #0
}
 8001f12:	0018      	movs	r0, r3
 8001f14:	46bd      	mov	sp, r7
 8001f16:	b002      	add	sp, #8
 8001f18:	bd80      	pop	{r7, pc}
 8001f1a:	46c0      	nop			; (mov r8, r8)
 8001f1c:	e000e010 	.word	0xe000e010

08001f20 <HAL_NVIC_SetPriority>:
  *         with stm32l0xx devices, this parameter is a dummy value and it is ignored, because 
  *         no subpriority supported in Cortex M0+ based products.   
  * @retval None
  */
void HAL_NVIC_SetPriority(IRQn_Type IRQn, uint32_t PreemptPriority, uint32_t SubPriority)
{ 
 8001f20:	b580      	push	{r7, lr}
 8001f22:	b084      	sub	sp, #16
 8001f24:	af00      	add	r7, sp, #0
 8001f26:	60b9      	str	r1, [r7, #8]
 8001f28:	607a      	str	r2, [r7, #4]
 8001f2a:	210f      	movs	r1, #15
 8001f2c:	187b      	adds	r3, r7, r1
 8001f2e:	1c02      	adds	r2, r0, #0
 8001f30:	701a      	strb	r2, [r3, #0]
    /* Check the parameters */
  assert_param(IS_NVIC_PREEMPTION_PRIORITY(PreemptPriority));
  NVIC_SetPriority(IRQn,PreemptPriority);
 8001f32:	68ba      	ldr	r2, [r7, #8]
 8001f34:	187b      	adds	r3, r7, r1
 8001f36:	781b      	ldrb	r3, [r3, #0]
 8001f38:	b25b      	sxtb	r3, r3
 8001f3a:	0011      	movs	r1, r2
 8001f3c:	0018      	movs	r0, r3
 8001f3e:	f7ff ff5d 	bl	8001dfc <__NVIC_SetPriority>
}
 8001f42:	46c0      	nop			; (mov r8, r8)
 8001f44:	46bd      	mov	sp, r7
 8001f46:	b004      	add	sp, #16
 8001f48:	bd80      	pop	{r7, pc}

08001f4a <HAL_NVIC_EnableIRQ>:
  *         This parameter can be an enumerator of  IRQn_Type enumeration
  *         (For the complete STM32 Devices IRQ Channels list, please refer to stm32l0xx.h file)  
  * @retval None
  */
void HAL_NVIC_EnableIRQ(IRQn_Type IRQn)
{
 8001f4a:	b580      	push	{r7, lr}
 8001f4c:	b082      	sub	sp, #8
 8001f4e:	af00      	add	r7, sp, #0
 8001f50:	0002      	movs	r2, r0
 8001f52:	1dfb      	adds	r3, r7, #7
 8001f54:	701a      	strb	r2, [r3, #0]
  /* Check the parameters */
  assert_param(IS_NVIC_DEVICE_IRQ(IRQn));
  
  /* Enable interrupt */
  NVIC_EnableIRQ(IRQn);
 8001f56:	1dfb      	adds	r3, r7, #7
 8001f58:	781b      	ldrb	r3, [r3, #0]
 8001f5a:	b25b      	sxtb	r3, r3
 8001f5c:	0018      	movs	r0, r3
 8001f5e:	f7ff ff11 	bl	8001d84 <__NVIC_EnableIRQ>
}
 8001f62:	46c0      	nop			; (mov r8, r8)
 8001f64:	46bd      	mov	sp, r7
 8001f66:	b002      	add	sp, #8
 8001f68:	bd80      	pop	{r7, pc}

08001f6a <HAL_NVIC_DisableIRQ>:
  *         This parameter can be an enumerator of IRQn_Type enumeration
  *         (For the complete STM32 Devices IRQ Channels list, please refer to stm32l0xx.h file)  
  * @retval None
  */
void HAL_NVIC_DisableIRQ(IRQn_Type IRQn)
{
 8001f6a:	b580      	push	{r7, lr}
 8001f6c:	b082      	sub	sp, #8
 8001f6e:	af00      	add	r7, sp, #0
 8001f70:	0002      	movs	r2, r0
 8001f72:	1dfb      	adds	r3, r7, #7
 8001f74:	701a      	strb	r2, [r3, #0]
    /* Check the parameters */
  assert_param(IS_NVIC_DEVICE_IRQ(IRQn));
  
  /* Disable interrupt */
  NVIC_DisableIRQ(IRQn);
 8001f76:	1dfb      	adds	r3, r7, #7
 8001f78:	781b      	ldrb	r3, [r3, #0]
 8001f7a:	b25b      	sxtb	r3, r3
 8001f7c:	0018      	movs	r0, r3
 8001f7e:	f7ff ff1b 	bl	8001db8 <__NVIC_DisableIRQ>
}
 8001f82:	46c0      	nop			; (mov r8, r8)
 8001f84:	46bd      	mov	sp, r7
 8001f86:	b002      	add	sp, #8
 8001f88:	bd80      	pop	{r7, pc}

08001f8a <HAL_SYSTICK_Config>:
  * @param  TicksNumb Specifies the ticks Number of ticks between two interrupts.
  * @retval status:  - 0  Function succeeded.
  *                  - 1  Function failed.
  */
uint32_t HAL_SYSTICK_Config(uint32_t TicksNumb)
{
 8001f8a:	b580      	push	{r7, lr}
 8001f8c:	b082      	sub	sp, #8
 8001f8e:	af00      	add	r7, sp, #0
 8001f90:	6078      	str	r0, [r7, #4]
   return SysTick_Config(TicksNumb);
 8001f92:	687b      	ldr	r3, [r7, #4]
 8001f94:	0018      	movs	r0, r3
 8001f96:	f7ff ff9f 	bl	8001ed8 <SysTick_Config>
 8001f9a:	0003      	movs	r3, r0
}
 8001f9c:	0018      	movs	r0, r3
 8001f9e:	46bd      	mov	sp, r7
 8001fa0:	b002      	add	sp, #8
 8001fa2:	bd80      	pop	{r7, pc}

08001fa4 <CORE_GetTick>:
{
 8001fa4:	b580      	push	{r7, lr}
 8001fa6:	af00      	add	r7, sp, #0
	return gTicks;
 8001fa8:	4b02      	ldr	r3, [pc, #8]	; (8001fb4 <CORE_GetTick+0x10>)
 8001faa:	681b      	ldr	r3, [r3, #0]
}
 8001fac:	0018      	movs	r0, r3
 8001fae:	46bd      	mov	sp, r7
 8001fb0:	bd80      	pop	{r7, pc}
 8001fb2:	46c0      	nop			; (mov r8, r8)
 8001fb4:	200004a8 	.word	0x200004a8

08001fb8 <IBUS_Init>:

	return rxHeartbeatIBUS;
}

void IBUS_Init (void)
{
 8001fb8:	b580      	push	{r7, lr}
 8001fba:	af00      	add	r7, sp, #0
	memset(rxIBUS, 0, sizeof(rxIBUS));
 8001fbc:	4b08      	ldr	r3, [pc, #32]	; (8001fe0 <IBUS_Init+0x28>)
 8001fbe:	2260      	movs	r2, #96	; 0x60
 8001fc0:	2100      	movs	r1, #0
 8001fc2:	0018      	movs	r0, r3
 8001fc4:	f002 fec3 	bl	8004d4e <memset>

	UART_Init(IBUS_UART, IBUS_BAUD, UART_Mode_Default);
 8001fc8:	4b06      	ldr	r3, [pc, #24]	; (8001fe4 <IBUS_Init+0x2c>)
 8001fca:	681b      	ldr	r3, [r3, #0]
 8001fcc:	22e1      	movs	r2, #225	; 0xe1
 8001fce:	0251      	lsls	r1, r2, #9
 8001fd0:	2200      	movs	r2, #0
 8001fd2:	0018      	movs	r0, r3
 8001fd4:	f002 fbdc 	bl	8004790 <UART_Init>
}
 8001fd8:	46c0      	nop			; (mov r8, r8)
 8001fda:	46bd      	mov	sp, r7
 8001fdc:	bd80      	pop	{r7, pc}
 8001fde:	46c0      	nop			; (mov r8, r8)
 8001fe0:	200002fc 	.word	0x200002fc
 8001fe4:	2000028c 	.word	0x2000028c

08001fe8 <IBUS_Deinit>:

void IBUS_Deinit (void)
{
 8001fe8:	b580      	push	{r7, lr}
 8001fea:	af00      	add	r7, sp, #0
	UART_Deinit(IBUS_UART);
 8001fec:	4b03      	ldr	r3, [pc, #12]	; (8001ffc <IBUS_Deinit+0x14>)
 8001fee:	681b      	ldr	r3, [r3, #0]
 8001ff0:	0018      	movs	r0, r3
 8001ff2:	f002 fcb5 	bl	8004960 <UART_Deinit>
}
 8001ff6:	46c0      	nop			; (mov r8, r8)
 8001ff8:	46bd      	mov	sp, r7
 8001ffa:	bd80      	pop	{r7, pc}
 8001ffc:	2000028c 	.word	0x2000028c

08002000 <IBUS_Update>:

void IBUS_Update (void)
{
 8002000:	b590      	push	{r4, r7, lr}
 8002002:	b087      	sub	sp, #28
 8002004:	af00      	add	r7, sp, #0
	// Update Rx Data
	IBUS_HandleUART();
 8002006:	f000 f947 	bl	8002298 <IBUS_HandleUART>

	// Update Loop Variables
	uint32_t now = CORE_GetTick();
 800200a:	f7ff ffcb 	bl	8001fa4 <CORE_GetTick>
 800200e:	0003      	movs	r3, r0
 8002010:	60bb      	str	r3, [r7, #8]
	static uint32_t prev = 0;

	// Check for New Input Data
	if (rxHeartbeatIBUS)
 8002012:	4b45      	ldr	r3, [pc, #276]	; (8002128 <IBUS_Update+0x128>)
 8002014:	781b      	ldrb	r3, [r3, #0]
 8002016:	2b00      	cmp	r3, #0
 8002018:	d06f      	beq.n	80020fa <IBUS_Update+0xfa>
	{
		// Average and Assign Input to data Struct
		for (uint8_t j = IBUS_DATA_INDEX; j < (IBUS_PAYLOAD_LEN - IBUS_CHECKSUM_LEN); j += 2)
 800201a:	2317      	movs	r3, #23
 800201c:	18fb      	adds	r3, r7, r3
 800201e:	2202      	movs	r2, #2
 8002020:	701a      	strb	r2, [r3, #0]
 8002022:	e05f      	b.n	80020e4 <IBUS_Update+0xe4>
		{
			uint8_t avg = 0;
 8002024:	2316      	movs	r3, #22
 8002026:	18fb      	adds	r3, r7, r3
 8002028:	2200      	movs	r2, #0
 800202a:	701a      	strb	r2, [r3, #0]
			uint32_t ch = 0;
 800202c:	2300      	movs	r3, #0
 800202e:	613b      	str	r3, [r7, #16]
			for (uint8_t i = 0; i < IBUS_JITTER_ARRAY; i++)
 8002030:	230f      	movs	r3, #15
 8002032:	18fb      	adds	r3, r7, r3
 8002034:	2200      	movs	r2, #0
 8002036:	701a      	strb	r2, [r3, #0]
 8002038:	e036      	b.n	80020a8 <IBUS_Update+0xa8>
			{
				uint16_t trunc = (int16_t)(rxIBUS[i][j] | rxIBUS[i][j+1] << 8);
 800203a:	200f      	movs	r0, #15
 800203c:	183b      	adds	r3, r7, r0
 800203e:	781a      	ldrb	r2, [r3, #0]
 8002040:	2417      	movs	r4, #23
 8002042:	193b      	adds	r3, r7, r4
 8002044:	781b      	ldrb	r3, [r3, #0]
 8002046:	4939      	ldr	r1, [pc, #228]	; (800212c <IBUS_Update+0x12c>)
 8002048:	0152      	lsls	r2, r2, #5
 800204a:	188a      	adds	r2, r1, r2
 800204c:	5cd3      	ldrb	r3, [r2, r3]
 800204e:	b21a      	sxth	r2, r3
 8002050:	183b      	adds	r3, r7, r0
 8002052:	7819      	ldrb	r1, [r3, #0]
 8002054:	193b      	adds	r3, r7, r4
 8002056:	781b      	ldrb	r3, [r3, #0]
 8002058:	3301      	adds	r3, #1
 800205a:	4834      	ldr	r0, [pc, #208]	; (800212c <IBUS_Update+0x12c>)
 800205c:	0149      	lsls	r1, r1, #5
 800205e:	1841      	adds	r1, r0, r1
 8002060:	5ccb      	ldrb	r3, [r1, r3]
 8002062:	021b      	lsls	r3, r3, #8
 8002064:	b21b      	sxth	r3, r3
 8002066:	4313      	orrs	r3, r2
 8002068:	b21a      	sxth	r2, r3
 800206a:	1dbb      	adds	r3, r7, #6
 800206c:	801a      	strh	r2, [r3, #0]
				trunc = IBUS_Truncate(trunc);
 800206e:	1dbc      	adds	r4, r7, #6
 8002070:	1dbb      	adds	r3, r7, #6
 8002072:	881b      	ldrh	r3, [r3, #0]
 8002074:	0018      	movs	r0, r3
 8002076:	f000 f867 	bl	8002148 <IBUS_Truncate>
 800207a:	0003      	movs	r3, r0
 800207c:	8023      	strh	r3, [r4, #0]
				if (trunc != 0)
 800207e:	1dbb      	adds	r3, r7, #6
 8002080:	881b      	ldrh	r3, [r3, #0]
 8002082:	2b00      	cmp	r3, #0
 8002084:	d00a      	beq.n	800209c <IBUS_Update+0x9c>
				{
					ch += trunc;
 8002086:	1dbb      	adds	r3, r7, #6
 8002088:	881b      	ldrh	r3, [r3, #0]
 800208a:	693a      	ldr	r2, [r7, #16]
 800208c:	18d3      	adds	r3, r2, r3
 800208e:	613b      	str	r3, [r7, #16]
					avg += 1;
 8002090:	2216      	movs	r2, #22
 8002092:	18bb      	adds	r3, r7, r2
 8002094:	18ba      	adds	r2, r7, r2
 8002096:	7812      	ldrb	r2, [r2, #0]
 8002098:	3201      	adds	r2, #1
 800209a:	701a      	strb	r2, [r3, #0]
			for (uint8_t i = 0; i < IBUS_JITTER_ARRAY; i++)
 800209c:	210f      	movs	r1, #15
 800209e:	187b      	adds	r3, r7, r1
 80020a0:	781a      	ldrb	r2, [r3, #0]
 80020a2:	187b      	adds	r3, r7, r1
 80020a4:	3201      	adds	r2, #1
 80020a6:	701a      	strb	r2, [r3, #0]
 80020a8:	230f      	movs	r3, #15
 80020aa:	18fb      	adds	r3, r7, r3
 80020ac:	781b      	ldrb	r3, [r3, #0]
 80020ae:	2b02      	cmp	r3, #2
 80020b0:	d9c3      	bls.n	800203a <IBUS_Update+0x3a>
				}
			}
			ch /= avg;
 80020b2:	2316      	movs	r3, #22
 80020b4:	18fb      	adds	r3, r7, r3
 80020b6:	781b      	ldrb	r3, [r3, #0]
 80020b8:	0019      	movs	r1, r3
 80020ba:	6938      	ldr	r0, [r7, #16]
 80020bc:	f7fe f824 	bl	8000108 <__udivsi3>
 80020c0:	0003      	movs	r3, r0
 80020c2:	613b      	str	r3, [r7, #16]
			dataIBUS.ch[j] = ch;
 80020c4:	2017      	movs	r0, #23
 80020c6:	183b      	adds	r3, r7, r0
 80020c8:	781b      	ldrb	r3, [r3, #0]
 80020ca:	693a      	ldr	r2, [r7, #16]
 80020cc:	b211      	sxth	r1, r2
 80020ce:	4a18      	ldr	r2, [pc, #96]	; (8002130 <IBUS_Update+0x130>)
 80020d0:	005b      	lsls	r3, r3, #1
 80020d2:	18d3      	adds	r3, r2, r3
 80020d4:	3302      	adds	r3, #2
 80020d6:	1c0a      	adds	r2, r1, #0
 80020d8:	801a      	strh	r2, [r3, #0]
		for (uint8_t j = IBUS_DATA_INDEX; j < (IBUS_PAYLOAD_LEN - IBUS_CHECKSUM_LEN); j += 2)
 80020da:	183b      	adds	r3, r7, r0
 80020dc:	183a      	adds	r2, r7, r0
 80020de:	7812      	ldrb	r2, [r2, #0]
 80020e0:	3202      	adds	r2, #2
 80020e2:	701a      	strb	r2, [r3, #0]
 80020e4:	2317      	movs	r3, #23
 80020e6:	18fb      	adds	r3, r7, r3
 80020e8:	781b      	ldrb	r3, [r3, #0]
 80020ea:	2b1d      	cmp	r3, #29
 80020ec:	d99a      	bls.n	8002024 <IBUS_Update+0x24>
		}
		rxHeartbeatIBUS = false;
 80020ee:	4b0e      	ldr	r3, [pc, #56]	; (8002128 <IBUS_Update+0x128>)
 80020f0:	2200      	movs	r2, #0
 80020f2:	701a      	strb	r2, [r3, #0]
		prev = now;
 80020f4:	4b0f      	ldr	r3, [pc, #60]	; (8002134 <IBUS_Update+0x134>)
 80020f6:	68ba      	ldr	r2, [r7, #8]
 80020f8:	601a      	str	r2, [r3, #0]
	}

	// Check for Input Failsafe
	if (IBUS_TIMEOUT <= (now - prev)) {
 80020fa:	4b0e      	ldr	r3, [pc, #56]	; (8002134 <IBUS_Update+0x134>)
 80020fc:	681b      	ldr	r3, [r3, #0]
 80020fe:	68ba      	ldr	r2, [r7, #8]
 8002100:	1ad3      	subs	r3, r2, r3
 8002102:	2b14      	cmp	r3, #20
 8002104:	d909      	bls.n	800211a <IBUS_Update+0x11a>
		dataIBUS.inputLost = true;
 8002106:	4b0a      	ldr	r3, [pc, #40]	; (8002130 <IBUS_Update+0x130>)
 8002108:	2201      	movs	r2, #1
 800210a:	701a      	strb	r2, [r3, #0]
		memset(rxIBUS, 0, sizeof(rxIBUS));
 800210c:	4b07      	ldr	r3, [pc, #28]	; (800212c <IBUS_Update+0x12c>)
 800210e:	2260      	movs	r2, #96	; 0x60
 8002110:	2100      	movs	r1, #0
 8002112:	0018      	movs	r0, r3
 8002114:	f002 fe1b 	bl	8004d4e <memset>
	} else {
		dataIBUS.inputLost = false;
	}
}
 8002118:	e002      	b.n	8002120 <IBUS_Update+0x120>
		dataIBUS.inputLost = false;
 800211a:	4b05      	ldr	r3, [pc, #20]	; (8002130 <IBUS_Update+0x130>)
 800211c:	2200      	movs	r2, #0
 800211e:	701a      	strb	r2, [r3, #0]
}
 8002120:	46c0      	nop			; (mov r8, r8)
 8002122:	46bd      	mov	sp, r7
 8002124:	b007      	add	sp, #28
 8002126:	bd90      	pop	{r4, r7, pc}
 8002128:	2000035c 	.word	0x2000035c
 800212c:	200002fc 	.word	0x200002fc
 8002130:	20000360 	.word	0x20000360
 8002134:	20000380 	.word	0x20000380

08002138 <IBUS_GetDataPtr>:

IBUS_Data* IBUS_GetDataPtr (void)
{
 8002138:	b580      	push	{r7, lr}
 800213a:	af00      	add	r7, sp, #0
	return &dataIBUS;
 800213c:	4b01      	ldr	r3, [pc, #4]	; (8002144 <IBUS_GetDataPtr+0xc>)
}
 800213e:	0018      	movs	r0, r3
 8002140:	46bd      	mov	sp, r7
 8002142:	bd80      	pop	{r7, pc}
 8002144:	20000360 	.word	0x20000360

08002148 <IBUS_Truncate>:
/*
 * PRIVATE FUNCTIONS
 */

uint16_t IBUS_Truncate (uint16_t r)
{
 8002148:	b580      	push	{r7, lr}
 800214a:	b084      	sub	sp, #16
 800214c:	af00      	add	r7, sp, #0
 800214e:	0002      	movs	r2, r0
 8002150:	1dbb      	adds	r3, r7, #6
 8002152:	801a      	strh	r2, [r3, #0]
	uint16_t retVal = 0;
 8002154:	210e      	movs	r1, #14
 8002156:	187b      	adds	r3, r7, r1
 8002158:	2200      	movs	r2, #0
 800215a:	801a      	strh	r2, [r3, #0]

	if (r == 0) {
 800215c:	1dbb      	adds	r3, r7, #6
 800215e:	881b      	ldrh	r3, [r3, #0]
 8002160:	2b00      	cmp	r3, #0
 8002162:	d103      	bne.n	800216c <IBUS_Truncate+0x24>
		retVal = 0;
 8002164:	187b      	adds	r3, r7, r1
 8002166:	2200      	movs	r2, #0
 8002168:	801a      	strh	r2, [r3, #0]
 800216a:	e031      	b.n	80021d0 <IBUS_Truncate+0x88>
	} else if (r < (IBUS_MIN - IBUS_THRESHOLD)) {
 800216c:	1dbb      	adds	r3, r7, #6
 800216e:	881a      	ldrh	r2, [r3, #0]
 8002170:	23fa      	movs	r3, #250	; 0xfa
 8002172:	005b      	lsls	r3, r3, #1
 8002174:	429a      	cmp	r2, r3
 8002176:	d204      	bcs.n	8002182 <IBUS_Truncate+0x3a>
		retVal = 0;
 8002178:	230e      	movs	r3, #14
 800217a:	18fb      	adds	r3, r7, r3
 800217c:	2200      	movs	r2, #0
 800217e:	801a      	strh	r2, [r3, #0]
 8002180:	e026      	b.n	80021d0 <IBUS_Truncate+0x88>
	} else if (r < IBUS_MIN) {
 8002182:	1dbb      	adds	r3, r7, #6
 8002184:	881a      	ldrh	r2, [r3, #0]
 8002186:	23fa      	movs	r3, #250	; 0xfa
 8002188:	009b      	lsls	r3, r3, #2
 800218a:	429a      	cmp	r2, r3
 800218c:	d205      	bcs.n	800219a <IBUS_Truncate+0x52>
		retVal = IBUS_MIN;
 800218e:	230e      	movs	r3, #14
 8002190:	18fb      	adds	r3, r7, r3
 8002192:	22fa      	movs	r2, #250	; 0xfa
 8002194:	0092      	lsls	r2, r2, #2
 8002196:	801a      	strh	r2, [r3, #0]
 8002198:	e01a      	b.n	80021d0 <IBUS_Truncate+0x88>
	} else if (r <= IBUS_MAX) {
 800219a:	1dbb      	adds	r3, r7, #6
 800219c:	881a      	ldrh	r2, [r3, #0]
 800219e:	23fa      	movs	r3, #250	; 0xfa
 80021a0:	00db      	lsls	r3, r3, #3
 80021a2:	429a      	cmp	r2, r3
 80021a4:	d805      	bhi.n	80021b2 <IBUS_Truncate+0x6a>
		retVal = r;
 80021a6:	230e      	movs	r3, #14
 80021a8:	18fb      	adds	r3, r7, r3
 80021aa:	1dba      	adds	r2, r7, #6
 80021ac:	8812      	ldrh	r2, [r2, #0]
 80021ae:	801a      	strh	r2, [r3, #0]
 80021b0:	e00e      	b.n	80021d0 <IBUS_Truncate+0x88>
	} else if (r < (IBUS_MAX + IBUS_THRESHOLD))	{
 80021b2:	1dbb      	adds	r3, r7, #6
 80021b4:	881b      	ldrh	r3, [r3, #0]
 80021b6:	4a0a      	ldr	r2, [pc, #40]	; (80021e0 <IBUS_Truncate+0x98>)
 80021b8:	4293      	cmp	r3, r2
 80021ba:	d805      	bhi.n	80021c8 <IBUS_Truncate+0x80>
		retVal = IBUS_MAX;
 80021bc:	230e      	movs	r3, #14
 80021be:	18fb      	adds	r3, r7, r3
 80021c0:	22fa      	movs	r2, #250	; 0xfa
 80021c2:	00d2      	lsls	r2, r2, #3
 80021c4:	801a      	strh	r2, [r3, #0]
 80021c6:	e003      	b.n	80021d0 <IBUS_Truncate+0x88>
	} else {
		retVal = 0;
 80021c8:	230e      	movs	r3, #14
 80021ca:	18fb      	adds	r3, r7, r3
 80021cc:	2200      	movs	r2, #0
 80021ce:	801a      	strh	r2, [r3, #0]
	}

	return retVal;
 80021d0:	230e      	movs	r3, #14
 80021d2:	18fb      	adds	r3, r7, r3
 80021d4:	881b      	ldrh	r3, [r3, #0]
}
 80021d6:	0018      	movs	r0, r3
 80021d8:	46bd      	mov	sp, r7
 80021da:	b004      	add	sp, #16
 80021dc:	bd80      	pop	{r7, pc}
 80021de:	46c0      	nop			; (mov r8, r8)
 80021e0:	000009c3 	.word	0x000009c3

080021e4 <IBUS_Checksum>:

bool IBUS_Checksum(uint8_t jitter)
{
 80021e4:	b580      	push	{r7, lr}
 80021e6:	b084      	sub	sp, #16
 80021e8:	af00      	add	r7, sp, #0
 80021ea:	0002      	movs	r2, r0
 80021ec:	1dfb      	adds	r3, r7, #7
 80021ee:	701a      	strb	r2, [r3, #0]
	bool retVal = false;
 80021f0:	230f      	movs	r3, #15
 80021f2:	18fb      	adds	r3, r7, r3
 80021f4:	2200      	movs	r2, #0
 80021f6:	701a      	strb	r2, [r3, #0]

	uint16_t cs = (int16_t)(rxIBUS[jitter][IBUS_CHECKSUM_INDEX] | rxIBUS[jitter][IBUS_CHECKSUM_INDEX + 1] << 8);
 80021f8:	1dfb      	adds	r3, r7, #7
 80021fa:	781b      	ldrb	r3, [r3, #0]
 80021fc:	4a25      	ldr	r2, [pc, #148]	; (8002294 <IBUS_Checksum+0xb0>)
 80021fe:	015b      	lsls	r3, r3, #5
 8002200:	18d3      	adds	r3, r2, r3
 8002202:	331e      	adds	r3, #30
 8002204:	781b      	ldrb	r3, [r3, #0]
 8002206:	b21a      	sxth	r2, r3
 8002208:	1dfb      	adds	r3, r7, #7
 800220a:	781b      	ldrb	r3, [r3, #0]
 800220c:	4921      	ldr	r1, [pc, #132]	; (8002294 <IBUS_Checksum+0xb0>)
 800220e:	015b      	lsls	r3, r3, #5
 8002210:	18cb      	adds	r3, r1, r3
 8002212:	331f      	adds	r3, #31
 8002214:	781b      	ldrb	r3, [r3, #0]
 8002216:	021b      	lsls	r3, r3, #8
 8002218:	b21b      	sxth	r3, r3
 800221a:	4313      	orrs	r3, r2
 800221c:	b21a      	sxth	r2, r3
 800221e:	2308      	movs	r3, #8
 8002220:	18fb      	adds	r3, r7, r3
 8002222:	801a      	strh	r2, [r3, #0]
	uint16_t check = IBUS_CHECKSUM_START;
 8002224:	230c      	movs	r3, #12
 8002226:	18fb      	adds	r3, r7, r3
 8002228:	2201      	movs	r2, #1
 800222a:	4252      	negs	r2, r2
 800222c:	801a      	strh	r2, [r3, #0]
	for (uint8_t i = 0 ; i < (IBUS_PAYLOAD_LEN - IBUS_CHECKSUM_LEN); i++)
 800222e:	230b      	movs	r3, #11
 8002230:	18fb      	adds	r3, r7, r3
 8002232:	2200      	movs	r2, #0
 8002234:	701a      	strb	r2, [r3, #0]
 8002236:	e014      	b.n	8002262 <IBUS_Checksum+0x7e>
	{
		check -= rxIBUS[jitter][i];
 8002238:	1dfb      	adds	r3, r7, #7
 800223a:	781a      	ldrb	r2, [r3, #0]
 800223c:	200b      	movs	r0, #11
 800223e:	183b      	adds	r3, r7, r0
 8002240:	781b      	ldrb	r3, [r3, #0]
 8002242:	4914      	ldr	r1, [pc, #80]	; (8002294 <IBUS_Checksum+0xb0>)
 8002244:	0152      	lsls	r2, r2, #5
 8002246:	188a      	adds	r2, r1, r2
 8002248:	5cd3      	ldrb	r3, [r2, r3]
 800224a:	b29a      	uxth	r2, r3
 800224c:	210c      	movs	r1, #12
 800224e:	187b      	adds	r3, r7, r1
 8002250:	1879      	adds	r1, r7, r1
 8002252:	8809      	ldrh	r1, [r1, #0]
 8002254:	1a8a      	subs	r2, r1, r2
 8002256:	801a      	strh	r2, [r3, #0]
	for (uint8_t i = 0 ; i < (IBUS_PAYLOAD_LEN - IBUS_CHECKSUM_LEN); i++)
 8002258:	183b      	adds	r3, r7, r0
 800225a:	781a      	ldrb	r2, [r3, #0]
 800225c:	183b      	adds	r3, r7, r0
 800225e:	3201      	adds	r2, #1
 8002260:	701a      	strb	r2, [r3, #0]
 8002262:	230b      	movs	r3, #11
 8002264:	18fb      	adds	r3, r7, r3
 8002266:	781b      	ldrb	r3, [r3, #0]
 8002268:	2b1d      	cmp	r3, #29
 800226a:	d9e5      	bls.n	8002238 <IBUS_Checksum+0x54>
	}

	if (cs == check) { retVal = true; }
 800226c:	2308      	movs	r3, #8
 800226e:	18fa      	adds	r2, r7, r3
 8002270:	230c      	movs	r3, #12
 8002272:	18fb      	adds	r3, r7, r3
 8002274:	8812      	ldrh	r2, [r2, #0]
 8002276:	881b      	ldrh	r3, [r3, #0]
 8002278:	429a      	cmp	r2, r3
 800227a:	d103      	bne.n	8002284 <IBUS_Checksum+0xa0>
 800227c:	230f      	movs	r3, #15
 800227e:	18fb      	adds	r3, r7, r3
 8002280:	2201      	movs	r2, #1
 8002282:	701a      	strb	r2, [r3, #0]

	return retVal;
 8002284:	230f      	movs	r3, #15
 8002286:	18fb      	adds	r3, r7, r3
 8002288:	781b      	ldrb	r3, [r3, #0]
}
 800228a:	0018      	movs	r0, r3
 800228c:	46bd      	mov	sp, r7
 800228e:	b004      	add	sp, #16
 8002290:	bd80      	pop	{r7, pc}
 8002292:	46c0      	nop			; (mov r8, r8)
 8002294:	200002fc 	.word	0x200002fc

08002298 <IBUS_HandleUART>:

void IBUS_HandleUART (void)
{
 8002298:	b580      	push	{r7, lr}
 800229a:	af00      	add	r7, sp, #0
	static uint8_t jitter = 0;			// Jitter-Smoothing Array Index

	while (UART_ReadCount(IBUS_UART) >= IBUS_PAYLOAD_LEN)
 800229c:	e04a      	b.n	8002334 <IBUS_HandleUART+0x9c>
	{
		UART_Read(IBUS_UART, &rxIBUS[jitter][IBUS_HEADER1_INDEX], IBUS_HEADER1_LEN);
 800229e:	4b2b      	ldr	r3, [pc, #172]	; (800234c <IBUS_HandleUART+0xb4>)
 80022a0:	6818      	ldr	r0, [r3, #0]
 80022a2:	4b2b      	ldr	r3, [pc, #172]	; (8002350 <IBUS_HandleUART+0xb8>)
 80022a4:	781b      	ldrb	r3, [r3, #0]
 80022a6:	015a      	lsls	r2, r3, #5
 80022a8:	4b2a      	ldr	r3, [pc, #168]	; (8002354 <IBUS_HandleUART+0xbc>)
 80022aa:	18d3      	adds	r3, r2, r3
 80022ac:	2201      	movs	r2, #1
 80022ae:	0019      	movs	r1, r3
 80022b0:	f002 fbc5 	bl	8004a3e <UART_Read>
		if (rxIBUS[jitter][IBUS_HEADER1_INDEX] == IBUS_HEADER1)
 80022b4:	4b26      	ldr	r3, [pc, #152]	; (8002350 <IBUS_HandleUART+0xb8>)
 80022b6:	781b      	ldrb	r3, [r3, #0]
 80022b8:	001a      	movs	r2, r3
 80022ba:	4b26      	ldr	r3, [pc, #152]	; (8002354 <IBUS_HandleUART+0xbc>)
 80022bc:	0152      	lsls	r2, r2, #5
 80022be:	5cd3      	ldrb	r3, [r2, r3]
 80022c0:	2b20      	cmp	r3, #32
 80022c2:	d137      	bne.n	8002334 <IBUS_HandleUART+0x9c>
		{
			UART_Read(IBUS_UART, &rxIBUS[jitter][IBUS_HEADER2_INDEX], IBUS_HEADER2_LEN);
 80022c4:	4b21      	ldr	r3, [pc, #132]	; (800234c <IBUS_HandleUART+0xb4>)
 80022c6:	6818      	ldr	r0, [r3, #0]
 80022c8:	4b21      	ldr	r3, [pc, #132]	; (8002350 <IBUS_HandleUART+0xb8>)
 80022ca:	781b      	ldrb	r3, [r3, #0]
 80022cc:	015b      	lsls	r3, r3, #5
 80022ce:	1c5a      	adds	r2, r3, #1
 80022d0:	4b20      	ldr	r3, [pc, #128]	; (8002354 <IBUS_HandleUART+0xbc>)
 80022d2:	18d3      	adds	r3, r2, r3
 80022d4:	2201      	movs	r2, #1
 80022d6:	0019      	movs	r1, r3
 80022d8:	f002 fbb1 	bl	8004a3e <UART_Read>
			if (rxIBUS[jitter][IBUS_HEADER2_INDEX] == IBUS_HEADER2)
 80022dc:	4b1c      	ldr	r3, [pc, #112]	; (8002350 <IBUS_HandleUART+0xb8>)
 80022de:	781b      	ldrb	r3, [r3, #0]
 80022e0:	4a1c      	ldr	r2, [pc, #112]	; (8002354 <IBUS_HandleUART+0xbc>)
 80022e2:	015b      	lsls	r3, r3, #5
 80022e4:	18d3      	adds	r3, r2, r3
 80022e6:	3301      	adds	r3, #1
 80022e8:	781b      	ldrb	r3, [r3, #0]
 80022ea:	2b40      	cmp	r3, #64	; 0x40
 80022ec:	d122      	bne.n	8002334 <IBUS_HandleUART+0x9c>
			{
				// Read Channel Data
				UART_Read(IBUS_UART, &rxIBUS[jitter][IBUS_DATA_INDEX], (IBUS_PAYLOAD_LEN - IBUS_HEADER1_LEN - IBUS_HEADER2_LEN));
 80022ee:	4b17      	ldr	r3, [pc, #92]	; (800234c <IBUS_HandleUART+0xb4>)
 80022f0:	6818      	ldr	r0, [r3, #0]
 80022f2:	4b17      	ldr	r3, [pc, #92]	; (8002350 <IBUS_HandleUART+0xb8>)
 80022f4:	781b      	ldrb	r3, [r3, #0]
 80022f6:	015b      	lsls	r3, r3, #5
 80022f8:	1c9a      	adds	r2, r3, #2
 80022fa:	4b16      	ldr	r3, [pc, #88]	; (8002354 <IBUS_HandleUART+0xbc>)
 80022fc:	18d3      	adds	r3, r2, r3
 80022fe:	221e      	movs	r2, #30
 8002300:	0019      	movs	r1, r3
 8002302:	f002 fb9c 	bl	8004a3e <UART_Read>
				// Verify the Checksum
				if (IBUS_Checksum(jitter)) {
 8002306:	4b12      	ldr	r3, [pc, #72]	; (8002350 <IBUS_HandleUART+0xb8>)
 8002308:	781b      	ldrb	r3, [r3, #0]
 800230a:	0018      	movs	r0, r3
 800230c:	f7ff ff6a 	bl	80021e4 <IBUS_Checksum>
 8002310:	1e03      	subs	r3, r0, #0
 8002312:	d00f      	beq.n	8002334 <IBUS_HandleUART+0x9c>
					// Kick Heartbeat
					rxHeartbeatIBUS = true;
 8002314:	4b10      	ldr	r3, [pc, #64]	; (8002358 <IBUS_HandleUART+0xc0>)
 8002316:	2201      	movs	r2, #1
 8002318:	701a      	strb	r2, [r3, #0]
					//Increment Jitter Array Index
					jitter += 1;
 800231a:	4b0d      	ldr	r3, [pc, #52]	; (8002350 <IBUS_HandleUART+0xb8>)
 800231c:	781b      	ldrb	r3, [r3, #0]
 800231e:	3301      	adds	r3, #1
 8002320:	b2da      	uxtb	r2, r3
 8002322:	4b0b      	ldr	r3, [pc, #44]	; (8002350 <IBUS_HandleUART+0xb8>)
 8002324:	701a      	strb	r2, [r3, #0]
					if (jitter >= IBUS_JITTER_ARRAY) { jitter = 0; }
 8002326:	4b0a      	ldr	r3, [pc, #40]	; (8002350 <IBUS_HandleUART+0xb8>)
 8002328:	781b      	ldrb	r3, [r3, #0]
 800232a:	2b02      	cmp	r3, #2
 800232c:	d902      	bls.n	8002334 <IBUS_HandleUART+0x9c>
 800232e:	4b08      	ldr	r3, [pc, #32]	; (8002350 <IBUS_HandleUART+0xb8>)
 8002330:	2200      	movs	r2, #0
 8002332:	701a      	strb	r2, [r3, #0]
	while (UART_ReadCount(IBUS_UART) >= IBUS_PAYLOAD_LEN)
 8002334:	4b05      	ldr	r3, [pc, #20]	; (800234c <IBUS_HandleUART+0xb4>)
 8002336:	681b      	ldr	r3, [r3, #0]
 8002338:	0018      	movs	r0, r3
 800233a:	f002 fb53 	bl	80049e4 <UART_ReadCount>
 800233e:	0003      	movs	r3, r0
 8002340:	2b1f      	cmp	r3, #31
 8002342:	d8ac      	bhi.n	800229e <IBUS_HandleUART+0x6>
				}
			}
		}
	}
}
 8002344:	46c0      	nop			; (mov r8, r8)
 8002346:	46c0      	nop			; (mov r8, r8)
 8002348:	46bd      	mov	sp, r7
 800234a:	bd80      	pop	{r7, pc}
 800234c:	2000028c 	.word	0x2000028c
 8002350:	20000384 	.word	0x20000384
 8002354:	200002fc 	.word	0x200002fc
 8002358:	2000035c 	.word	0x2000035c

0800235c <CORE_GetTick>:
{
 800235c:	b580      	push	{r7, lr}
 800235e:	af00      	add	r7, sp, #0
	return gTicks;
 8002360:	4b02      	ldr	r3, [pc, #8]	; (800236c <CORE_GetTick+0x10>)
 8002362:	681b      	ldr	r3, [r3, #0]
}
 8002364:	0018      	movs	r0, r3
 8002366:	46bd      	mov	sp, r7
 8002368:	bd80      	pop	{r7, pc}
 800236a:	46c0      	nop			; (mov r8, r8)
 800236c:	200004a8 	.word	0x200004a8

08002370 <GPIO_EnableInput>:
{
 8002370:	b580      	push	{r7, lr}
 8002372:	b084      	sub	sp, #16
 8002374:	af00      	add	r7, sp, #0
 8002376:	60f8      	str	r0, [r7, #12]
 8002378:	60b9      	str	r1, [r7, #8]
 800237a:	1dfb      	adds	r3, r7, #7
 800237c:	701a      	strb	r2, [r3, #0]
	GPIO_Init(gpio, pin, GPIO_Mode_Input | pull);
 800237e:	1dfb      	adds	r3, r7, #7
 8002380:	781b      	ldrb	r3, [r3, #0]
 8002382:	b29a      	uxth	r2, r3
 8002384:	68b9      	ldr	r1, [r7, #8]
 8002386:	68fb      	ldr	r3, [r7, #12]
 8002388:	0018      	movs	r0, r3
 800238a:	f001 fd37 	bl	8003dfc <GPIO_Init>
}
 800238e:	46c0      	nop			; (mov r8, r8)
 8002390:	46bd      	mov	sp, r7
 8002392:	b004      	add	sp, #16
 8002394:	bd80      	pop	{r7, pc}

08002396 <GPIO_Deinit>:
{
 8002396:	b580      	push	{r7, lr}
 8002398:	b082      	sub	sp, #8
 800239a:	af00      	add	r7, sp, #0
 800239c:	6078      	str	r0, [r7, #4]
 800239e:	6039      	str	r1, [r7, #0]
	GPIO_Init(gpio, pin, GPIO_Mode_Analog);
 80023a0:	6839      	ldr	r1, [r7, #0]
 80023a2:	687b      	ldr	r3, [r7, #4]
 80023a4:	2203      	movs	r2, #3
 80023a6:	0018      	movs	r0, r3
 80023a8:	f001 fd28 	bl	8003dfc <GPIO_Init>
}
 80023ac:	46c0      	nop			; (mov r8, r8)
 80023ae:	46bd      	mov	sp, r7
 80023b0:	b002      	add	sp, #8
 80023b2:	bd80      	pop	{r7, pc}

080023b4 <TIM_Read>:
/*
 * INLINE FUNCTION DEFINITIONS
 */

static inline uint32_t TIM_Read(TIM_t * tim)
{
 80023b4:	b580      	push	{r7, lr}
 80023b6:	b082      	sub	sp, #8
 80023b8:	af00      	add	r7, sp, #0
 80023ba:	6078      	str	r0, [r7, #4]
	return tim->Instance->CNT;
 80023bc:	687b      	ldr	r3, [r7, #4]
 80023be:	681b      	ldr	r3, [r3, #0]
 80023c0:	6a5b      	ldr	r3, [r3, #36]	; 0x24
}
 80023c2:	0018      	movs	r0, r3
 80023c4:	46bd      	mov	sp, r7
 80023c6:	b002      	add	sp, #8
 80023c8:	bd80      	pop	{r7, pc}
	...

080023cc <PPM_Init>:

	return rxHeartbeatPPM;
}

void PPM_Init (void)
{
 80023cc:	b580      	push	{r7, lr}
 80023ce:	af00      	add	r7, sp, #0
	PPM_memset();
 80023d0:	f000 f922 	bl	8002618 <PPM_memset>

	TIM_Init(PPM_TIM, PPM_TIM_FREQ, PPM_TIM_RELOAD);
 80023d4:	4b0e      	ldr	r3, [pc, #56]	; (8002410 <PPM_Init+0x44>)
 80023d6:	681b      	ldr	r3, [r3, #0]
 80023d8:	4a0e      	ldr	r2, [pc, #56]	; (8002414 <PPM_Init+0x48>)
 80023da:	490f      	ldr	r1, [pc, #60]	; (8002418 <PPM_Init+0x4c>)
 80023dc:	0018      	movs	r0, r3
 80023de:	f001 fedf 	bl	80041a0 <TIM_Init>
	TIM_Start(PPM_TIM);
 80023e2:	4b0b      	ldr	r3, [pc, #44]	; (8002410 <PPM_Init+0x44>)
 80023e4:	681b      	ldr	r3, [r3, #0]
 80023e6:	0018      	movs	r0, r3
 80023e8:	f001 ffae 	bl	8004348 <TIM_Start>

	GPIO_EnableInput(PPM_GPIO, PPM_PIN, GPIO_Pull_Down);
 80023ec:	2380      	movs	r3, #128	; 0x80
 80023ee:	011b      	lsls	r3, r3, #4
 80023f0:	480a      	ldr	r0, [pc, #40]	; (800241c <PPM_Init+0x50>)
 80023f2:	2220      	movs	r2, #32
 80023f4:	0019      	movs	r1, r3
 80023f6:	f7ff ffbb 	bl	8002370 <GPIO_EnableInput>
	GPIO_OnChange(PPM_GPIO, PPM_PIN, GPIO_IT_Rising, PPM_IRQ);
 80023fa:	4b09      	ldr	r3, [pc, #36]	; (8002420 <PPM_Init+0x54>)
 80023fc:	2280      	movs	r2, #128	; 0x80
 80023fe:	0111      	lsls	r1, r2, #4
 8002400:	4806      	ldr	r0, [pc, #24]	; (800241c <PPM_Init+0x50>)
 8002402:	2201      	movs	r2, #1
 8002404:	f001 fcce 	bl	8003da4 <GPIO_OnChange>
}
 8002408:	46c0      	nop			; (mov r8, r8)
 800240a:	46bd      	mov	sp, r7
 800240c:	bd80      	pop	{r7, pc}
 800240e:	46c0      	nop			; (mov r8, r8)
 8002410:	2000003c 	.word	0x2000003c
 8002414:	000f4240 	.word	0x000f4240
 8002418:	0000ffff 	.word	0x0000ffff
 800241c:	50000400 	.word	0x50000400
 8002420:	08002675 	.word	0x08002675

08002424 <PPM_Deinit>:

void PPM_Deinit (void)
{
 8002424:	b580      	push	{r7, lr}
 8002426:	af00      	add	r7, sp, #0
	TIM_Deinit(PPM_TIM);
 8002428:	4b0a      	ldr	r3, [pc, #40]	; (8002454 <PPM_Deinit+0x30>)
 800242a:	681b      	ldr	r3, [r3, #0]
 800242c:	0018      	movs	r0, r3
 800242e:	f001 ffb7 	bl	80043a0 <TIM_Deinit>

	GPIO_OnChange(PPM_GPIO, PPM_PIN, GPIO_IT_None, NULL);
 8002432:	2380      	movs	r3, #128	; 0x80
 8002434:	0119      	lsls	r1, r3, #4
 8002436:	4808      	ldr	r0, [pc, #32]	; (8002458 <PPM_Deinit+0x34>)
 8002438:	2300      	movs	r3, #0
 800243a:	2200      	movs	r2, #0
 800243c:	f001 fcb2 	bl	8003da4 <GPIO_OnChange>
	GPIO_Deinit(PPM_GPIO, PPM_PIN);
 8002440:	2380      	movs	r3, #128	; 0x80
 8002442:	011b      	lsls	r3, r3, #4
 8002444:	4a04      	ldr	r2, [pc, #16]	; (8002458 <PPM_Deinit+0x34>)
 8002446:	0019      	movs	r1, r3
 8002448:	0010      	movs	r0, r2
 800244a:	f7ff ffa4 	bl	8002396 <GPIO_Deinit>
}
 800244e:	46c0      	nop			; (mov r8, r8)
 8002450:	46bd      	mov	sp, r7
 8002452:	bd80      	pop	{r7, pc}
 8002454:	2000003c 	.word	0x2000003c
 8002458:	50000400 	.word	0x50000400

0800245c <PPM_Update>:

void PPM_Update (void)
{
 800245c:	b590      	push	{r4, r7, lr}
 800245e:	b087      	sub	sp, #28
 8002460:	af00      	add	r7, sp, #0
	uint32_t now = CORE_GetTick();
 8002462:	f7ff ff7b 	bl	800235c <CORE_GetTick>
 8002466:	0003      	movs	r3, r0
 8002468:	60bb      	str	r3, [r7, #8]
	static uint32_t prev = 0;

	// Check for New Input Data
	if (rxHeartbeatPPM)
 800246a:	4b3c      	ldr	r3, [pc, #240]	; (800255c <PPM_Update+0x100>)
 800246c:	781b      	ldrb	r3, [r3, #0]
 800246e:	b2db      	uxtb	r3, r3
 8002470:	2b00      	cmp	r3, #0
 8002472:	d05f      	beq.n	8002534 <PPM_Update+0xd8>
	{
		// Average and Assign Input to data Struct
		for (uint8_t j = 0; j < PPM_NUM_CHANNELS; j++)
 8002474:	2317      	movs	r3, #23
 8002476:	18fb      	adds	r3, r7, r3
 8002478:	2200      	movs	r2, #0
 800247a:	701a      	strb	r2, [r3, #0]
 800247c:	e04f      	b.n	800251e <PPM_Update+0xc2>
		{
			uint8_t avg = 0;
 800247e:	2316      	movs	r3, #22
 8002480:	18fb      	adds	r3, r7, r3
 8002482:	2200      	movs	r2, #0
 8002484:	701a      	strb	r2, [r3, #0]
			uint32_t ch = 0;
 8002486:	2300      	movs	r3, #0
 8002488:	613b      	str	r3, [r7, #16]
			for (uint8_t i = 0; i < PPM_JITTER_ARRAY; i++)
 800248a:	230f      	movs	r3, #15
 800248c:	18fb      	adds	r3, r7, r3
 800248e:	2200      	movs	r2, #0
 8002490:	701a      	strb	r2, [r3, #0]
 8002492:	e026      	b.n	80024e2 <PPM_Update+0x86>
			{
				uint16_t trunc = PPM_Truncate(rxPPM[i][j]);
 8002494:	230f      	movs	r3, #15
 8002496:	18fb      	adds	r3, r7, r3
 8002498:	7819      	ldrb	r1, [r3, #0]
 800249a:	2317      	movs	r3, #23
 800249c:	18fb      	adds	r3, r7, r3
 800249e:	781a      	ldrb	r2, [r3, #0]
 80024a0:	4b2f      	ldr	r3, [pc, #188]	; (8002560 <PPM_Update+0x104>)
 80024a2:	00c9      	lsls	r1, r1, #3
 80024a4:	188a      	adds	r2, r1, r2
 80024a6:	0052      	lsls	r2, r2, #1
 80024a8:	5ad3      	ldrh	r3, [r2, r3]
 80024aa:	b29b      	uxth	r3, r3
 80024ac:	1dbc      	adds	r4, r7, #6
 80024ae:	0018      	movs	r0, r3
 80024b0:	f000 f864 	bl	800257c <PPM_Truncate>
 80024b4:	0003      	movs	r3, r0
 80024b6:	8023      	strh	r3, [r4, #0]
				if (trunc != 0)
 80024b8:	1dbb      	adds	r3, r7, #6
 80024ba:	881b      	ldrh	r3, [r3, #0]
 80024bc:	2b00      	cmp	r3, #0
 80024be:	d00a      	beq.n	80024d6 <PPM_Update+0x7a>
				{
					ch += trunc;
 80024c0:	1dbb      	adds	r3, r7, #6
 80024c2:	881b      	ldrh	r3, [r3, #0]
 80024c4:	693a      	ldr	r2, [r7, #16]
 80024c6:	18d3      	adds	r3, r2, r3
 80024c8:	613b      	str	r3, [r7, #16]
					avg += 1;
 80024ca:	2216      	movs	r2, #22
 80024cc:	18bb      	adds	r3, r7, r2
 80024ce:	18ba      	adds	r2, r7, r2
 80024d0:	7812      	ldrb	r2, [r2, #0]
 80024d2:	3201      	adds	r2, #1
 80024d4:	701a      	strb	r2, [r3, #0]
			for (uint8_t i = 0; i < PPM_JITTER_ARRAY; i++)
 80024d6:	210f      	movs	r1, #15
 80024d8:	187b      	adds	r3, r7, r1
 80024da:	781a      	ldrb	r2, [r3, #0]
 80024dc:	187b      	adds	r3, r7, r1
 80024de:	3201      	adds	r2, #1
 80024e0:	701a      	strb	r2, [r3, #0]
 80024e2:	230f      	movs	r3, #15
 80024e4:	18fb      	adds	r3, r7, r3
 80024e6:	781b      	ldrb	r3, [r3, #0]
 80024e8:	2b02      	cmp	r3, #2
 80024ea:	d9d3      	bls.n	8002494 <PPM_Update+0x38>
				}
			}
			ch /= avg;
 80024ec:	2316      	movs	r3, #22
 80024ee:	18fb      	adds	r3, r7, r3
 80024f0:	781b      	ldrb	r3, [r3, #0]
 80024f2:	0019      	movs	r1, r3
 80024f4:	6938      	ldr	r0, [r7, #16]
 80024f6:	f7fd fe07 	bl	8000108 <__udivsi3>
 80024fa:	0003      	movs	r3, r0
 80024fc:	613b      	str	r3, [r7, #16]
			dataPPM.ch[j] = ch;
 80024fe:	2017      	movs	r0, #23
 8002500:	183b      	adds	r3, r7, r0
 8002502:	781b      	ldrb	r3, [r3, #0]
 8002504:	693a      	ldr	r2, [r7, #16]
 8002506:	b211      	sxth	r1, r2
 8002508:	4a16      	ldr	r2, [pc, #88]	; (8002564 <PPM_Update+0x108>)
 800250a:	005b      	lsls	r3, r3, #1
 800250c:	18d3      	adds	r3, r2, r3
 800250e:	3302      	adds	r3, #2
 8002510:	1c0a      	adds	r2, r1, #0
 8002512:	801a      	strh	r2, [r3, #0]
		for (uint8_t j = 0; j < PPM_NUM_CHANNELS; j++)
 8002514:	183b      	adds	r3, r7, r0
 8002516:	781a      	ldrb	r2, [r3, #0]
 8002518:	183b      	adds	r3, r7, r0
 800251a:	3201      	adds	r2, #1
 800251c:	701a      	strb	r2, [r3, #0]
 800251e:	2317      	movs	r3, #23
 8002520:	18fb      	adds	r3, r7, r3
 8002522:	781b      	ldrb	r3, [r3, #0]
 8002524:	2b07      	cmp	r3, #7
 8002526:	d9aa      	bls.n	800247e <PPM_Update+0x22>
		}
		rxHeartbeatPPM = false;
 8002528:	4b0c      	ldr	r3, [pc, #48]	; (800255c <PPM_Update+0x100>)
 800252a:	2200      	movs	r2, #0
 800252c:	701a      	strb	r2, [r3, #0]
		prev = now;
 800252e:	4b0e      	ldr	r3, [pc, #56]	; (8002568 <PPM_Update+0x10c>)
 8002530:	68ba      	ldr	r2, [r7, #8]
 8002532:	601a      	str	r2, [r3, #0]
	}

	// Check for Input Failsafe
	if (PPM_TIMEOUT <= (now - prev)) {
 8002534:	4b0c      	ldr	r3, [pc, #48]	; (8002568 <PPM_Update+0x10c>)
 8002536:	681b      	ldr	r3, [r3, #0]
 8002538:	68ba      	ldr	r2, [r7, #8]
 800253a:	1ad3      	subs	r3, r2, r3
 800253c:	2b3b      	cmp	r3, #59	; 0x3b
 800253e:	d905      	bls.n	800254c <PPM_Update+0xf0>
		dataPPM.inputLost = true;
 8002540:	4b08      	ldr	r3, [pc, #32]	; (8002564 <PPM_Update+0x108>)
 8002542:	2201      	movs	r2, #1
 8002544:	701a      	strb	r2, [r3, #0]
		PPM_memset();
 8002546:	f000 f867 	bl	8002618 <PPM_memset>
	} else {
		dataPPM.inputLost = false;
	}
}
 800254a:	e002      	b.n	8002552 <PPM_Update+0xf6>
		dataPPM.inputLost = false;
 800254c:	4b05      	ldr	r3, [pc, #20]	; (8002564 <PPM_Update+0x108>)
 800254e:	2200      	movs	r2, #0
 8002550:	701a      	strb	r2, [r3, #0]
}
 8002552:	46c0      	nop			; (mov r8, r8)
 8002554:	46bd      	mov	sp, r7
 8002556:	b007      	add	sp, #28
 8002558:	bd90      	pop	{r4, r7, pc}
 800255a:	46c0      	nop			; (mov r8, r8)
 800255c:	200003b8 	.word	0x200003b8
 8002560:	20000388 	.word	0x20000388
 8002564:	200003bc 	.word	0x200003bc
 8002568:	200003d0 	.word	0x200003d0

0800256c <PPM_GetDataPtr>:

PPM_Data* PPM_GetDataPtr (void)
{
 800256c:	b580      	push	{r7, lr}
 800256e:	af00      	add	r7, sp, #0
	return &dataPPM;
 8002570:	4b01      	ldr	r3, [pc, #4]	; (8002578 <PPM_GetDataPtr+0xc>)
}
 8002572:	0018      	movs	r0, r3
 8002574:	46bd      	mov	sp, r7
 8002576:	bd80      	pop	{r7, pc}
 8002578:	200003bc 	.word	0x200003bc

0800257c <PPM_Truncate>:
/*
 * PRIVATE FUNCTIONS
 */

uint16_t PPM_Truncate (uint16_t r)
{
 800257c:	b580      	push	{r7, lr}
 800257e:	b084      	sub	sp, #16
 8002580:	af00      	add	r7, sp, #0
 8002582:	0002      	movs	r2, r0
 8002584:	1dbb      	adds	r3, r7, #6
 8002586:	801a      	strh	r2, [r3, #0]
	uint16_t retVal = 0;
 8002588:	210e      	movs	r1, #14
 800258a:	187b      	adds	r3, r7, r1
 800258c:	2200      	movs	r2, #0
 800258e:	801a      	strh	r2, [r3, #0]

	if (r == 0) {
 8002590:	1dbb      	adds	r3, r7, #6
 8002592:	881b      	ldrh	r3, [r3, #0]
 8002594:	2b00      	cmp	r3, #0
 8002596:	d103      	bne.n	80025a0 <PPM_Truncate+0x24>
		retVal = 0;
 8002598:	187b      	adds	r3, r7, r1
 800259a:	2200      	movs	r2, #0
 800259c:	801a      	strh	r2, [r3, #0]
 800259e:	e031      	b.n	8002604 <PPM_Truncate+0x88>
	} else if (r < (PPM_MIN - PPM_THRESHOLD)) {
 80025a0:	1dbb      	adds	r3, r7, #6
 80025a2:	881a      	ldrh	r2, [r3, #0]
 80025a4:	23fa      	movs	r3, #250	; 0xfa
 80025a6:	005b      	lsls	r3, r3, #1
 80025a8:	429a      	cmp	r2, r3
 80025aa:	d204      	bcs.n	80025b6 <PPM_Truncate+0x3a>
		retVal = 0;
 80025ac:	230e      	movs	r3, #14
 80025ae:	18fb      	adds	r3, r7, r3
 80025b0:	2200      	movs	r2, #0
 80025b2:	801a      	strh	r2, [r3, #0]
 80025b4:	e026      	b.n	8002604 <PPM_Truncate+0x88>
	} else if (r < PPM_MIN) {
 80025b6:	1dbb      	adds	r3, r7, #6
 80025b8:	881a      	ldrh	r2, [r3, #0]
 80025ba:	23fa      	movs	r3, #250	; 0xfa
 80025bc:	009b      	lsls	r3, r3, #2
 80025be:	429a      	cmp	r2, r3
 80025c0:	d205      	bcs.n	80025ce <PPM_Truncate+0x52>
		retVal = PPM_MIN;
 80025c2:	230e      	movs	r3, #14
 80025c4:	18fb      	adds	r3, r7, r3
 80025c6:	22fa      	movs	r2, #250	; 0xfa
 80025c8:	0092      	lsls	r2, r2, #2
 80025ca:	801a      	strh	r2, [r3, #0]
 80025cc:	e01a      	b.n	8002604 <PPM_Truncate+0x88>
	} else if (r <= PPM_MAX) {
 80025ce:	1dbb      	adds	r3, r7, #6
 80025d0:	881a      	ldrh	r2, [r3, #0]
 80025d2:	23fa      	movs	r3, #250	; 0xfa
 80025d4:	00db      	lsls	r3, r3, #3
 80025d6:	429a      	cmp	r2, r3
 80025d8:	d805      	bhi.n	80025e6 <PPM_Truncate+0x6a>
		retVal = r;
 80025da:	230e      	movs	r3, #14
 80025dc:	18fb      	adds	r3, r7, r3
 80025de:	1dba      	adds	r2, r7, #6
 80025e0:	8812      	ldrh	r2, [r2, #0]
 80025e2:	801a      	strh	r2, [r3, #0]
 80025e4:	e00e      	b.n	8002604 <PPM_Truncate+0x88>
	} else if (r < (PPM_MAX + PPM_THRESHOLD))	{
 80025e6:	1dbb      	adds	r3, r7, #6
 80025e8:	881b      	ldrh	r3, [r3, #0]
 80025ea:	4a0a      	ldr	r2, [pc, #40]	; (8002614 <PPM_Truncate+0x98>)
 80025ec:	4293      	cmp	r3, r2
 80025ee:	d805      	bhi.n	80025fc <PPM_Truncate+0x80>
		retVal = PPM_MAX;
 80025f0:	230e      	movs	r3, #14
 80025f2:	18fb      	adds	r3, r7, r3
 80025f4:	22fa      	movs	r2, #250	; 0xfa
 80025f6:	00d2      	lsls	r2, r2, #3
 80025f8:	801a      	strh	r2, [r3, #0]
 80025fa:	e003      	b.n	8002604 <PPM_Truncate+0x88>
	} else {
		retVal = 0;
 80025fc:	230e      	movs	r3, #14
 80025fe:	18fb      	adds	r3, r7, r3
 8002600:	2200      	movs	r2, #0
 8002602:	801a      	strh	r2, [r3, #0]
	}

	return retVal;
 8002604:	230e      	movs	r3, #14
 8002606:	18fb      	adds	r3, r7, r3
 8002608:	881b      	ldrh	r3, [r3, #0]
}
 800260a:	0018      	movs	r0, r3
 800260c:	46bd      	mov	sp, r7
 800260e:	b004      	add	sp, #16
 8002610:	bd80      	pop	{r7, pc}
 8002612:	46c0      	nop			; (mov r8, r8)
 8002614:	000009c3 	.word	0x000009c3

08002618 <PPM_memset>:

void PPM_memset (void)
{
 8002618:	b580      	push	{r7, lr}
 800261a:	b082      	sub	sp, #8
 800261c:	af00      	add	r7, sp, #0
	for (uint8_t j = 0; j < PPM_NUM_CHANNELS; j++)
 800261e:	1dfb      	adds	r3, r7, #7
 8002620:	2200      	movs	r2, #0
 8002622:	701a      	strb	r2, [r3, #0]
 8002624:	e01b      	b.n	800265e <PPM_memset+0x46>
	{
		for (uint8_t i = 0; i < PPM_JITTER_ARRAY; i++)
 8002626:	1dbb      	adds	r3, r7, #6
 8002628:	2200      	movs	r2, #0
 800262a:	701a      	strb	r2, [r3, #0]
 800262c:	e00e      	b.n	800264c <PPM_memset+0x34>
		{
			rxPPM[i][j] = 0;
 800262e:	1dbb      	adds	r3, r7, #6
 8002630:	7819      	ldrb	r1, [r3, #0]
 8002632:	1dfb      	adds	r3, r7, #7
 8002634:	781a      	ldrb	r2, [r3, #0]
 8002636:	4b0e      	ldr	r3, [pc, #56]	; (8002670 <PPM_memset+0x58>)
 8002638:	00c9      	lsls	r1, r1, #3
 800263a:	188a      	adds	r2, r1, r2
 800263c:	0052      	lsls	r2, r2, #1
 800263e:	2100      	movs	r1, #0
 8002640:	52d1      	strh	r1, [r2, r3]
		for (uint8_t i = 0; i < PPM_JITTER_ARRAY; i++)
 8002642:	1dbb      	adds	r3, r7, #6
 8002644:	781a      	ldrb	r2, [r3, #0]
 8002646:	1dbb      	adds	r3, r7, #6
 8002648:	3201      	adds	r2, #1
 800264a:	701a      	strb	r2, [r3, #0]
 800264c:	1dbb      	adds	r3, r7, #6
 800264e:	781b      	ldrb	r3, [r3, #0]
 8002650:	2b02      	cmp	r3, #2
 8002652:	d9ec      	bls.n	800262e <PPM_memset+0x16>
	for (uint8_t j = 0; j < PPM_NUM_CHANNELS; j++)
 8002654:	1dfb      	adds	r3, r7, #7
 8002656:	781a      	ldrb	r2, [r3, #0]
 8002658:	1dfb      	adds	r3, r7, #7
 800265a:	3201      	adds	r2, #1
 800265c:	701a      	strb	r2, [r3, #0]
 800265e:	1dfb      	adds	r3, r7, #7
 8002660:	781b      	ldrb	r3, [r3, #0]
 8002662:	2b07      	cmp	r3, #7
 8002664:	d9df      	bls.n	8002626 <PPM_memset+0xe>
		}
	}
}
 8002666:	46c0      	nop			; (mov r8, r8)
 8002668:	46c0      	nop			; (mov r8, r8)
 800266a:	46bd      	mov	sp, r7
 800266c:	b002      	add	sp, #8
 800266e:	bd80      	pop	{r7, pc}
 8002670:	20000388 	.word	0x20000388

08002674 <PPM_IRQ>:
/*
 * INTERRUPT ROUTINES
 */

void PPM_IRQ (void)
{
 8002674:	b580      	push	{r7, lr}
 8002676:	b082      	sub	sp, #8
 8002678:	af00      	add	r7, sp, #0
	uint16_t now = TIM_Read(PPM_TIM);	// Current IRQ Loop Time
 800267a:	4b27      	ldr	r3, [pc, #156]	; (8002718 <PPM_IRQ+0xa4>)
 800267c:	681b      	ldr	r3, [r3, #0]
 800267e:	0018      	movs	r0, r3
 8002680:	f7ff fe98 	bl	80023b4 <TIM_Read>
 8002684:	0002      	movs	r2, r0
 8002686:	1dbb      	adds	r3, r7, #6
 8002688:	801a      	strh	r2, [r3, #0]
	static uint16_t prev = 0;			// Previous IRQ Loop Time
	uint16_t pulse = 0;					// Pulse Width
 800268a:	1d3b      	adds	r3, r7, #4
 800268c:	2200      	movs	r2, #0
 800268e:	801a      	strh	r2, [r3, #0]
	static uint8_t ch = 0;				// Channel Index
	static uint8_t jitter = 0;			// Jitter-Smoothing Array Index

	// Calculate the Pulse Width
	pulse = now - prev;
 8002690:	4b22      	ldr	r3, [pc, #136]	; (800271c <PPM_IRQ+0xa8>)
 8002692:	881a      	ldrh	r2, [r3, #0]
 8002694:	1d3b      	adds	r3, r7, #4
 8002696:	1db9      	adds	r1, r7, #6
 8002698:	8809      	ldrh	r1, [r1, #0]
 800269a:	1a8a      	subs	r2, r1, r2
 800269c:	801a      	strh	r2, [r3, #0]

	// Check for Channel 1 Synchronization
	if (pulse > PPM_EOF_TIME)
 800269e:	1d3b      	adds	r3, r7, #4
 80026a0:	881a      	ldrh	r2, [r3, #0]
 80026a2:	23fa      	movs	r3, #250	; 0xfa
 80026a4:	011b      	lsls	r3, r3, #4
 80026a6:	429a      	cmp	r2, r3
 80026a8:	d902      	bls.n	80026b0 <PPM_IRQ+0x3c>
	{
		ch = 0;
 80026aa:	4b1d      	ldr	r3, [pc, #116]	; (8002720 <PPM_IRQ+0xac>)
 80026ac:	2200      	movs	r2, #0
 80026ae:	701a      	strb	r2, [r3, #0]
	}

	// Check for any Additional (Unsupported) Channels
	if (ch < PPM_NUM_CHANNELS)
 80026b0:	4b1b      	ldr	r3, [pc, #108]	; (8002720 <PPM_IRQ+0xac>)
 80026b2:	781b      	ldrb	r3, [r3, #0]
 80026b4:	2b07      	cmp	r3, #7
 80026b6:	d82a      	bhi.n	800270e <PPM_IRQ+0x9a>
	{
		// Assign Pulse to Correct Channel
		rxPPM[jitter][ch] = pulse;
 80026b8:	4b1a      	ldr	r3, [pc, #104]	; (8002724 <PPM_IRQ+0xb0>)
 80026ba:	781b      	ldrb	r3, [r3, #0]
 80026bc:	001a      	movs	r2, r3
 80026be:	4b18      	ldr	r3, [pc, #96]	; (8002720 <PPM_IRQ+0xac>)
 80026c0:	781b      	ldrb	r3, [r3, #0]
 80026c2:	0019      	movs	r1, r3
 80026c4:	4b18      	ldr	r3, [pc, #96]	; (8002728 <PPM_IRQ+0xb4>)
 80026c6:	00d2      	lsls	r2, r2, #3
 80026c8:	1852      	adds	r2, r2, r1
 80026ca:	0052      	lsls	r2, r2, #1
 80026cc:	1d39      	adds	r1, r7, #4
 80026ce:	8809      	ldrh	r1, [r1, #0]
 80026d0:	52d1      	strh	r1, [r2, r3]
		// Prep Variables for Next Loop
		prev = now;
 80026d2:	4b12      	ldr	r3, [pc, #72]	; (800271c <PPM_IRQ+0xa8>)
 80026d4:	1dba      	adds	r2, r7, #6
 80026d6:	8812      	ldrh	r2, [r2, #0]
 80026d8:	801a      	strh	r2, [r3, #0]
		ch += 1;
 80026da:	4b11      	ldr	r3, [pc, #68]	; (8002720 <PPM_IRQ+0xac>)
 80026dc:	781b      	ldrb	r3, [r3, #0]
 80026de:	3301      	adds	r3, #1
 80026e0:	b2da      	uxtb	r2, r3
 80026e2:	4b0f      	ldr	r3, [pc, #60]	; (8002720 <PPM_IRQ+0xac>)
 80026e4:	701a      	strb	r2, [r3, #0]
		// Evaluate on last loop
		if (ch == (PPM_NUM_CHANNELS - 1))
 80026e6:	4b0e      	ldr	r3, [pc, #56]	; (8002720 <PPM_IRQ+0xac>)
 80026e8:	781b      	ldrb	r3, [r3, #0]
 80026ea:	2b07      	cmp	r3, #7
 80026ec:	d10f      	bne.n	800270e <PPM_IRQ+0x9a>
		{
			// Kick Heartbeat
			rxHeartbeatPPM = true;
 80026ee:	4b0f      	ldr	r3, [pc, #60]	; (800272c <PPM_IRQ+0xb8>)
 80026f0:	2201      	movs	r2, #1
 80026f2:	701a      	strb	r2, [r3, #0]
			//Increment Jitter Array Index
			jitter += 1;
 80026f4:	4b0b      	ldr	r3, [pc, #44]	; (8002724 <PPM_IRQ+0xb0>)
 80026f6:	781b      	ldrb	r3, [r3, #0]
 80026f8:	3301      	adds	r3, #1
 80026fa:	b2da      	uxtb	r2, r3
 80026fc:	4b09      	ldr	r3, [pc, #36]	; (8002724 <PPM_IRQ+0xb0>)
 80026fe:	701a      	strb	r2, [r3, #0]
			if (jitter >= PPM_JITTER_ARRAY) { jitter = 0; }
 8002700:	4b08      	ldr	r3, [pc, #32]	; (8002724 <PPM_IRQ+0xb0>)
 8002702:	781b      	ldrb	r3, [r3, #0]
 8002704:	2b02      	cmp	r3, #2
 8002706:	d902      	bls.n	800270e <PPM_IRQ+0x9a>
 8002708:	4b06      	ldr	r3, [pc, #24]	; (8002724 <PPM_IRQ+0xb0>)
 800270a:	2200      	movs	r2, #0
 800270c:	701a      	strb	r2, [r3, #0]
		}
	}
}
 800270e:	46c0      	nop			; (mov r8, r8)
 8002710:	46bd      	mov	sp, r7
 8002712:	b002      	add	sp, #8
 8002714:	bd80      	pop	{r7, pc}
 8002716:	46c0      	nop			; (mov r8, r8)
 8002718:	2000003c 	.word	0x2000003c
 800271c:	200003d4 	.word	0x200003d4
 8002720:	200003d6 	.word	0x200003d6
 8002724:	200003d7 	.word	0x200003d7
 8002728:	20000388 	.word	0x20000388
 800272c:	200003b8 	.word	0x200003b8

08002730 <CORE_GetTick>:
{
 8002730:	b580      	push	{r7, lr}
 8002732:	af00      	add	r7, sp, #0
	return gTicks;
 8002734:	4b02      	ldr	r3, [pc, #8]	; (8002740 <CORE_GetTick+0x10>)
 8002736:	681b      	ldr	r3, [r3, #0]
}
 8002738:	0018      	movs	r0, r3
 800273a:	46bd      	mov	sp, r7
 800273c:	bd80      	pop	{r7, pc}
 800273e:	46c0      	nop			; (mov r8, r8)
 8002740:	200004a8 	.word	0x200004a8

08002744 <GPIO_EnableInput>:
{
 8002744:	b580      	push	{r7, lr}
 8002746:	b084      	sub	sp, #16
 8002748:	af00      	add	r7, sp, #0
 800274a:	60f8      	str	r0, [r7, #12]
 800274c:	60b9      	str	r1, [r7, #8]
 800274e:	1dfb      	adds	r3, r7, #7
 8002750:	701a      	strb	r2, [r3, #0]
	GPIO_Init(gpio, pin, GPIO_Mode_Input | pull);
 8002752:	1dfb      	adds	r3, r7, #7
 8002754:	781b      	ldrb	r3, [r3, #0]
 8002756:	b29a      	uxth	r2, r3
 8002758:	68b9      	ldr	r1, [r7, #8]
 800275a:	68fb      	ldr	r3, [r7, #12]
 800275c:	0018      	movs	r0, r3
 800275e:	f001 fb4d 	bl	8003dfc <GPIO_Init>
}
 8002762:	46c0      	nop			; (mov r8, r8)
 8002764:	46bd      	mov	sp, r7
 8002766:	b004      	add	sp, #16
 8002768:	bd80      	pop	{r7, pc}

0800276a <GPIO_Deinit>:
{
 800276a:	b580      	push	{r7, lr}
 800276c:	b082      	sub	sp, #8
 800276e:	af00      	add	r7, sp, #0
 8002770:	6078      	str	r0, [r7, #4]
 8002772:	6039      	str	r1, [r7, #0]
	GPIO_Init(gpio, pin, GPIO_Mode_Analog);
 8002774:	6839      	ldr	r1, [r7, #0]
 8002776:	687b      	ldr	r3, [r7, #4]
 8002778:	2203      	movs	r2, #3
 800277a:	0018      	movs	r0, r3
 800277c:	f001 fb3e 	bl	8003dfc <GPIO_Init>
}
 8002780:	46c0      	nop			; (mov r8, r8)
 8002782:	46bd      	mov	sp, r7
 8002784:	b002      	add	sp, #8
 8002786:	bd80      	pop	{r7, pc}

08002788 <GPIO_Read>:
{
 8002788:	b580      	push	{r7, lr}
 800278a:	b082      	sub	sp, #8
 800278c:	af00      	add	r7, sp, #0
 800278e:	6078      	str	r0, [r7, #4]
 8002790:	6039      	str	r1, [r7, #0]
	return ((gpio->IDR & pin) > 0);
 8002792:	687b      	ldr	r3, [r7, #4]
 8002794:	691b      	ldr	r3, [r3, #16]
 8002796:	683a      	ldr	r2, [r7, #0]
 8002798:	4013      	ands	r3, r2
 800279a:	1e5a      	subs	r2, r3, #1
 800279c:	4193      	sbcs	r3, r2
 800279e:	b2db      	uxtb	r3, r3
}
 80027a0:	0018      	movs	r0, r3
 80027a2:	46bd      	mov	sp, r7
 80027a4:	b002      	add	sp, #8
 80027a6:	bd80      	pop	{r7, pc}

080027a8 <TIM_Read>:
{
 80027a8:	b580      	push	{r7, lr}
 80027aa:	b082      	sub	sp, #8
 80027ac:	af00      	add	r7, sp, #0
 80027ae:	6078      	str	r0, [r7, #4]
	return tim->Instance->CNT;
 80027b0:	687b      	ldr	r3, [r7, #4]
 80027b2:	681b      	ldr	r3, [r3, #0]
 80027b4:	6a5b      	ldr	r3, [r3, #36]	; 0x24
}
 80027b6:	0018      	movs	r0, r3
 80027b8:	46bd      	mov	sp, r7
 80027ba:	b002      	add	sp, #8
 80027bc:	bd80      	pop	{r7, pc}
	...

080027c0 <PWM_Detect>:
 * PUBLIC FUNCTIONS
 */

// TODO: Fix the false-positive when running PPM protocol
bool PWM_Detect(void)
{
 80027c0:	b580      	push	{r7, lr}
 80027c2:	b082      	sub	sp, #8
 80027c4:	af00      	add	r7, sp, #0
	PWM_Init();
 80027c6:	f000 f83d 	bl	8002844 <PWM_Init>

	uint32_t tick = CORE_GetTick();
 80027ca:	f7ff ffb1 	bl	8002730 <CORE_GetTick>
 80027ce:	0003      	movs	r3, r0
 80027d0:	603b      	str	r3, [r7, #0]
	while ((PWM_TIMEOUT * 2) > CORE_GetTick() - tick)
 80027d2:	e001      	b.n	80027d8 <PWM_Detect+0x18>
	{
		CORE_Idle();
 80027d4:	f001 f95e 	bl	8003a94 <CORE_Idle>
	while ((PWM_TIMEOUT * 2) > CORE_GetTick() - tick)
 80027d8:	f7ff ffaa 	bl	8002730 <CORE_GetTick>
 80027dc:	0002      	movs	r2, r0
 80027de:	683b      	ldr	r3, [r7, #0]
 80027e0:	1ad3      	subs	r3, r2, r3
 80027e2:	2b77      	cmp	r3, #119	; 0x77
 80027e4:	d9f6      	bls.n	80027d4 <PWM_Detect+0x14>
	}

	PWM_Deinit();
 80027e6:	f000 f887 	bl	80028f8 <PWM_Deinit>

	bool retVal = false;
 80027ea:	1dfb      	adds	r3, r7, #7
 80027ec:	2200      	movs	r2, #0
 80027ee:	701a      	strb	r2, [r3, #0]
	for (uint8_t i = 0; i < PWM_NUM_CHANNELS; i++)
 80027f0:	1dbb      	adds	r3, r7, #6
 80027f2:	2200      	movs	r2, #0
 80027f4:	701a      	strb	r2, [r3, #0]
 80027f6:	e018      	b.n	800282a <PWM_Detect+0x6a>
	{
		retVal = retVal || rxHeartbeatPWM[i];
 80027f8:	1dfb      	adds	r3, r7, #7
 80027fa:	781b      	ldrb	r3, [r3, #0]
 80027fc:	2b00      	cmp	r3, #0
 80027fe:	d106      	bne.n	800280e <PWM_Detect+0x4e>
 8002800:	1dbb      	adds	r3, r7, #6
 8002802:	781b      	ldrb	r3, [r3, #0]
 8002804:	4a0e      	ldr	r2, [pc, #56]	; (8002840 <PWM_Detect+0x80>)
 8002806:	5cd3      	ldrb	r3, [r2, r3]
 8002808:	b2db      	uxtb	r3, r3
 800280a:	2b00      	cmp	r3, #0
 800280c:	d001      	beq.n	8002812 <PWM_Detect+0x52>
 800280e:	2201      	movs	r2, #1
 8002810:	e000      	b.n	8002814 <PWM_Detect+0x54>
 8002812:	2200      	movs	r2, #0
 8002814:	1dfb      	adds	r3, r7, #7
 8002816:	701a      	strb	r2, [r3, #0]
 8002818:	781a      	ldrb	r2, [r3, #0]
 800281a:	2101      	movs	r1, #1
 800281c:	400a      	ands	r2, r1
 800281e:	701a      	strb	r2, [r3, #0]
	for (uint8_t i = 0; i < PWM_NUM_CHANNELS; i++)
 8002820:	1dbb      	adds	r3, r7, #6
 8002822:	781a      	ldrb	r2, [r3, #0]
 8002824:	1dbb      	adds	r3, r7, #6
 8002826:	3201      	adds	r2, #1
 8002828:	701a      	strb	r2, [r3, #0]
 800282a:	1dbb      	adds	r3, r7, #6
 800282c:	781b      	ldrb	r3, [r3, #0]
 800282e:	2b03      	cmp	r3, #3
 8002830:	d9e2      	bls.n	80027f8 <PWM_Detect+0x38>
	}
	return retVal;
 8002832:	1dfb      	adds	r3, r7, #7
 8002834:	781b      	ldrb	r3, [r3, #0]
}
 8002836:	0018      	movs	r0, r3
 8002838:	46bd      	mov	sp, r7
 800283a:	b002      	add	sp, #8
 800283c:	bd80      	pop	{r7, pc}
 800283e:	46c0      	nop			; (mov r8, r8)
 8002840:	200003f0 	.word	0x200003f0

08002844 <PWM_Init>:

void PWM_Init ()
{
 8002844:	b580      	push	{r7, lr}
 8002846:	af00      	add	r7, sp, #0
	PWM_memset();
 8002848:	f000 f98e 	bl	8002b68 <PWM_memset>

	TIM_Init(PWM_TIM, PWM_TIM_FREQ, PWM_TIM_RELOAD);
 800284c:	4b22      	ldr	r3, [pc, #136]	; (80028d8 <PWM_Init+0x94>)
 800284e:	681b      	ldr	r3, [r3, #0]
 8002850:	4a22      	ldr	r2, [pc, #136]	; (80028dc <PWM_Init+0x98>)
 8002852:	4923      	ldr	r1, [pc, #140]	; (80028e0 <PWM_Init+0x9c>)
 8002854:	0018      	movs	r0, r3
 8002856:	f001 fca3 	bl	80041a0 <TIM_Init>
	TIM_Start(PWM_TIM);
 800285a:	4b1f      	ldr	r3, [pc, #124]	; (80028d8 <PWM_Init+0x94>)
 800285c:	681b      	ldr	r3, [r3, #0]
 800285e:	0018      	movs	r0, r3
 8002860:	f001 fd72 	bl	8004348 <TIM_Start>

	GPIO_EnableInput(PWM_S1_GPIO, PWM_S1_PIN, GPIO_Pull_Down);
 8002864:	2380      	movs	r3, #128	; 0x80
 8002866:	011b      	lsls	r3, r3, #4
 8002868:	481e      	ldr	r0, [pc, #120]	; (80028e4 <PWM_Init+0xa0>)
 800286a:	2220      	movs	r2, #32
 800286c:	0019      	movs	r1, r3
 800286e:	f7ff ff69 	bl	8002744 <GPIO_EnableInput>
	GPIO_EnableInput(PWM_S2_GPIO, PWM_S2_PIN, GPIO_Pull_Down);
 8002872:	4b1c      	ldr	r3, [pc, #112]	; (80028e4 <PWM_Init+0xa0>)
 8002874:	2220      	movs	r2, #32
 8002876:	2104      	movs	r1, #4
 8002878:	0018      	movs	r0, r3
 800287a:	f7ff ff63 	bl	8002744 <GPIO_EnableInput>
	GPIO_EnableInput(PWM_S3_GPIO, PWM_S3_PIN, GPIO_Pull_Down);
 800287e:	23a0      	movs	r3, #160	; 0xa0
 8002880:	05db      	lsls	r3, r3, #23
 8002882:	2220      	movs	r2, #32
 8002884:	2140      	movs	r1, #64	; 0x40
 8002886:	0018      	movs	r0, r3
 8002888:	f7ff ff5c 	bl	8002744 <GPIO_EnableInput>
	GPIO_EnableInput(PWM_S4_GPIO, PWM_S4_PIN, GPIO_Pull_Down);
 800288c:	23a0      	movs	r3, #160	; 0xa0
 800288e:	05db      	lsls	r3, r3, #23
 8002890:	2220      	movs	r2, #32
 8002892:	2120      	movs	r1, #32
 8002894:	0018      	movs	r0, r3
 8002896:	f7ff ff55 	bl	8002744 <GPIO_EnableInput>
	GPIO_OnChange(PWM_S1_GPIO, PWM_S1_PIN, GPIO_IT_Both, PWM1_IRQ);
 800289a:	4b13      	ldr	r3, [pc, #76]	; (80028e8 <PWM_Init+0xa4>)
 800289c:	2280      	movs	r2, #128	; 0x80
 800289e:	0111      	lsls	r1, r2, #4
 80028a0:	4810      	ldr	r0, [pc, #64]	; (80028e4 <PWM_Init+0xa0>)
 80028a2:	2203      	movs	r2, #3
 80028a4:	f001 fa7e 	bl	8003da4 <GPIO_OnChange>
	GPIO_OnChange(PWM_S2_GPIO, PWM_S2_PIN, GPIO_IT_Both, PWM2_IRQ);
 80028a8:	4b10      	ldr	r3, [pc, #64]	; (80028ec <PWM_Init+0xa8>)
 80028aa:	480e      	ldr	r0, [pc, #56]	; (80028e4 <PWM_Init+0xa0>)
 80028ac:	2203      	movs	r2, #3
 80028ae:	2104      	movs	r1, #4
 80028b0:	f001 fa78 	bl	8003da4 <GPIO_OnChange>
	GPIO_OnChange(PWM_S3_GPIO, PWM_S3_PIN, GPIO_IT_Both, PWM3_IRQ);
 80028b4:	4b0e      	ldr	r3, [pc, #56]	; (80028f0 <PWM_Init+0xac>)
 80028b6:	22a0      	movs	r2, #160	; 0xa0
 80028b8:	05d0      	lsls	r0, r2, #23
 80028ba:	2203      	movs	r2, #3
 80028bc:	2140      	movs	r1, #64	; 0x40
 80028be:	f001 fa71 	bl	8003da4 <GPIO_OnChange>
	GPIO_OnChange(PWM_S4_GPIO, PWM_S4_PIN, GPIO_IT_Both, PWM4_IRQ);
 80028c2:	4b0c      	ldr	r3, [pc, #48]	; (80028f4 <PWM_Init+0xb0>)
 80028c4:	22a0      	movs	r2, #160	; 0xa0
 80028c6:	05d0      	lsls	r0, r2, #23
 80028c8:	2203      	movs	r2, #3
 80028ca:	2120      	movs	r1, #32
 80028cc:	f001 fa6a 	bl	8003da4 <GPIO_OnChange>
}
 80028d0:	46c0      	nop			; (mov r8, r8)
 80028d2:	46bd      	mov	sp, r7
 80028d4:	bd80      	pop	{r7, pc}
 80028d6:	46c0      	nop			; (mov r8, r8)
 80028d8:	2000003c 	.word	0x2000003c
 80028dc:	0000ffff 	.word	0x0000ffff
 80028e0:	000f4240 	.word	0x000f4240
 80028e4:	50000400 	.word	0x50000400
 80028e8:	08002bc5 	.word	0x08002bc5
 80028ec:	08002c81 	.word	0x08002c81
 80028f0:	08002d39 	.word	0x08002d39
 80028f4:	08002df1 	.word	0x08002df1

080028f8 <PWM_Deinit>:

void PWM_Deinit (void)
{
 80028f8:	b580      	push	{r7, lr}
 80028fa:	af00      	add	r7, sp, #0
	TIM_Deinit(TIM_RADIO);
 80028fc:	4b1d      	ldr	r3, [pc, #116]	; (8002974 <PWM_Deinit+0x7c>)
 80028fe:	681b      	ldr	r3, [r3, #0]
 8002900:	0018      	movs	r0, r3
 8002902:	f001 fd4d 	bl	80043a0 <TIM_Deinit>

	GPIO_OnChange(PWM_S1_GPIO, PWM_S1_PIN, GPIO_IT_None, NULL);
 8002906:	2380      	movs	r3, #128	; 0x80
 8002908:	0119      	lsls	r1, r3, #4
 800290a:	481b      	ldr	r0, [pc, #108]	; (8002978 <PWM_Deinit+0x80>)
 800290c:	2300      	movs	r3, #0
 800290e:	2200      	movs	r2, #0
 8002910:	f001 fa48 	bl	8003da4 <GPIO_OnChange>
	GPIO_OnChange(PWM_S2_GPIO, PWM_S2_PIN, GPIO_IT_None, NULL);
 8002914:	4818      	ldr	r0, [pc, #96]	; (8002978 <PWM_Deinit+0x80>)
 8002916:	2300      	movs	r3, #0
 8002918:	2200      	movs	r2, #0
 800291a:	2104      	movs	r1, #4
 800291c:	f001 fa42 	bl	8003da4 <GPIO_OnChange>
	GPIO_OnChange(PWM_S3_GPIO, PWM_S3_PIN, GPIO_IT_None, NULL);
 8002920:	23a0      	movs	r3, #160	; 0xa0
 8002922:	05d8      	lsls	r0, r3, #23
 8002924:	2300      	movs	r3, #0
 8002926:	2200      	movs	r2, #0
 8002928:	2140      	movs	r1, #64	; 0x40
 800292a:	f001 fa3b 	bl	8003da4 <GPIO_OnChange>
	GPIO_OnChange(PWM_S4_GPIO, PWM_S4_PIN, GPIO_IT_None, NULL);
 800292e:	23a0      	movs	r3, #160	; 0xa0
 8002930:	05d8      	lsls	r0, r3, #23
 8002932:	2300      	movs	r3, #0
 8002934:	2200      	movs	r2, #0
 8002936:	2120      	movs	r1, #32
 8002938:	f001 fa34 	bl	8003da4 <GPIO_OnChange>
	GPIO_Deinit(PWM_S1_GPIO, PWM_S1_PIN);
 800293c:	2380      	movs	r3, #128	; 0x80
 800293e:	011b      	lsls	r3, r3, #4
 8002940:	4a0d      	ldr	r2, [pc, #52]	; (8002978 <PWM_Deinit+0x80>)
 8002942:	0019      	movs	r1, r3
 8002944:	0010      	movs	r0, r2
 8002946:	f7ff ff10 	bl	800276a <GPIO_Deinit>
	GPIO_Deinit(PWM_S2_GPIO, PWM_S2_PIN);
 800294a:	4b0b      	ldr	r3, [pc, #44]	; (8002978 <PWM_Deinit+0x80>)
 800294c:	2104      	movs	r1, #4
 800294e:	0018      	movs	r0, r3
 8002950:	f7ff ff0b 	bl	800276a <GPIO_Deinit>
	GPIO_Deinit(PWM_S3_GPIO, PWM_S3_PIN);
 8002954:	23a0      	movs	r3, #160	; 0xa0
 8002956:	05db      	lsls	r3, r3, #23
 8002958:	2140      	movs	r1, #64	; 0x40
 800295a:	0018      	movs	r0, r3
 800295c:	f7ff ff05 	bl	800276a <GPIO_Deinit>
	GPIO_Deinit(PWM_S4_GPIO, PWM_S4_PIN);
 8002960:	23a0      	movs	r3, #160	; 0xa0
 8002962:	05db      	lsls	r3, r3, #23
 8002964:	2120      	movs	r1, #32
 8002966:	0018      	movs	r0, r3
 8002968:	f7ff feff 	bl	800276a <GPIO_Deinit>
}
 800296c:	46c0      	nop			; (mov r8, r8)
 800296e:	46bd      	mov	sp, r7
 8002970:	bd80      	pop	{r7, pc}
 8002972:	46c0      	nop			; (mov r8, r8)
 8002974:	2000003c 	.word	0x2000003c
 8002978:	50000400 	.word	0x50000400

0800297c <PWM_Update>:

void PWM_Update (void)
{
 800297c:	b590      	push	{r4, r7, lr}
 800297e:	b087      	sub	sp, #28
 8002980:	af00      	add	r7, sp, #0
	uint32_t now = CORE_GetTick();
 8002982:	f7ff fed5 	bl	8002730 <CORE_GetTick>
 8002986:	0003      	movs	r3, r0
 8002988:	60bb      	str	r3, [r7, #8]
	static uint32_t prev = 0;

	// Check for New Input Data
	if (rxHeartbeatPWM[0] || rxHeartbeatPWM [1] || rxHeartbeatPWM [2] || rxHeartbeatPWM [3])
 800298a:	4b48      	ldr	r3, [pc, #288]	; (8002aac <PWM_Update+0x130>)
 800298c:	781b      	ldrb	r3, [r3, #0]
 800298e:	b2db      	uxtb	r3, r3
 8002990:	2b00      	cmp	r3, #0
 8002992:	d10e      	bne.n	80029b2 <PWM_Update+0x36>
 8002994:	4b45      	ldr	r3, [pc, #276]	; (8002aac <PWM_Update+0x130>)
 8002996:	785b      	ldrb	r3, [r3, #1]
 8002998:	b2db      	uxtb	r3, r3
 800299a:	2b00      	cmp	r3, #0
 800299c:	d109      	bne.n	80029b2 <PWM_Update+0x36>
 800299e:	4b43      	ldr	r3, [pc, #268]	; (8002aac <PWM_Update+0x130>)
 80029a0:	789b      	ldrb	r3, [r3, #2]
 80029a2:	b2db      	uxtb	r3, r3
 80029a4:	2b00      	cmp	r3, #0
 80029a6:	d104      	bne.n	80029b2 <PWM_Update+0x36>
 80029a8:	4b40      	ldr	r3, [pc, #256]	; (8002aac <PWM_Update+0x130>)
 80029aa:	78db      	ldrb	r3, [r3, #3]
 80029ac:	b2db      	uxtb	r3, r3
 80029ae:	2b00      	cmp	r3, #0
 80029b0:	d068      	beq.n	8002a84 <PWM_Update+0x108>
	{
		// Average and Assign Input to data Struct
		for (uint8_t j = 0; j < PWM_NUM_CHANNELS; j++)
 80029b2:	2317      	movs	r3, #23
 80029b4:	18fb      	adds	r3, r7, r3
 80029b6:	2200      	movs	r2, #0
 80029b8:	701a      	strb	r2, [r3, #0]
 80029ba:	e04f      	b.n	8002a5c <PWM_Update+0xe0>
		{
			uint8_t avg = 0;
 80029bc:	2316      	movs	r3, #22
 80029be:	18fb      	adds	r3, r7, r3
 80029c0:	2200      	movs	r2, #0
 80029c2:	701a      	strb	r2, [r3, #0]
			uint32_t ch = 0;
 80029c4:	2300      	movs	r3, #0
 80029c6:	613b      	str	r3, [r7, #16]
			for (uint8_t i = 0; i < PWM_JITTER_ARRAY; i++)
 80029c8:	230f      	movs	r3, #15
 80029ca:	18fb      	adds	r3, r7, r3
 80029cc:	2200      	movs	r2, #0
 80029ce:	701a      	strb	r2, [r3, #0]
 80029d0:	e026      	b.n	8002a20 <PWM_Update+0xa4>
			{
				uint16_t trunc = PWM_Truncate(rxPWM[i][j]);
 80029d2:	230f      	movs	r3, #15
 80029d4:	18fb      	adds	r3, r7, r3
 80029d6:	7819      	ldrb	r1, [r3, #0]
 80029d8:	2317      	movs	r3, #23
 80029da:	18fb      	adds	r3, r7, r3
 80029dc:	781a      	ldrb	r2, [r3, #0]
 80029de:	4b34      	ldr	r3, [pc, #208]	; (8002ab0 <PWM_Update+0x134>)
 80029e0:	0089      	lsls	r1, r1, #2
 80029e2:	188a      	adds	r2, r1, r2
 80029e4:	0052      	lsls	r2, r2, #1
 80029e6:	5ad3      	ldrh	r3, [r2, r3]
 80029e8:	b29b      	uxth	r3, r3
 80029ea:	1dbc      	adds	r4, r7, #6
 80029ec:	0018      	movs	r0, r3
 80029ee:	f000 f86d 	bl	8002acc <PWM_Truncate>
 80029f2:	0003      	movs	r3, r0
 80029f4:	8023      	strh	r3, [r4, #0]
				if (trunc != 0)
 80029f6:	1dbb      	adds	r3, r7, #6
 80029f8:	881b      	ldrh	r3, [r3, #0]
 80029fa:	2b00      	cmp	r3, #0
 80029fc:	d00a      	beq.n	8002a14 <PWM_Update+0x98>
				{
					ch += trunc;
 80029fe:	1dbb      	adds	r3, r7, #6
 8002a00:	881b      	ldrh	r3, [r3, #0]
 8002a02:	693a      	ldr	r2, [r7, #16]
 8002a04:	18d3      	adds	r3, r2, r3
 8002a06:	613b      	str	r3, [r7, #16]
					avg += 1;
 8002a08:	2216      	movs	r2, #22
 8002a0a:	18bb      	adds	r3, r7, r2
 8002a0c:	18ba      	adds	r2, r7, r2
 8002a0e:	7812      	ldrb	r2, [r2, #0]
 8002a10:	3201      	adds	r2, #1
 8002a12:	701a      	strb	r2, [r3, #0]
			for (uint8_t i = 0; i < PWM_JITTER_ARRAY; i++)
 8002a14:	210f      	movs	r1, #15
 8002a16:	187b      	adds	r3, r7, r1
 8002a18:	781a      	ldrb	r2, [r3, #0]
 8002a1a:	187b      	adds	r3, r7, r1
 8002a1c:	3201      	adds	r2, #1
 8002a1e:	701a      	strb	r2, [r3, #0]
 8002a20:	230f      	movs	r3, #15
 8002a22:	18fb      	adds	r3, r7, r3
 8002a24:	781b      	ldrb	r3, [r3, #0]
 8002a26:	2b02      	cmp	r3, #2
 8002a28:	d9d3      	bls.n	80029d2 <PWM_Update+0x56>
				}
			}
			ch /= avg;
 8002a2a:	2316      	movs	r3, #22
 8002a2c:	18fb      	adds	r3, r7, r3
 8002a2e:	781b      	ldrb	r3, [r3, #0]
 8002a30:	0019      	movs	r1, r3
 8002a32:	6938      	ldr	r0, [r7, #16]
 8002a34:	f7fd fb68 	bl	8000108 <__udivsi3>
 8002a38:	0003      	movs	r3, r0
 8002a3a:	613b      	str	r3, [r7, #16]
			dataPWM.ch[j] = ch;
 8002a3c:	2017      	movs	r0, #23
 8002a3e:	183b      	adds	r3, r7, r0
 8002a40:	781b      	ldrb	r3, [r3, #0]
 8002a42:	693a      	ldr	r2, [r7, #16]
 8002a44:	b211      	sxth	r1, r2
 8002a46:	4a1b      	ldr	r2, [pc, #108]	; (8002ab4 <PWM_Update+0x138>)
 8002a48:	005b      	lsls	r3, r3, #1
 8002a4a:	18d3      	adds	r3, r2, r3
 8002a4c:	3302      	adds	r3, #2
 8002a4e:	1c0a      	adds	r2, r1, #0
 8002a50:	801a      	strh	r2, [r3, #0]
		for (uint8_t j = 0; j < PWM_NUM_CHANNELS; j++)
 8002a52:	183b      	adds	r3, r7, r0
 8002a54:	781a      	ldrb	r2, [r3, #0]
 8002a56:	183b      	adds	r3, r7, r0
 8002a58:	3201      	adds	r2, #1
 8002a5a:	701a      	strb	r2, [r3, #0]
 8002a5c:	2317      	movs	r3, #23
 8002a5e:	18fb      	adds	r3, r7, r3
 8002a60:	781b      	ldrb	r3, [r3, #0]
 8002a62:	2b03      	cmp	r3, #3
 8002a64:	d9aa      	bls.n	80029bc <PWM_Update+0x40>
		}
		rxHeartbeatPWM[0] = false;
 8002a66:	4b11      	ldr	r3, [pc, #68]	; (8002aac <PWM_Update+0x130>)
 8002a68:	2200      	movs	r2, #0
 8002a6a:	701a      	strb	r2, [r3, #0]
		rxHeartbeatPWM[1] = false;
 8002a6c:	4b0f      	ldr	r3, [pc, #60]	; (8002aac <PWM_Update+0x130>)
 8002a6e:	2200      	movs	r2, #0
 8002a70:	705a      	strb	r2, [r3, #1]
		rxHeartbeatPWM[2] = false;
 8002a72:	4b0e      	ldr	r3, [pc, #56]	; (8002aac <PWM_Update+0x130>)
 8002a74:	2200      	movs	r2, #0
 8002a76:	709a      	strb	r2, [r3, #2]
		rxHeartbeatPWM[3] = false;
 8002a78:	4b0c      	ldr	r3, [pc, #48]	; (8002aac <PWM_Update+0x130>)
 8002a7a:	2200      	movs	r2, #0
 8002a7c:	70da      	strb	r2, [r3, #3]
		prev = now;
 8002a7e:	4b0e      	ldr	r3, [pc, #56]	; (8002ab8 <PWM_Update+0x13c>)
 8002a80:	68ba      	ldr	r2, [r7, #8]
 8002a82:	601a      	str	r2, [r3, #0]
	}

	// Check for Input Failsafe
	if (PWM_TIMEOUT <= (now - prev)) {
 8002a84:	4b0c      	ldr	r3, [pc, #48]	; (8002ab8 <PWM_Update+0x13c>)
 8002a86:	681b      	ldr	r3, [r3, #0]
 8002a88:	68ba      	ldr	r2, [r7, #8]
 8002a8a:	1ad3      	subs	r3, r2, r3
 8002a8c:	2b3b      	cmp	r3, #59	; 0x3b
 8002a8e:	d905      	bls.n	8002a9c <PWM_Update+0x120>
		dataPWM.inputLost = true;
 8002a90:	4b08      	ldr	r3, [pc, #32]	; (8002ab4 <PWM_Update+0x138>)
 8002a92:	2201      	movs	r2, #1
 8002a94:	701a      	strb	r2, [r3, #0]
		PWM_memset();
 8002a96:	f000 f867 	bl	8002b68 <PWM_memset>
	} else {
		dataPWM.inputLost = false;
	}
}
 8002a9a:	e002      	b.n	8002aa2 <PWM_Update+0x126>
		dataPWM.inputLost = false;
 8002a9c:	4b05      	ldr	r3, [pc, #20]	; (8002ab4 <PWM_Update+0x138>)
 8002a9e:	2200      	movs	r2, #0
 8002aa0:	701a      	strb	r2, [r3, #0]
}
 8002aa2:	46c0      	nop			; (mov r8, r8)
 8002aa4:	46bd      	mov	sp, r7
 8002aa6:	b007      	add	sp, #28
 8002aa8:	bd90      	pop	{r4, r7, pc}
 8002aaa:	46c0      	nop			; (mov r8, r8)
 8002aac:	200003f0 	.word	0x200003f0
 8002ab0:	200003d8 	.word	0x200003d8
 8002ab4:	200003f4 	.word	0x200003f4
 8002ab8:	20000400 	.word	0x20000400

08002abc <PWM_GetDataPtr>:

PWM_Data* PWM_GetDataPtr (void)
{
 8002abc:	b580      	push	{r7, lr}
 8002abe:	af00      	add	r7, sp, #0
	return &dataPWM;
 8002ac0:	4b01      	ldr	r3, [pc, #4]	; (8002ac8 <PWM_GetDataPtr+0xc>)
}
 8002ac2:	0018      	movs	r0, r3
 8002ac4:	46bd      	mov	sp, r7
 8002ac6:	bd80      	pop	{r7, pc}
 8002ac8:	200003f4 	.word	0x200003f4

08002acc <PWM_Truncate>:
/*
 * PRIVATE FUNCTIONS
 */

uint16_t PWM_Truncate (uint16_t r)
{
 8002acc:	b580      	push	{r7, lr}
 8002ace:	b084      	sub	sp, #16
 8002ad0:	af00      	add	r7, sp, #0
 8002ad2:	0002      	movs	r2, r0
 8002ad4:	1dbb      	adds	r3, r7, #6
 8002ad6:	801a      	strh	r2, [r3, #0]
	uint16_t retVal = 0;
 8002ad8:	210e      	movs	r1, #14
 8002ada:	187b      	adds	r3, r7, r1
 8002adc:	2200      	movs	r2, #0
 8002ade:	801a      	strh	r2, [r3, #0]

	if (r == 0) {
 8002ae0:	1dbb      	adds	r3, r7, #6
 8002ae2:	881b      	ldrh	r3, [r3, #0]
 8002ae4:	2b00      	cmp	r3, #0
 8002ae6:	d103      	bne.n	8002af0 <PWM_Truncate+0x24>
		retVal = 0;
 8002ae8:	187b      	adds	r3, r7, r1
 8002aea:	2200      	movs	r2, #0
 8002aec:	801a      	strh	r2, [r3, #0]
 8002aee:	e031      	b.n	8002b54 <PWM_Truncate+0x88>
	} else if (r < (PWM_MIN - PWM_THRESHOLD)) {
 8002af0:	1dbb      	adds	r3, r7, #6
 8002af2:	881a      	ldrh	r2, [r3, #0]
 8002af4:	23fa      	movs	r3, #250	; 0xfa
 8002af6:	005b      	lsls	r3, r3, #1
 8002af8:	429a      	cmp	r2, r3
 8002afa:	d204      	bcs.n	8002b06 <PWM_Truncate+0x3a>
		retVal = 0;
 8002afc:	230e      	movs	r3, #14
 8002afe:	18fb      	adds	r3, r7, r3
 8002b00:	2200      	movs	r2, #0
 8002b02:	801a      	strh	r2, [r3, #0]
 8002b04:	e026      	b.n	8002b54 <PWM_Truncate+0x88>
	} else if (r < PWM_MIN) {
 8002b06:	1dbb      	adds	r3, r7, #6
 8002b08:	881a      	ldrh	r2, [r3, #0]
 8002b0a:	23fa      	movs	r3, #250	; 0xfa
 8002b0c:	009b      	lsls	r3, r3, #2
 8002b0e:	429a      	cmp	r2, r3
 8002b10:	d205      	bcs.n	8002b1e <PWM_Truncate+0x52>
		retVal = PWM_MIN;
 8002b12:	230e      	movs	r3, #14
 8002b14:	18fb      	adds	r3, r7, r3
 8002b16:	22fa      	movs	r2, #250	; 0xfa
 8002b18:	0092      	lsls	r2, r2, #2
 8002b1a:	801a      	strh	r2, [r3, #0]
 8002b1c:	e01a      	b.n	8002b54 <PWM_Truncate+0x88>
	} else if (r <= PWM_MAX) {
 8002b1e:	1dbb      	adds	r3, r7, #6
 8002b20:	881a      	ldrh	r2, [r3, #0]
 8002b22:	23fa      	movs	r3, #250	; 0xfa
 8002b24:	00db      	lsls	r3, r3, #3
 8002b26:	429a      	cmp	r2, r3
 8002b28:	d805      	bhi.n	8002b36 <PWM_Truncate+0x6a>
		retVal = r;
 8002b2a:	230e      	movs	r3, #14
 8002b2c:	18fb      	adds	r3, r7, r3
 8002b2e:	1dba      	adds	r2, r7, #6
 8002b30:	8812      	ldrh	r2, [r2, #0]
 8002b32:	801a      	strh	r2, [r3, #0]
 8002b34:	e00e      	b.n	8002b54 <PWM_Truncate+0x88>
	} else if (r < (PWM_MAX + PWM_THRESHOLD))	{
 8002b36:	1dbb      	adds	r3, r7, #6
 8002b38:	881b      	ldrh	r3, [r3, #0]
 8002b3a:	4a0a      	ldr	r2, [pc, #40]	; (8002b64 <PWM_Truncate+0x98>)
 8002b3c:	4293      	cmp	r3, r2
 8002b3e:	d805      	bhi.n	8002b4c <PWM_Truncate+0x80>
		retVal = PWM_MAX;
 8002b40:	230e      	movs	r3, #14
 8002b42:	18fb      	adds	r3, r7, r3
 8002b44:	22fa      	movs	r2, #250	; 0xfa
 8002b46:	00d2      	lsls	r2, r2, #3
 8002b48:	801a      	strh	r2, [r3, #0]
 8002b4a:	e003      	b.n	8002b54 <PWM_Truncate+0x88>
	} else {
		retVal = 0;
 8002b4c:	230e      	movs	r3, #14
 8002b4e:	18fb      	adds	r3, r7, r3
 8002b50:	2200      	movs	r2, #0
 8002b52:	801a      	strh	r2, [r3, #0]
	}

	return retVal;
 8002b54:	230e      	movs	r3, #14
 8002b56:	18fb      	adds	r3, r7, r3
 8002b58:	881b      	ldrh	r3, [r3, #0]
}
 8002b5a:	0018      	movs	r0, r3
 8002b5c:	46bd      	mov	sp, r7
 8002b5e:	b004      	add	sp, #16
 8002b60:	bd80      	pop	{r7, pc}
 8002b62:	46c0      	nop			; (mov r8, r8)
 8002b64:	000009c3 	.word	0x000009c3

08002b68 <PWM_memset>:

void PWM_memset (void)
{
 8002b68:	b580      	push	{r7, lr}
 8002b6a:	b082      	sub	sp, #8
 8002b6c:	af00      	add	r7, sp, #0
	for (uint8_t j = 0; j < PWM_NUM_CHANNELS; j++)
 8002b6e:	1dfb      	adds	r3, r7, #7
 8002b70:	2200      	movs	r2, #0
 8002b72:	701a      	strb	r2, [r3, #0]
 8002b74:	e01b      	b.n	8002bae <PWM_memset+0x46>
	{
		for (uint8_t i = 0; i < PWM_JITTER_ARRAY; i++)
 8002b76:	1dbb      	adds	r3, r7, #6
 8002b78:	2200      	movs	r2, #0
 8002b7a:	701a      	strb	r2, [r3, #0]
 8002b7c:	e00e      	b.n	8002b9c <PWM_memset+0x34>
		{
			rxPWM[i][j] = 0;
 8002b7e:	1dbb      	adds	r3, r7, #6
 8002b80:	7819      	ldrb	r1, [r3, #0]
 8002b82:	1dfb      	adds	r3, r7, #7
 8002b84:	781a      	ldrb	r2, [r3, #0]
 8002b86:	4b0e      	ldr	r3, [pc, #56]	; (8002bc0 <PWM_memset+0x58>)
 8002b88:	0089      	lsls	r1, r1, #2
 8002b8a:	188a      	adds	r2, r1, r2
 8002b8c:	0052      	lsls	r2, r2, #1
 8002b8e:	2100      	movs	r1, #0
 8002b90:	52d1      	strh	r1, [r2, r3]
		for (uint8_t i = 0; i < PWM_JITTER_ARRAY; i++)
 8002b92:	1dbb      	adds	r3, r7, #6
 8002b94:	781a      	ldrb	r2, [r3, #0]
 8002b96:	1dbb      	adds	r3, r7, #6
 8002b98:	3201      	adds	r2, #1
 8002b9a:	701a      	strb	r2, [r3, #0]
 8002b9c:	1dbb      	adds	r3, r7, #6
 8002b9e:	781b      	ldrb	r3, [r3, #0]
 8002ba0:	2b02      	cmp	r3, #2
 8002ba2:	d9ec      	bls.n	8002b7e <PWM_memset+0x16>
	for (uint8_t j = 0; j < PWM_NUM_CHANNELS; j++)
 8002ba4:	1dfb      	adds	r3, r7, #7
 8002ba6:	781a      	ldrb	r2, [r3, #0]
 8002ba8:	1dfb      	adds	r3, r7, #7
 8002baa:	3201      	adds	r2, #1
 8002bac:	701a      	strb	r2, [r3, #0]
 8002bae:	1dfb      	adds	r3, r7, #7
 8002bb0:	781b      	ldrb	r3, [r3, #0]
 8002bb2:	2b03      	cmp	r3, #3
 8002bb4:	d9df      	bls.n	8002b76 <PWM_memset+0xe>
		}
	}
}
 8002bb6:	46c0      	nop			; (mov r8, r8)
 8002bb8:	46c0      	nop			; (mov r8, r8)
 8002bba:	46bd      	mov	sp, r7
 8002bbc:	b002      	add	sp, #8
 8002bbe:	bd80      	pop	{r7, pc}
 8002bc0:	200003d8 	.word	0x200003d8

08002bc4 <PWM1_IRQ>:
/*
 * INTERRUPT ROUTINES
 */

void PWM1_IRQ (void)
{
 8002bc4:	b580      	push	{r7, lr}
 8002bc6:	b082      	sub	sp, #8
 8002bc8:	af00      	add	r7, sp, #0
	uint16_t now = TIM_Read(TIM_RADIO);
 8002bca:	4b26      	ldr	r3, [pc, #152]	; (8002c64 <PWM1_IRQ+0xa0>)
 8002bcc:	681b      	ldr	r3, [r3, #0]
 8002bce:	0018      	movs	r0, r3
 8002bd0:	f7ff fdea 	bl	80027a8 <TIM_Read>
 8002bd4:	0002      	movs	r2, r0
 8002bd6:	1dbb      	adds	r3, r7, #6
 8002bd8:	801a      	strh	r2, [r3, #0]
	uint16_t pulse = 0;
 8002bda:	1d3b      	adds	r3, r7, #4
 8002bdc:	2200      	movs	r2, #0
 8002bde:	801a      	strh	r2, [r3, #0]
	static uint16_t tick = 0;
	static uint8_t jitter = 0;

	if (GPIO_Read(PWM_S1_GPIO, PWM_S1_PIN))
 8002be0:	2380      	movs	r3, #128	; 0x80
 8002be2:	011b      	lsls	r3, r3, #4
 8002be4:	4a20      	ldr	r2, [pc, #128]	; (8002c68 <PWM1_IRQ+0xa4>)
 8002be6:	0019      	movs	r1, r3
 8002be8:	0010      	movs	r0, r2
 8002bea:	f7ff fdcd 	bl	8002788 <GPIO_Read>
 8002bee:	1e03      	subs	r3, r0, #0
 8002bf0:	d004      	beq.n	8002bfc <PWM1_IRQ+0x38>
	{
		tick = now;
 8002bf2:	4b1e      	ldr	r3, [pc, #120]	; (8002c6c <PWM1_IRQ+0xa8>)
 8002bf4:	1dba      	adds	r2, r7, #6
 8002bf6:	8812      	ldrh	r2, [r2, #0]
 8002bf8:	801a      	strh	r2, [r3, #0]
 8002bfa:	e027      	b.n	8002c4c <PWM1_IRQ+0x88>
	}
	else
	{
		pulse = now - tick;
 8002bfc:	4b1b      	ldr	r3, [pc, #108]	; (8002c6c <PWM1_IRQ+0xa8>)
 8002bfe:	881a      	ldrh	r2, [r3, #0]
 8002c00:	1d3b      	adds	r3, r7, #4
 8002c02:	1db9      	adds	r1, r7, #6
 8002c04:	8809      	ldrh	r1, [r1, #0]
 8002c06:	1a8a      	subs	r2, r1, r2
 8002c08:	801a      	strh	r2, [r3, #0]
		// Check pulse is valid
		if (pulse <= (PWM_MAX + PWM_THRESHOLD) && pulse >= (PWM_MIN - PWM_THRESHOLD))
 8002c0a:	1d3b      	adds	r3, r7, #4
 8002c0c:	881b      	ldrh	r3, [r3, #0]
 8002c0e:	4a18      	ldr	r2, [pc, #96]	; (8002c70 <PWM1_IRQ+0xac>)
 8002c10:	4293      	cmp	r3, r2
 8002c12:	d81b      	bhi.n	8002c4c <PWM1_IRQ+0x88>
 8002c14:	1d3b      	adds	r3, r7, #4
 8002c16:	881a      	ldrh	r2, [r3, #0]
 8002c18:	23fa      	movs	r3, #250	; 0xfa
 8002c1a:	005b      	lsls	r3, r3, #1
 8002c1c:	429a      	cmp	r2, r3
 8002c1e:	d315      	bcc.n	8002c4c <PWM1_IRQ+0x88>
		{
			rxPWM[jitter][0] = pulse;
 8002c20:	4b14      	ldr	r3, [pc, #80]	; (8002c74 <PWM1_IRQ+0xb0>)
 8002c22:	781b      	ldrb	r3, [r3, #0]
 8002c24:	001a      	movs	r2, r3
 8002c26:	4b14      	ldr	r3, [pc, #80]	; (8002c78 <PWM1_IRQ+0xb4>)
 8002c28:	00d2      	lsls	r2, r2, #3
 8002c2a:	1d39      	adds	r1, r7, #4
 8002c2c:	8809      	ldrh	r1, [r1, #0]
 8002c2e:	52d1      	strh	r1, [r2, r3]
			rxHeartbeatPWM[0] = CORE_GetTick();
 8002c30:	f7ff fd7e 	bl	8002730 <CORE_GetTick>
 8002c34:	0003      	movs	r3, r0
 8002c36:	1e5a      	subs	r2, r3, #1
 8002c38:	4193      	sbcs	r3, r2
 8002c3a:	b2da      	uxtb	r2, r3
 8002c3c:	4b0f      	ldr	r3, [pc, #60]	; (8002c7c <PWM1_IRQ+0xb8>)
 8002c3e:	701a      	strb	r2, [r3, #0]
			jitter += 1;
 8002c40:	4b0c      	ldr	r3, [pc, #48]	; (8002c74 <PWM1_IRQ+0xb0>)
 8002c42:	781b      	ldrb	r3, [r3, #0]
 8002c44:	3301      	adds	r3, #1
 8002c46:	b2da      	uxtb	r2, r3
 8002c48:	4b0a      	ldr	r3, [pc, #40]	; (8002c74 <PWM1_IRQ+0xb0>)
 8002c4a:	701a      	strb	r2, [r3, #0]
		}
	}

	if (jitter >= PWM_JITTER_ARRAY) {
 8002c4c:	4b09      	ldr	r3, [pc, #36]	; (8002c74 <PWM1_IRQ+0xb0>)
 8002c4e:	781b      	ldrb	r3, [r3, #0]
 8002c50:	2b02      	cmp	r3, #2
 8002c52:	d902      	bls.n	8002c5a <PWM1_IRQ+0x96>
		jitter = 0;
 8002c54:	4b07      	ldr	r3, [pc, #28]	; (8002c74 <PWM1_IRQ+0xb0>)
 8002c56:	2200      	movs	r2, #0
 8002c58:	701a      	strb	r2, [r3, #0]
	}
}
 8002c5a:	46c0      	nop			; (mov r8, r8)
 8002c5c:	46bd      	mov	sp, r7
 8002c5e:	b002      	add	sp, #8
 8002c60:	bd80      	pop	{r7, pc}
 8002c62:	46c0      	nop			; (mov r8, r8)
 8002c64:	2000003c 	.word	0x2000003c
 8002c68:	50000400 	.word	0x50000400
 8002c6c:	20000404 	.word	0x20000404
 8002c70:	000009c4 	.word	0x000009c4
 8002c74:	20000406 	.word	0x20000406
 8002c78:	200003d8 	.word	0x200003d8
 8002c7c:	200003f0 	.word	0x200003f0

08002c80 <PWM2_IRQ>:

void PWM2_IRQ (void)
{
 8002c80:	b580      	push	{r7, lr}
 8002c82:	b082      	sub	sp, #8
 8002c84:	af00      	add	r7, sp, #0
	uint16_t now = TIM_Read(TIM_RADIO);
 8002c86:	4b25      	ldr	r3, [pc, #148]	; (8002d1c <PWM2_IRQ+0x9c>)
 8002c88:	681b      	ldr	r3, [r3, #0]
 8002c8a:	0018      	movs	r0, r3
 8002c8c:	f7ff fd8c 	bl	80027a8 <TIM_Read>
 8002c90:	0002      	movs	r2, r0
 8002c92:	1dbb      	adds	r3, r7, #6
 8002c94:	801a      	strh	r2, [r3, #0]
	uint16_t pulse = 0;
 8002c96:	1d3b      	adds	r3, r7, #4
 8002c98:	2200      	movs	r2, #0
 8002c9a:	801a      	strh	r2, [r3, #0]
	static uint16_t tick = 0;
	static uint8_t jitter = 0;

	if (GPIO_Read(PWM_S2_GPIO, PWM_S2_PIN))
 8002c9c:	4b20      	ldr	r3, [pc, #128]	; (8002d20 <PWM2_IRQ+0xa0>)
 8002c9e:	2104      	movs	r1, #4
 8002ca0:	0018      	movs	r0, r3
 8002ca2:	f7ff fd71 	bl	8002788 <GPIO_Read>
 8002ca6:	1e03      	subs	r3, r0, #0
 8002ca8:	d004      	beq.n	8002cb4 <PWM2_IRQ+0x34>
	{
		tick = now;
 8002caa:	4b1e      	ldr	r3, [pc, #120]	; (8002d24 <PWM2_IRQ+0xa4>)
 8002cac:	1dba      	adds	r2, r7, #6
 8002cae:	8812      	ldrh	r2, [r2, #0]
 8002cb0:	801a      	strh	r2, [r3, #0]
 8002cb2:	e028      	b.n	8002d06 <PWM2_IRQ+0x86>
	}
	else
	{
		pulse = now - tick;
 8002cb4:	4b1b      	ldr	r3, [pc, #108]	; (8002d24 <PWM2_IRQ+0xa4>)
 8002cb6:	881a      	ldrh	r2, [r3, #0]
 8002cb8:	1d3b      	adds	r3, r7, #4
 8002cba:	1db9      	adds	r1, r7, #6
 8002cbc:	8809      	ldrh	r1, [r1, #0]
 8002cbe:	1a8a      	subs	r2, r1, r2
 8002cc0:	801a      	strh	r2, [r3, #0]

		// Check pulse is valid
		if (pulse <= (PWM_MAX + PWM_THRESHOLD) && pulse >= (PWM_MIN - PWM_THRESHOLD))
 8002cc2:	1d3b      	adds	r3, r7, #4
 8002cc4:	881b      	ldrh	r3, [r3, #0]
 8002cc6:	4a18      	ldr	r2, [pc, #96]	; (8002d28 <PWM2_IRQ+0xa8>)
 8002cc8:	4293      	cmp	r3, r2
 8002cca:	d81c      	bhi.n	8002d06 <PWM2_IRQ+0x86>
 8002ccc:	1d3b      	adds	r3, r7, #4
 8002cce:	881a      	ldrh	r2, [r3, #0]
 8002cd0:	23fa      	movs	r3, #250	; 0xfa
 8002cd2:	005b      	lsls	r3, r3, #1
 8002cd4:	429a      	cmp	r2, r3
 8002cd6:	d316      	bcc.n	8002d06 <PWM2_IRQ+0x86>
		{
			rxPWM[jitter][1] = pulse;
 8002cd8:	4b14      	ldr	r3, [pc, #80]	; (8002d2c <PWM2_IRQ+0xac>)
 8002cda:	781b      	ldrb	r3, [r3, #0]
 8002cdc:	4a14      	ldr	r2, [pc, #80]	; (8002d30 <PWM2_IRQ+0xb0>)
 8002cde:	00db      	lsls	r3, r3, #3
 8002ce0:	18d3      	adds	r3, r2, r3
 8002ce2:	3302      	adds	r3, #2
 8002ce4:	1d3a      	adds	r2, r7, #4
 8002ce6:	8812      	ldrh	r2, [r2, #0]
 8002ce8:	801a      	strh	r2, [r3, #0]
			rxHeartbeatPWM[1] = CORE_GetTick();
 8002cea:	f7ff fd21 	bl	8002730 <CORE_GetTick>
 8002cee:	0003      	movs	r3, r0
 8002cf0:	1e5a      	subs	r2, r3, #1
 8002cf2:	4193      	sbcs	r3, r2
 8002cf4:	b2da      	uxtb	r2, r3
 8002cf6:	4b0f      	ldr	r3, [pc, #60]	; (8002d34 <PWM2_IRQ+0xb4>)
 8002cf8:	705a      	strb	r2, [r3, #1]
			jitter += 1;
 8002cfa:	4b0c      	ldr	r3, [pc, #48]	; (8002d2c <PWM2_IRQ+0xac>)
 8002cfc:	781b      	ldrb	r3, [r3, #0]
 8002cfe:	3301      	adds	r3, #1
 8002d00:	b2da      	uxtb	r2, r3
 8002d02:	4b0a      	ldr	r3, [pc, #40]	; (8002d2c <PWM2_IRQ+0xac>)
 8002d04:	701a      	strb	r2, [r3, #0]
		}
	}

	if (jitter >= PWM_JITTER_ARRAY) {
 8002d06:	4b09      	ldr	r3, [pc, #36]	; (8002d2c <PWM2_IRQ+0xac>)
 8002d08:	781b      	ldrb	r3, [r3, #0]
 8002d0a:	2b02      	cmp	r3, #2
 8002d0c:	d902      	bls.n	8002d14 <PWM2_IRQ+0x94>
		jitter = 0;
 8002d0e:	4b07      	ldr	r3, [pc, #28]	; (8002d2c <PWM2_IRQ+0xac>)
 8002d10:	2200      	movs	r2, #0
 8002d12:	701a      	strb	r2, [r3, #0]
	}
}
 8002d14:	46c0      	nop			; (mov r8, r8)
 8002d16:	46bd      	mov	sp, r7
 8002d18:	b002      	add	sp, #8
 8002d1a:	bd80      	pop	{r7, pc}
 8002d1c:	2000003c 	.word	0x2000003c
 8002d20:	50000400 	.word	0x50000400
 8002d24:	20000408 	.word	0x20000408
 8002d28:	000009c4 	.word	0x000009c4
 8002d2c:	2000040a 	.word	0x2000040a
 8002d30:	200003d8 	.word	0x200003d8
 8002d34:	200003f0 	.word	0x200003f0

08002d38 <PWM3_IRQ>:

void PWM3_IRQ (void)
{
 8002d38:	b580      	push	{r7, lr}
 8002d3a:	b082      	sub	sp, #8
 8002d3c:	af00      	add	r7, sp, #0
	uint16_t now = TIM_Read(TIM_RADIO);
 8002d3e:	4b26      	ldr	r3, [pc, #152]	; (8002dd8 <PWM3_IRQ+0xa0>)
 8002d40:	681b      	ldr	r3, [r3, #0]
 8002d42:	0018      	movs	r0, r3
 8002d44:	f7ff fd30 	bl	80027a8 <TIM_Read>
 8002d48:	0002      	movs	r2, r0
 8002d4a:	1dbb      	adds	r3, r7, #6
 8002d4c:	801a      	strh	r2, [r3, #0]
	uint16_t pulse = 0;
 8002d4e:	1d3b      	adds	r3, r7, #4
 8002d50:	2200      	movs	r2, #0
 8002d52:	801a      	strh	r2, [r3, #0]
	static uint16_t tick = 0;
	static uint8_t jitter = 0;

	if (GPIO_Read(PWM_S3_GPIO, PWM_S3_PIN))
 8002d54:	23a0      	movs	r3, #160	; 0xa0
 8002d56:	05db      	lsls	r3, r3, #23
 8002d58:	2140      	movs	r1, #64	; 0x40
 8002d5a:	0018      	movs	r0, r3
 8002d5c:	f7ff fd14 	bl	8002788 <GPIO_Read>
 8002d60:	1e03      	subs	r3, r0, #0
 8002d62:	d004      	beq.n	8002d6e <PWM3_IRQ+0x36>
	{
		tick = now;
 8002d64:	4b1d      	ldr	r3, [pc, #116]	; (8002ddc <PWM3_IRQ+0xa4>)
 8002d66:	1dba      	adds	r2, r7, #6
 8002d68:	8812      	ldrh	r2, [r2, #0]
 8002d6a:	801a      	strh	r2, [r3, #0]
 8002d6c:	e028      	b.n	8002dc0 <PWM3_IRQ+0x88>
	}
	else
	{
		pulse = now - tick;
 8002d6e:	4b1b      	ldr	r3, [pc, #108]	; (8002ddc <PWM3_IRQ+0xa4>)
 8002d70:	881a      	ldrh	r2, [r3, #0]
 8002d72:	1d3b      	adds	r3, r7, #4
 8002d74:	1db9      	adds	r1, r7, #6
 8002d76:	8809      	ldrh	r1, [r1, #0]
 8002d78:	1a8a      	subs	r2, r1, r2
 8002d7a:	801a      	strh	r2, [r3, #0]

		// Check pulse is valid
		if (pulse <= (PWM_MAX + PWM_THRESHOLD) && pulse >= (PWM_MIN - PWM_THRESHOLD))
 8002d7c:	1d3b      	adds	r3, r7, #4
 8002d7e:	881b      	ldrh	r3, [r3, #0]
 8002d80:	4a17      	ldr	r2, [pc, #92]	; (8002de0 <PWM3_IRQ+0xa8>)
 8002d82:	4293      	cmp	r3, r2
 8002d84:	d81c      	bhi.n	8002dc0 <PWM3_IRQ+0x88>
 8002d86:	1d3b      	adds	r3, r7, #4
 8002d88:	881a      	ldrh	r2, [r3, #0]
 8002d8a:	23fa      	movs	r3, #250	; 0xfa
 8002d8c:	005b      	lsls	r3, r3, #1
 8002d8e:	429a      	cmp	r2, r3
 8002d90:	d316      	bcc.n	8002dc0 <PWM3_IRQ+0x88>
		{
			rxPWM[jitter][2] = pulse;
 8002d92:	4b14      	ldr	r3, [pc, #80]	; (8002de4 <PWM3_IRQ+0xac>)
 8002d94:	781b      	ldrb	r3, [r3, #0]
 8002d96:	4a14      	ldr	r2, [pc, #80]	; (8002de8 <PWM3_IRQ+0xb0>)
 8002d98:	00db      	lsls	r3, r3, #3
 8002d9a:	18d3      	adds	r3, r2, r3
 8002d9c:	3304      	adds	r3, #4
 8002d9e:	1d3a      	adds	r2, r7, #4
 8002da0:	8812      	ldrh	r2, [r2, #0]
 8002da2:	801a      	strh	r2, [r3, #0]
			rxHeartbeatPWM[2] = CORE_GetTick();
 8002da4:	f7ff fcc4 	bl	8002730 <CORE_GetTick>
 8002da8:	0003      	movs	r3, r0
 8002daa:	1e5a      	subs	r2, r3, #1
 8002dac:	4193      	sbcs	r3, r2
 8002dae:	b2da      	uxtb	r2, r3
 8002db0:	4b0e      	ldr	r3, [pc, #56]	; (8002dec <PWM3_IRQ+0xb4>)
 8002db2:	709a      	strb	r2, [r3, #2]
			jitter += 1;
 8002db4:	4b0b      	ldr	r3, [pc, #44]	; (8002de4 <PWM3_IRQ+0xac>)
 8002db6:	781b      	ldrb	r3, [r3, #0]
 8002db8:	3301      	adds	r3, #1
 8002dba:	b2da      	uxtb	r2, r3
 8002dbc:	4b09      	ldr	r3, [pc, #36]	; (8002de4 <PWM3_IRQ+0xac>)
 8002dbe:	701a      	strb	r2, [r3, #0]
		}
	}

	if (jitter >= PWM_JITTER_ARRAY) {
 8002dc0:	4b08      	ldr	r3, [pc, #32]	; (8002de4 <PWM3_IRQ+0xac>)
 8002dc2:	781b      	ldrb	r3, [r3, #0]
 8002dc4:	2b02      	cmp	r3, #2
 8002dc6:	d902      	bls.n	8002dce <PWM3_IRQ+0x96>
		jitter = 0;
 8002dc8:	4b06      	ldr	r3, [pc, #24]	; (8002de4 <PWM3_IRQ+0xac>)
 8002dca:	2200      	movs	r2, #0
 8002dcc:	701a      	strb	r2, [r3, #0]
	}
}
 8002dce:	46c0      	nop			; (mov r8, r8)
 8002dd0:	46bd      	mov	sp, r7
 8002dd2:	b002      	add	sp, #8
 8002dd4:	bd80      	pop	{r7, pc}
 8002dd6:	46c0      	nop			; (mov r8, r8)
 8002dd8:	2000003c 	.word	0x2000003c
 8002ddc:	2000040c 	.word	0x2000040c
 8002de0:	000009c4 	.word	0x000009c4
 8002de4:	2000040e 	.word	0x2000040e
 8002de8:	200003d8 	.word	0x200003d8
 8002dec:	200003f0 	.word	0x200003f0

08002df0 <PWM4_IRQ>:

void PWM4_IRQ (void)
{
 8002df0:	b580      	push	{r7, lr}
 8002df2:	b082      	sub	sp, #8
 8002df4:	af00      	add	r7, sp, #0
	uint16_t now = TIM_Read(TIM_RADIO);
 8002df6:	4b26      	ldr	r3, [pc, #152]	; (8002e90 <PWM4_IRQ+0xa0>)
 8002df8:	681b      	ldr	r3, [r3, #0]
 8002dfa:	0018      	movs	r0, r3
 8002dfc:	f7ff fcd4 	bl	80027a8 <TIM_Read>
 8002e00:	0002      	movs	r2, r0
 8002e02:	1dbb      	adds	r3, r7, #6
 8002e04:	801a      	strh	r2, [r3, #0]
	uint16_t pulse = 0;
 8002e06:	1d3b      	adds	r3, r7, #4
 8002e08:	2200      	movs	r2, #0
 8002e0a:	801a      	strh	r2, [r3, #0]
	static uint16_t tick = 0;
	static uint8_t jitter = 0;

	if (GPIO_Read(PWM_S4_GPIO, PWM_S4_PIN))
 8002e0c:	23a0      	movs	r3, #160	; 0xa0
 8002e0e:	05db      	lsls	r3, r3, #23
 8002e10:	2120      	movs	r1, #32
 8002e12:	0018      	movs	r0, r3
 8002e14:	f7ff fcb8 	bl	8002788 <GPIO_Read>
 8002e18:	1e03      	subs	r3, r0, #0
 8002e1a:	d004      	beq.n	8002e26 <PWM4_IRQ+0x36>
	{
		tick = now;
 8002e1c:	4b1d      	ldr	r3, [pc, #116]	; (8002e94 <PWM4_IRQ+0xa4>)
 8002e1e:	1dba      	adds	r2, r7, #6
 8002e20:	8812      	ldrh	r2, [r2, #0]
 8002e22:	801a      	strh	r2, [r3, #0]
 8002e24:	e028      	b.n	8002e78 <PWM4_IRQ+0x88>
	}
	else
	{
		pulse = now - tick;
 8002e26:	4b1b      	ldr	r3, [pc, #108]	; (8002e94 <PWM4_IRQ+0xa4>)
 8002e28:	881a      	ldrh	r2, [r3, #0]
 8002e2a:	1d3b      	adds	r3, r7, #4
 8002e2c:	1db9      	adds	r1, r7, #6
 8002e2e:	8809      	ldrh	r1, [r1, #0]
 8002e30:	1a8a      	subs	r2, r1, r2
 8002e32:	801a      	strh	r2, [r3, #0]

		// Check pulse is valid
		if (pulse <= (PWM_MAX + PWM_THRESHOLD) && pulse >= (PWM_MIN - PWM_THRESHOLD))
 8002e34:	1d3b      	adds	r3, r7, #4
 8002e36:	881b      	ldrh	r3, [r3, #0]
 8002e38:	4a17      	ldr	r2, [pc, #92]	; (8002e98 <PWM4_IRQ+0xa8>)
 8002e3a:	4293      	cmp	r3, r2
 8002e3c:	d81c      	bhi.n	8002e78 <PWM4_IRQ+0x88>
 8002e3e:	1d3b      	adds	r3, r7, #4
 8002e40:	881a      	ldrh	r2, [r3, #0]
 8002e42:	23fa      	movs	r3, #250	; 0xfa
 8002e44:	005b      	lsls	r3, r3, #1
 8002e46:	429a      	cmp	r2, r3
 8002e48:	d316      	bcc.n	8002e78 <PWM4_IRQ+0x88>
		{
			rxPWM[jitter][3] = pulse;
 8002e4a:	4b14      	ldr	r3, [pc, #80]	; (8002e9c <PWM4_IRQ+0xac>)
 8002e4c:	781b      	ldrb	r3, [r3, #0]
 8002e4e:	4a14      	ldr	r2, [pc, #80]	; (8002ea0 <PWM4_IRQ+0xb0>)
 8002e50:	00db      	lsls	r3, r3, #3
 8002e52:	18d3      	adds	r3, r2, r3
 8002e54:	3306      	adds	r3, #6
 8002e56:	1d3a      	adds	r2, r7, #4
 8002e58:	8812      	ldrh	r2, [r2, #0]
 8002e5a:	801a      	strh	r2, [r3, #0]
			rxHeartbeatPWM[3] = CORE_GetTick();
 8002e5c:	f7ff fc68 	bl	8002730 <CORE_GetTick>
 8002e60:	0003      	movs	r3, r0
 8002e62:	1e5a      	subs	r2, r3, #1
 8002e64:	4193      	sbcs	r3, r2
 8002e66:	b2da      	uxtb	r2, r3
 8002e68:	4b0e      	ldr	r3, [pc, #56]	; (8002ea4 <PWM4_IRQ+0xb4>)
 8002e6a:	70da      	strb	r2, [r3, #3]
			jitter += 1;
 8002e6c:	4b0b      	ldr	r3, [pc, #44]	; (8002e9c <PWM4_IRQ+0xac>)
 8002e6e:	781b      	ldrb	r3, [r3, #0]
 8002e70:	3301      	adds	r3, #1
 8002e72:	b2da      	uxtb	r2, r3
 8002e74:	4b09      	ldr	r3, [pc, #36]	; (8002e9c <PWM4_IRQ+0xac>)
 8002e76:	701a      	strb	r2, [r3, #0]
		}
	}

	if (jitter >= PWM_JITTER_ARRAY) {
 8002e78:	4b08      	ldr	r3, [pc, #32]	; (8002e9c <PWM4_IRQ+0xac>)
 8002e7a:	781b      	ldrb	r3, [r3, #0]
 8002e7c:	2b02      	cmp	r3, #2
 8002e7e:	d902      	bls.n	8002e86 <PWM4_IRQ+0x96>
		jitter = 0;
 8002e80:	4b06      	ldr	r3, [pc, #24]	; (8002e9c <PWM4_IRQ+0xac>)
 8002e82:	2200      	movs	r2, #0
 8002e84:	701a      	strb	r2, [r3, #0]
	}
}
 8002e86:	46c0      	nop			; (mov r8, r8)
 8002e88:	46bd      	mov	sp, r7
 8002e8a:	b002      	add	sp, #8
 8002e8c:	bd80      	pop	{r7, pc}
 8002e8e:	46c0      	nop			; (mov r8, r8)
 8002e90:	2000003c 	.word	0x2000003c
 8002e94:	20000410 	.word	0x20000410
 8002e98:	000009c4 	.word	0x000009c4
 8002e9c:	20000412 	.word	0x20000412
 8002ea0:	200003d8 	.word	0x200003d8
 8002ea4:	200003f0 	.word	0x200003f0

08002ea8 <CORE_GetTick>:
{
 8002ea8:	b580      	push	{r7, lr}
 8002eaa:	af00      	add	r7, sp, #0
	return gTicks;
 8002eac:	4b02      	ldr	r3, [pc, #8]	; (8002eb8 <CORE_GetTick+0x10>)
 8002eae:	681b      	ldr	r3, [r3, #0]
}
 8002eb0:	0018      	movs	r0, r3
 8002eb2:	46bd      	mov	sp, r7
 8002eb4:	bd80      	pop	{r7, pc}
 8002eb6:	46c0      	nop			; (mov r8, r8)
 8002eb8:	200004a8 	.word	0x200004a8

08002ebc <RADIO_Detect>:
/*
 * PUBLIC FUNCTIONS
 */

void RADIO_Detect (RADIO_Properties * r)
{
 8002ebc:	b580      	push	{r7, lr}
 8002ebe:	b084      	sub	sp, #16
 8002ec0:	af00      	add	r7, sp, #0
 8002ec2:	6078      	str	r0, [r7, #4]
	PWM_Deinit();
 8002ec4:	f7ff fd18 	bl	80028f8 <PWM_Deinit>
	PPM_Deinit();
 8002ec8:	f7ff faac 	bl	8002424 <PPM_Deinit>
	SBUS_Deinit();
 8002ecc:	f000 f952 	bl	8003174 <SBUS_Deinit>
	IBUS_Deinit();
 8002ed0:	f7ff f88a 	bl	8001fe8 <IBUS_Deinit>

	uint32_t tick = CORE_GetTick();
 8002ed4:	f7ff ffe8 	bl	8002ea8 <CORE_GetTick>
 8002ed8:	0003      	movs	r3, r0
 8002eda:	60fb      	str	r3, [r7, #12]

	while (1)
	{
		uint32_t now = CORE_GetTick();
 8002edc:	f7ff ffe4 	bl	8002ea8 <CORE_GetTick>
 8002ee0:	0003      	movs	r3, r0
 8002ee2:	60bb      	str	r3, [r7, #8]
//		{
//			r->Protocol = PPM;
//			break;
//		}

		if (SBUS_Detect(SBUS_BAUD))
 8002ee4:	4b19      	ldr	r3, [pc, #100]	; (8002f4c <RADIO_Detect+0x90>)
 8002ee6:	0018      	movs	r0, r3
 8002ee8:	f000 f8fa 	bl	80030e0 <SBUS_Detect>
 8002eec:	1e03      	subs	r3, r0, #0
 8002eee:	d006      	beq.n	8002efe <RADIO_Detect+0x42>
		{
			r->Protocol = SBUS;
 8002ef0:	687b      	ldr	r3, [r7, #4]
 8002ef2:	2201      	movs	r2, #1
 8002ef4:	711a      	strb	r2, [r3, #4]
			r->Baud_SBUS = SBUS_BAUD;
 8002ef6:	687b      	ldr	r3, [r7, #4]
 8002ef8:	4a14      	ldr	r2, [pc, #80]	; (8002f4c <RADIO_Detect+0x90>)
 8002efa:	601a      	str	r2, [r3, #0]
			break;
 8002efc:	e022      	b.n	8002f44 <RADIO_Detect+0x88>
		}

		if (SBUS_Detect(SBUS_BAUD_FAST))
 8002efe:	4b14      	ldr	r3, [pc, #80]	; (8002f50 <RADIO_Detect+0x94>)
 8002f00:	0018      	movs	r0, r3
 8002f02:	f000 f8ed 	bl	80030e0 <SBUS_Detect>
 8002f06:	1e03      	subs	r3, r0, #0
 8002f08:	d006      	beq.n	8002f18 <RADIO_Detect+0x5c>
		{
			r->Protocol = SBUS;
 8002f0a:	687b      	ldr	r3, [r7, #4]
 8002f0c:	2201      	movs	r2, #1
 8002f0e:	711a      	strb	r2, [r3, #4]
			r->Baud_SBUS = SBUS_BAUD_FAST;
 8002f10:	687b      	ldr	r3, [r7, #4]
 8002f12:	4a0f      	ldr	r2, [pc, #60]	; (8002f50 <RADIO_Detect+0x94>)
 8002f14:	601a      	str	r2, [r3, #0]
			break;
 8002f16:	e015      	b.n	8002f44 <RADIO_Detect+0x88>
//		{
//			r->Protocol = IBUS;
//			break;
//		}

		if (PWM_Detect())
 8002f18:	f7ff fc52 	bl	80027c0 <PWM_Detect>
 8002f1c:	1e03      	subs	r3, r0, #0
 8002f1e:	d003      	beq.n	8002f28 <RADIO_Detect+0x6c>
		{
			r->Protocol = PWM;
 8002f20:	687b      	ldr	r3, [r7, #4]
 8002f22:	2203      	movs	r2, #3
 8002f24:	711a      	strb	r2, [r3, #4]
			break;
 8002f26:	e00d      	b.n	8002f44 <RADIO_Detect+0x88>
		}

		if ( RADIO_DETECT_TIMEOUT <= (now - tick))
 8002f28:	68ba      	ldr	r2, [r7, #8]
 8002f2a:	68fb      	ldr	r3, [r7, #12]
 8002f2c:	1ad2      	subs	r2, r2, r3
 8002f2e:	23fa      	movs	r3, #250	; 0xfa
 8002f30:	009b      	lsls	r3, r3, #2
 8002f32:	429a      	cmp	r2, r3
 8002f34:	d303      	bcc.n	8002f3e <RADIO_Detect+0x82>
		{
			r->Protocol = PWM;
 8002f36:	687b      	ldr	r3, [r7, #4]
 8002f38:	2203      	movs	r2, #3
 8002f3a:	711a      	strb	r2, [r3, #4]
			break;
 8002f3c:	e002      	b.n	8002f44 <RADIO_Detect+0x88>
		}

		CORE_Idle();
 8002f3e:	f000 fda9 	bl	8003a94 <CORE_Idle>
	{
 8002f42:	e7cb      	b.n	8002edc <RADIO_Detect+0x20>
	}
}
 8002f44:	46c0      	nop			; (mov r8, r8)
 8002f46:	46bd      	mov	sp, r7
 8002f48:	b004      	add	sp, #16
 8002f4a:	bd80      	pop	{r7, pc}
 8002f4c:	000186a0 	.word	0x000186a0
 8002f50:	00030d40 	.word	0x00030d40

08002f54 <RADIO_Init>:

void RADIO_Init (RADIO_Properties *r)
{
 8002f54:	b580      	push	{r7, lr}
 8002f56:	b082      	sub	sp, #8
 8002f58:	af00      	add	r7, sp, #0
 8002f5a:	6078      	str	r0, [r7, #4]
	radio.Baud_SBUS = r->Baud_SBUS;
 8002f5c:	687b      	ldr	r3, [r7, #4]
 8002f5e:	681a      	ldr	r2, [r3, #0]
 8002f60:	4b21      	ldr	r3, [pc, #132]	; (8002fe8 <RADIO_Init+0x94>)
 8002f62:	601a      	str	r2, [r3, #0]
	radio.Protocol = r->Protocol;
 8002f64:	687b      	ldr	r3, [r7, #4]
 8002f66:	791a      	ldrb	r2, [r3, #4]
 8002f68:	4b1f      	ldr	r3, [pc, #124]	; (8002fe8 <RADIO_Init+0x94>)
 8002f6a:	711a      	strb	r2, [r3, #4]

	if (radio.Protocol == PPM)
 8002f6c:	4b1e      	ldr	r3, [pc, #120]	; (8002fe8 <RADIO_Init+0x94>)
 8002f6e:	791b      	ldrb	r3, [r3, #4]
 8002f70:	2b00      	cmp	r3, #0
 8002f72:	d10a      	bne.n	8002f8a <RADIO_Init+0x36>
	{
		data.ch_num = PPM_NUM_CHANNELS;
 8002f74:	4b1d      	ldr	r3, [pc, #116]	; (8002fec <RADIO_Init+0x98>)
 8002f76:	2208      	movs	r2, #8
 8002f78:	705a      	strb	r2, [r3, #1]
		PPM_Init();
 8002f7a:	f7ff fa27 	bl	80023cc <PPM_Init>
		ptrData.ppm = PPM_GetDataPtr();
 8002f7e:	f7ff faf5 	bl	800256c <PPM_GetDataPtr>
 8002f82:	0002      	movs	r2, r0
 8002f84:	4b1a      	ldr	r3, [pc, #104]	; (8002ff0 <RADIO_Init+0x9c>)
 8002f86:	601a      	str	r2, [r3, #0]
	{
		data.ch_num = PWM_NUM_CHANNELS;
		PWM_Init();
		ptrData.pwm = PWM_GetDataPtr();
	}
}
 8002f88:	e02a      	b.n	8002fe0 <RADIO_Init+0x8c>
	else if (radio.Protocol == SBUS)
 8002f8a:	4b17      	ldr	r3, [pc, #92]	; (8002fe8 <RADIO_Init+0x94>)
 8002f8c:	791b      	ldrb	r3, [r3, #4]
 8002f8e:	2b01      	cmp	r3, #1
 8002f90:	d10d      	bne.n	8002fae <RADIO_Init+0x5a>
		data.ch_num = SBUS_NUM_CHANNELS;
 8002f92:	4b16      	ldr	r3, [pc, #88]	; (8002fec <RADIO_Init+0x98>)
 8002f94:	2210      	movs	r2, #16
 8002f96:	705a      	strb	r2, [r3, #1]
		SBUS_Init(radio.Baud_SBUS);
 8002f98:	4b13      	ldr	r3, [pc, #76]	; (8002fe8 <RADIO_Init+0x94>)
 8002f9a:	681b      	ldr	r3, [r3, #0]
 8002f9c:	0018      	movs	r0, r3
 8002f9e:	f000 f8cb 	bl	8003138 <SBUS_Init>
		ptrData.sbus = SBUS_GetDataPtr();
 8002fa2:	f000 fac3 	bl	800352c <SBUS_GetDataPtr>
 8002fa6:	0002      	movs	r2, r0
 8002fa8:	4b11      	ldr	r3, [pc, #68]	; (8002ff0 <RADIO_Init+0x9c>)
 8002faa:	601a      	str	r2, [r3, #0]
}
 8002fac:	e018      	b.n	8002fe0 <RADIO_Init+0x8c>
	else if (radio.Protocol == IBUS)
 8002fae:	4b0e      	ldr	r3, [pc, #56]	; (8002fe8 <RADIO_Init+0x94>)
 8002fb0:	791b      	ldrb	r3, [r3, #4]
 8002fb2:	2b02      	cmp	r3, #2
 8002fb4:	d10a      	bne.n	8002fcc <RADIO_Init+0x78>
		data.ch_num = IBUS_NUM_CHANNELS;
 8002fb6:	4b0d      	ldr	r3, [pc, #52]	; (8002fec <RADIO_Init+0x98>)
 8002fb8:	220e      	movs	r2, #14
 8002fba:	705a      	strb	r2, [r3, #1]
		IBUS_Init();
 8002fbc:	f7fe fffc 	bl	8001fb8 <IBUS_Init>
		ptrData.ibus = IBUS_GetDataPtr();
 8002fc0:	f7ff f8ba 	bl	8002138 <IBUS_GetDataPtr>
 8002fc4:	0002      	movs	r2, r0
 8002fc6:	4b0a      	ldr	r3, [pc, #40]	; (8002ff0 <RADIO_Init+0x9c>)
 8002fc8:	601a      	str	r2, [r3, #0]
}
 8002fca:	e009      	b.n	8002fe0 <RADIO_Init+0x8c>
		data.ch_num = PWM_NUM_CHANNELS;
 8002fcc:	4b07      	ldr	r3, [pc, #28]	; (8002fec <RADIO_Init+0x98>)
 8002fce:	2204      	movs	r2, #4
 8002fd0:	705a      	strb	r2, [r3, #1]
		PWM_Init();
 8002fd2:	f7ff fc37 	bl	8002844 <PWM_Init>
		ptrData.pwm = PWM_GetDataPtr();
 8002fd6:	f7ff fd71 	bl	8002abc <PWM_GetDataPtr>
 8002fda:	0002      	movs	r2, r0
 8002fdc:	4b04      	ldr	r3, [pc, #16]	; (8002ff0 <RADIO_Init+0x9c>)
 8002fde:	601a      	str	r2, [r3, #0]
}
 8002fe0:	46c0      	nop			; (mov r8, r8)
 8002fe2:	46bd      	mov	sp, r7
 8002fe4:	b002      	add	sp, #8
 8002fe6:	bd80      	pop	{r7, pc}
 8002fe8:	20000414 	.word	0x20000414
 8002fec:	2000041c 	.word	0x2000041c
 8002ff0:	20000440 	.word	0x20000440

08002ff4 <RADIO_Update>:

void RADIO_Update (void)
{
 8002ff4:	b580      	push	{r7, lr}
 8002ff6:	af00      	add	r7, sp, #0
	switch (radio.Protocol) {
 8002ff8:	4b2c      	ldr	r3, [pc, #176]	; (80030ac <RADIO_Update+0xb8>)
 8002ffa:	791b      	ldrb	r3, [r3, #4]
 8002ffc:	2b03      	cmp	r3, #3
 8002ffe:	d008      	beq.n	8003012 <RADIO_Update+0x1e>
 8003000:	dc47      	bgt.n	8003092 <RADIO_Update+0x9e>
 8003002:	2b02      	cmp	r3, #2
 8003004:	d025      	beq.n	8003052 <RADIO_Update+0x5e>
 8003006:	dc44      	bgt.n	8003092 <RADIO_Update+0x9e>
 8003008:	2b00      	cmp	r3, #0
 800300a:	d012      	beq.n	8003032 <RADIO_Update+0x3e>
 800300c:	2b01      	cmp	r3, #1
 800300e:	d030      	beq.n	8003072 <RADIO_Update+0x7e>
 8003010:	e03f      	b.n	8003092 <RADIO_Update+0x9e>

	case PWM:
		PWM_Update();
 8003012:	f7ff fcb3 	bl	800297c <PWM_Update>
		data.inputLost = ptrData.pwm->inputLost;
 8003016:	4b26      	ldr	r3, [pc, #152]	; (80030b0 <RADIO_Update+0xbc>)
 8003018:	681b      	ldr	r3, [r3, #0]
 800301a:	781a      	ldrb	r2, [r3, #0]
 800301c:	4b25      	ldr	r3, [pc, #148]	; (80030b4 <RADIO_Update+0xc0>)
 800301e:	701a      	strb	r2, [r3, #0]
		memcpy(data.ch, ptrData.pwm->ch, sizeof(ptrData.pwm->ch));
 8003020:	4b23      	ldr	r3, [pc, #140]	; (80030b0 <RADIO_Update+0xbc>)
 8003022:	681b      	ldr	r3, [r3, #0]
 8003024:	1c99      	adds	r1, r3, #2
 8003026:	4b24      	ldr	r3, [pc, #144]	; (80030b8 <RADIO_Update+0xc4>)
 8003028:	2208      	movs	r2, #8
 800302a:	0018      	movs	r0, r3
 800302c:	f001 fe86 	bl	8004d3c <memcpy>
		break;
 8003030:	e038      	b.n	80030a4 <RADIO_Update+0xb0>

	case PPM:
		PPM_Update();
 8003032:	f7ff fa13 	bl	800245c <PPM_Update>
		data.inputLost = ptrData.ppm->inputLost;
 8003036:	4b1e      	ldr	r3, [pc, #120]	; (80030b0 <RADIO_Update+0xbc>)
 8003038:	681b      	ldr	r3, [r3, #0]
 800303a:	781a      	ldrb	r2, [r3, #0]
 800303c:	4b1d      	ldr	r3, [pc, #116]	; (80030b4 <RADIO_Update+0xc0>)
 800303e:	701a      	strb	r2, [r3, #0]
		memcpy(data.ch, ptrData.ppm->ch, sizeof(ptrData.ppm->ch));
 8003040:	4b1b      	ldr	r3, [pc, #108]	; (80030b0 <RADIO_Update+0xbc>)
 8003042:	681b      	ldr	r3, [r3, #0]
 8003044:	1c99      	adds	r1, r3, #2
 8003046:	4b1c      	ldr	r3, [pc, #112]	; (80030b8 <RADIO_Update+0xc4>)
 8003048:	2210      	movs	r2, #16
 800304a:	0018      	movs	r0, r3
 800304c:	f001 fe76 	bl	8004d3c <memcpy>
		break;
 8003050:	e028      	b.n	80030a4 <RADIO_Update+0xb0>

	case IBUS:
		IBUS_Update();
 8003052:	f7fe ffd5 	bl	8002000 <IBUS_Update>
		data.inputLost = ptrData.ibus->inputLost;
 8003056:	4b16      	ldr	r3, [pc, #88]	; (80030b0 <RADIO_Update+0xbc>)
 8003058:	681b      	ldr	r3, [r3, #0]
 800305a:	781a      	ldrb	r2, [r3, #0]
 800305c:	4b15      	ldr	r3, [pc, #84]	; (80030b4 <RADIO_Update+0xc0>)
 800305e:	701a      	strb	r2, [r3, #0]
		memcpy(data.ch, ptrData.ibus->ch, sizeof(ptrData.ibus->ch));
 8003060:	4b13      	ldr	r3, [pc, #76]	; (80030b0 <RADIO_Update+0xbc>)
 8003062:	681b      	ldr	r3, [r3, #0]
 8003064:	1c99      	adds	r1, r3, #2
 8003066:	4b14      	ldr	r3, [pc, #80]	; (80030b8 <RADIO_Update+0xc4>)
 8003068:	221c      	movs	r2, #28
 800306a:	0018      	movs	r0, r3
 800306c:	f001 fe66 	bl	8004d3c <memcpy>
		break;
 8003070:	e018      	b.n	80030a4 <RADIO_Update+0xb0>

	case SBUS:
		SBUS_Update();
 8003072:	f000 f88b 	bl	800318c <SBUS_Update>
		data.inputLost = ptrData.sbus->inputLost;
 8003076:	4b0e      	ldr	r3, [pc, #56]	; (80030b0 <RADIO_Update+0xbc>)
 8003078:	681b      	ldr	r3, [r3, #0]
 800307a:	781a      	ldrb	r2, [r3, #0]
 800307c:	4b0d      	ldr	r3, [pc, #52]	; (80030b4 <RADIO_Update+0xc0>)
 800307e:	701a      	strb	r2, [r3, #0]
		memcpy(data.ch, ptrData.sbus->ch, sizeof(ptrData.sbus->ch));
 8003080:	4b0b      	ldr	r3, [pc, #44]	; (80030b0 <RADIO_Update+0xbc>)
 8003082:	681b      	ldr	r3, [r3, #0]
 8003084:	1d99      	adds	r1, r3, #6
 8003086:	4b0c      	ldr	r3, [pc, #48]	; (80030b8 <RADIO_Update+0xc4>)
 8003088:	2220      	movs	r2, #32
 800308a:	0018      	movs	r0, r3
 800308c:	f001 fe56 	bl	8004d3c <memcpy>
		break;
 8003090:	e008      	b.n	80030a4 <RADIO_Update+0xb0>

	default:
		radio.Protocol = PWM;
 8003092:	4b06      	ldr	r3, [pc, #24]	; (80030ac <RADIO_Update+0xb8>)
 8003094:	2203      	movs	r2, #3
 8003096:	711a      	strb	r2, [r3, #4]
		ptrData.pwm = PWM_GetDataPtr();
 8003098:	f7ff fd10 	bl	8002abc <PWM_GetDataPtr>
 800309c:	0002      	movs	r2, r0
 800309e:	4b04      	ldr	r3, [pc, #16]	; (80030b0 <RADIO_Update+0xbc>)
 80030a0:	601a      	str	r2, [r3, #0]
		break;
 80030a2:	46c0      	nop			; (mov r8, r8)
	}
}
 80030a4:	46c0      	nop			; (mov r8, r8)
 80030a6:	46bd      	mov	sp, r7
 80030a8:	bd80      	pop	{r7, pc}
 80030aa:	46c0      	nop			; (mov r8, r8)
 80030ac:	20000414 	.word	0x20000414
 80030b0:	20000440 	.word	0x20000440
 80030b4:	2000041c 	.word	0x2000041c
 80030b8:	2000041e 	.word	0x2000041e

080030bc <RADIO_GetDataPtr>:

RADIO_Data* RADIO_GetDataPtr (void)
{
 80030bc:	b580      	push	{r7, lr}
 80030be:	af00      	add	r7, sp, #0
	return &data;
 80030c0:	4b01      	ldr	r3, [pc, #4]	; (80030c8 <RADIO_GetDataPtr+0xc>)
}
 80030c2:	0018      	movs	r0, r3
 80030c4:	46bd      	mov	sp, r7
 80030c6:	bd80      	pop	{r7, pc}
 80030c8:	2000041c 	.word	0x2000041c

080030cc <CORE_GetTick>:
{
 80030cc:	b580      	push	{r7, lr}
 80030ce:	af00      	add	r7, sp, #0
	return gTicks;
 80030d0:	4b02      	ldr	r3, [pc, #8]	; (80030dc <CORE_GetTick+0x10>)
 80030d2:	681b      	ldr	r3, [r3, #0]
}
 80030d4:	0018      	movs	r0, r3
 80030d6:	46bd      	mov	sp, r7
 80030d8:	bd80      	pop	{r7, pc}
 80030da:	46c0      	nop			; (mov r8, r8)
 80030dc:	200004a8 	.word	0x200004a8

080030e0 <SBUS_Detect>:
/*
 * PUBLIC FUNCTIONS
 */

bool SBUS_Detect(uint32_t baud)
{
 80030e0:	b580      	push	{r7, lr}
 80030e2:	b084      	sub	sp, #16
 80030e4:	af00      	add	r7, sp, #0
 80030e6:	6078      	str	r0, [r7, #4]
	bool retVal = false;
 80030e8:	230f      	movs	r3, #15
 80030ea:	18fb      	adds	r3, r7, r3
 80030ec:	2200      	movs	r2, #0
 80030ee:	701a      	strb	r2, [r3, #0]

	SBUS_Init(baud);
 80030f0:	687b      	ldr	r3, [r7, #4]
 80030f2:	0018      	movs	r0, r3
 80030f4:	f000 f820 	bl	8003138 <SBUS_Init>

	uint32_t tick = CORE_GetTick();
 80030f8:	f7ff ffe8 	bl	80030cc <CORE_GetTick>
 80030fc:	0003      	movs	r3, r0
 80030fe:	60bb      	str	r3, [r7, #8]
	while ((SBUS_TIMEOUT * 2) > CORE_GetTick() - tick)
 8003100:	e009      	b.n	8003116 <SBUS_Detect+0x36>
	{
		if (SBUS_HandleUART())
 8003102:	f000 fa6b 	bl	80035dc <SBUS_HandleUART>
 8003106:	1e03      	subs	r3, r0, #0
 8003108:	d003      	beq.n	8003112 <SBUS_Detect+0x32>
		{
			retVal = true;
 800310a:	230f      	movs	r3, #15
 800310c:	18fb      	adds	r3, r7, r3
 800310e:	2201      	movs	r2, #1
 8003110:	701a      	strb	r2, [r3, #0]
		}
		CORE_Idle();
 8003112:	f000 fcbf 	bl	8003a94 <CORE_Idle>
	while ((SBUS_TIMEOUT * 2) > CORE_GetTick() - tick)
 8003116:	f7ff ffd9 	bl	80030cc <CORE_GetTick>
 800311a:	0002      	movs	r2, r0
 800311c:	68bb      	ldr	r3, [r7, #8]
 800311e:	1ad3      	subs	r3, r2, r3
 8003120:	2b53      	cmp	r3, #83	; 0x53
 8003122:	d9ee      	bls.n	8003102 <SBUS_Detect+0x22>
	}

	SBUS_Deinit();
 8003124:	f000 f826 	bl	8003174 <SBUS_Deinit>

	return retVal;
 8003128:	230f      	movs	r3, #15
 800312a:	18fb      	adds	r3, r7, r3
 800312c:	781b      	ldrb	r3, [r3, #0]
}
 800312e:	0018      	movs	r0, r3
 8003130:	46bd      	mov	sp, r7
 8003132:	b004      	add	sp, #16
 8003134:	bd80      	pop	{r7, pc}
	...

08003138 <SBUS_Init>:

void SBUS_Init (uint32_t baud)
{
 8003138:	b580      	push	{r7, lr}
 800313a:	b082      	sub	sp, #8
 800313c:	af00      	add	r7, sp, #0
 800313e:	6078      	str	r0, [r7, #4]
	memset(rxSBUS, 0, sizeof(rxSBUS));
 8003140:	4b0a      	ldr	r3, [pc, #40]	; (800316c <SBUS_Init+0x34>)
 8003142:	2232      	movs	r2, #50	; 0x32
 8003144:	2100      	movs	r1, #0
 8003146:	0018      	movs	r0, r3
 8003148:	f001 fe01 	bl	8004d4e <memset>

	UART_Init(SBUS_UART, baud, UART_Mode_Inverted);
 800314c:	4b08      	ldr	r3, [pc, #32]	; (8003170 <SBUS_Init+0x38>)
 800314e:	681b      	ldr	r3, [r3, #0]
 8003150:	6879      	ldr	r1, [r7, #4]
 8003152:	2201      	movs	r2, #1
 8003154:	0018      	movs	r0, r3
 8003156:	f001 fb1b 	bl	8004790 <UART_Init>
	UART_ReadFlush(SBUS_UART);
 800315a:	4b05      	ldr	r3, [pc, #20]	; (8003170 <SBUS_Init+0x38>)
 800315c:	681b      	ldr	r3, [r3, #0]
 800315e:	0018      	movs	r0, r3
 8003160:	f001 fca8 	bl	8004ab4 <UART_ReadFlush>
}
 8003164:	46c0      	nop			; (mov r8, r8)
 8003166:	46bd      	mov	sp, r7
 8003168:	b002      	add	sp, #8
 800316a:	bd80      	pop	{r7, pc}
 800316c:	20000444 	.word	0x20000444
 8003170:	2000028c 	.word	0x2000028c

08003174 <SBUS_Deinit>:

void SBUS_Deinit (void)
{
 8003174:	b580      	push	{r7, lr}
 8003176:	af00      	add	r7, sp, #0
	UART_Deinit(SBUS_UART);
 8003178:	4b03      	ldr	r3, [pc, #12]	; (8003188 <SBUS_Deinit+0x14>)
 800317a:	681b      	ldr	r3, [r3, #0]
 800317c:	0018      	movs	r0, r3
 800317e:	f001 fbef 	bl	8004960 <UART_Deinit>
}
 8003182:	46c0      	nop			; (mov r8, r8)
 8003184:	46bd      	mov	sp, r7
 8003186:	bd80      	pop	{r7, pc}
 8003188:	2000028c 	.word	0x2000028c

0800318c <SBUS_Update>:

void SBUS_Update (void)
{
 800318c:	b580      	push	{r7, lr}
 800318e:	b082      	sub	sp, #8
 8003190:	af00      	add	r7, sp, #0
	// Update Loop Variables
	uint32_t now = CORE_GetTick();
 8003192:	f7ff ff9b 	bl	80030cc <CORE_GetTick>
 8003196:	0003      	movs	r3, r0
 8003198:	607b      	str	r3, [r7, #4]
	static uint32_t prev = 0;

	// Check for New Input Data
	if (SBUS_HandleUART())
 800319a:	f000 fa1f 	bl	80035dc <SBUS_HandleUART>
 800319e:	1e03      	subs	r3, r0, #0
 80031a0:	d100      	bne.n	80031a4 <SBUS_Update+0x18>
 80031a2:	e19d      	b.n	80034e0 <SBUS_Update+0x354>
	{
		dataSBUS.ch[0]  = SBUS_Transform( (int16_t)( (rxSBUS[1]		  | rxSBUS[2] << 8 ) & 0x07FF) );
 80031a4:	4bde      	ldr	r3, [pc, #888]	; (8003520 <SBUS_Update+0x394>)
 80031a6:	785b      	ldrb	r3, [r3, #1]
 80031a8:	b21a      	sxth	r2, r3
 80031aa:	4bdd      	ldr	r3, [pc, #884]	; (8003520 <SBUS_Update+0x394>)
 80031ac:	789b      	ldrb	r3, [r3, #2]
 80031ae:	021b      	lsls	r3, r3, #8
 80031b0:	b21b      	sxth	r3, r3
 80031b2:	4313      	orrs	r3, r2
 80031b4:	b21b      	sxth	r3, r3
 80031b6:	b29b      	uxth	r3, r3
 80031b8:	055b      	lsls	r3, r3, #21
 80031ba:	0d5b      	lsrs	r3, r3, #21
 80031bc:	b29b      	uxth	r3, r3
 80031be:	0018      	movs	r0, r3
 80031c0:	f000 f9bc 	bl	800353c <SBUS_Transform>
 80031c4:	0003      	movs	r3, r0
 80031c6:	b21a      	sxth	r2, r3
 80031c8:	4bd6      	ldr	r3, [pc, #856]	; (8003524 <SBUS_Update+0x398>)
 80031ca:	80da      	strh	r2, [r3, #6]
		dataSBUS.ch[1]  = SBUS_Transform( (int16_t)( (rxSBUS[2]  >> 3 | rxSBUS[3] << 5 ) & 0x07FF) );
 80031cc:	4bd4      	ldr	r3, [pc, #848]	; (8003520 <SBUS_Update+0x394>)
 80031ce:	789b      	ldrb	r3, [r3, #2]
 80031d0:	08db      	lsrs	r3, r3, #3
 80031d2:	b2db      	uxtb	r3, r3
 80031d4:	b21a      	sxth	r2, r3
 80031d6:	4bd2      	ldr	r3, [pc, #840]	; (8003520 <SBUS_Update+0x394>)
 80031d8:	78db      	ldrb	r3, [r3, #3]
 80031da:	015b      	lsls	r3, r3, #5
 80031dc:	b21b      	sxth	r3, r3
 80031de:	4313      	orrs	r3, r2
 80031e0:	b21b      	sxth	r3, r3
 80031e2:	b29b      	uxth	r3, r3
 80031e4:	055b      	lsls	r3, r3, #21
 80031e6:	0d5b      	lsrs	r3, r3, #21
 80031e8:	b29b      	uxth	r3, r3
 80031ea:	0018      	movs	r0, r3
 80031ec:	f000 f9a6 	bl	800353c <SBUS_Transform>
 80031f0:	0003      	movs	r3, r0
 80031f2:	b21a      	sxth	r2, r3
 80031f4:	4bcb      	ldr	r3, [pc, #812]	; (8003524 <SBUS_Update+0x398>)
 80031f6:	811a      	strh	r2, [r3, #8]
		dataSBUS.ch[2]  = SBUS_Transform( (int16_t)( (rxSBUS[3]  >> 6 | rxSBUS[4] << 2  | rxSBUS[5] << 10 ) & 0x07FF) );
 80031f8:	4bc9      	ldr	r3, [pc, #804]	; (8003520 <SBUS_Update+0x394>)
 80031fa:	78db      	ldrb	r3, [r3, #3]
 80031fc:	099b      	lsrs	r3, r3, #6
 80031fe:	b2db      	uxtb	r3, r3
 8003200:	b21a      	sxth	r2, r3
 8003202:	4bc7      	ldr	r3, [pc, #796]	; (8003520 <SBUS_Update+0x394>)
 8003204:	791b      	ldrb	r3, [r3, #4]
 8003206:	009b      	lsls	r3, r3, #2
 8003208:	b21b      	sxth	r3, r3
 800320a:	4313      	orrs	r3, r2
 800320c:	b21a      	sxth	r2, r3
 800320e:	4bc4      	ldr	r3, [pc, #784]	; (8003520 <SBUS_Update+0x394>)
 8003210:	795b      	ldrb	r3, [r3, #5]
 8003212:	029b      	lsls	r3, r3, #10
 8003214:	b21b      	sxth	r3, r3
 8003216:	4313      	orrs	r3, r2
 8003218:	b21b      	sxth	r3, r3
 800321a:	b29b      	uxth	r3, r3
 800321c:	055b      	lsls	r3, r3, #21
 800321e:	0d5b      	lsrs	r3, r3, #21
 8003220:	b29b      	uxth	r3, r3
 8003222:	0018      	movs	r0, r3
 8003224:	f000 f98a 	bl	800353c <SBUS_Transform>
 8003228:	0003      	movs	r3, r0
 800322a:	b21a      	sxth	r2, r3
 800322c:	4bbd      	ldr	r3, [pc, #756]	; (8003524 <SBUS_Update+0x398>)
 800322e:	815a      	strh	r2, [r3, #10]
		dataSBUS.ch[3]  = SBUS_Transform( (int16_t)( (rxSBUS[5]  >> 1 | rxSBUS[6] << 7 ) & 0x07FF) );
 8003230:	4bbb      	ldr	r3, [pc, #748]	; (8003520 <SBUS_Update+0x394>)
 8003232:	795b      	ldrb	r3, [r3, #5]
 8003234:	085b      	lsrs	r3, r3, #1
 8003236:	b2db      	uxtb	r3, r3
 8003238:	b21a      	sxth	r2, r3
 800323a:	4bb9      	ldr	r3, [pc, #740]	; (8003520 <SBUS_Update+0x394>)
 800323c:	799b      	ldrb	r3, [r3, #6]
 800323e:	01db      	lsls	r3, r3, #7
 8003240:	b21b      	sxth	r3, r3
 8003242:	4313      	orrs	r3, r2
 8003244:	b21b      	sxth	r3, r3
 8003246:	b29b      	uxth	r3, r3
 8003248:	055b      	lsls	r3, r3, #21
 800324a:	0d5b      	lsrs	r3, r3, #21
 800324c:	b29b      	uxth	r3, r3
 800324e:	0018      	movs	r0, r3
 8003250:	f000 f974 	bl	800353c <SBUS_Transform>
 8003254:	0003      	movs	r3, r0
 8003256:	b21a      	sxth	r2, r3
 8003258:	4bb2      	ldr	r3, [pc, #712]	; (8003524 <SBUS_Update+0x398>)
 800325a:	819a      	strh	r2, [r3, #12]
		dataSBUS.ch[4]  = SBUS_Transform( (int16_t)( (rxSBUS[6]  >> 4 | rxSBUS[7] << 4 ) & 0x07FF) );
 800325c:	4bb0      	ldr	r3, [pc, #704]	; (8003520 <SBUS_Update+0x394>)
 800325e:	799b      	ldrb	r3, [r3, #6]
 8003260:	091b      	lsrs	r3, r3, #4
 8003262:	b2db      	uxtb	r3, r3
 8003264:	b21a      	sxth	r2, r3
 8003266:	4bae      	ldr	r3, [pc, #696]	; (8003520 <SBUS_Update+0x394>)
 8003268:	79db      	ldrb	r3, [r3, #7]
 800326a:	011b      	lsls	r3, r3, #4
 800326c:	b21b      	sxth	r3, r3
 800326e:	4313      	orrs	r3, r2
 8003270:	b21b      	sxth	r3, r3
 8003272:	b29b      	uxth	r3, r3
 8003274:	055b      	lsls	r3, r3, #21
 8003276:	0d5b      	lsrs	r3, r3, #21
 8003278:	b29b      	uxth	r3, r3
 800327a:	0018      	movs	r0, r3
 800327c:	f000 f95e 	bl	800353c <SBUS_Transform>
 8003280:	0003      	movs	r3, r0
 8003282:	b21a      	sxth	r2, r3
 8003284:	4ba7      	ldr	r3, [pc, #668]	; (8003524 <SBUS_Update+0x398>)
 8003286:	81da      	strh	r2, [r3, #14]
		dataSBUS.ch[5]  = SBUS_Transform( (int16_t)( (rxSBUS[7]  >> 7 | rxSBUS[8] << 1 | rxSBUS[9] << 9 ) & 0x07FF) );
 8003288:	4ba5      	ldr	r3, [pc, #660]	; (8003520 <SBUS_Update+0x394>)
 800328a:	79db      	ldrb	r3, [r3, #7]
 800328c:	09db      	lsrs	r3, r3, #7
 800328e:	b2db      	uxtb	r3, r3
 8003290:	b21a      	sxth	r2, r3
 8003292:	4ba3      	ldr	r3, [pc, #652]	; (8003520 <SBUS_Update+0x394>)
 8003294:	7a1b      	ldrb	r3, [r3, #8]
 8003296:	005b      	lsls	r3, r3, #1
 8003298:	b21b      	sxth	r3, r3
 800329a:	4313      	orrs	r3, r2
 800329c:	b21a      	sxth	r2, r3
 800329e:	4ba0      	ldr	r3, [pc, #640]	; (8003520 <SBUS_Update+0x394>)
 80032a0:	7a5b      	ldrb	r3, [r3, #9]
 80032a2:	025b      	lsls	r3, r3, #9
 80032a4:	b21b      	sxth	r3, r3
 80032a6:	4313      	orrs	r3, r2
 80032a8:	b21b      	sxth	r3, r3
 80032aa:	b29b      	uxth	r3, r3
 80032ac:	055b      	lsls	r3, r3, #21
 80032ae:	0d5b      	lsrs	r3, r3, #21
 80032b0:	b29b      	uxth	r3, r3
 80032b2:	0018      	movs	r0, r3
 80032b4:	f000 f942 	bl	800353c <SBUS_Transform>
 80032b8:	0003      	movs	r3, r0
 80032ba:	b21a      	sxth	r2, r3
 80032bc:	4b99      	ldr	r3, [pc, #612]	; (8003524 <SBUS_Update+0x398>)
 80032be:	821a      	strh	r2, [r3, #16]
		dataSBUS.ch[6]  = SBUS_Transform( (int16_t)( (rxSBUS[9]  >> 2 | rxSBUS[10] << 6 ) & 0x07FF) );
 80032c0:	4b97      	ldr	r3, [pc, #604]	; (8003520 <SBUS_Update+0x394>)
 80032c2:	7a5b      	ldrb	r3, [r3, #9]
 80032c4:	089b      	lsrs	r3, r3, #2
 80032c6:	b2db      	uxtb	r3, r3
 80032c8:	b21a      	sxth	r2, r3
 80032ca:	4b95      	ldr	r3, [pc, #596]	; (8003520 <SBUS_Update+0x394>)
 80032cc:	7a9b      	ldrb	r3, [r3, #10]
 80032ce:	019b      	lsls	r3, r3, #6
 80032d0:	b21b      	sxth	r3, r3
 80032d2:	4313      	orrs	r3, r2
 80032d4:	b21b      	sxth	r3, r3
 80032d6:	b29b      	uxth	r3, r3
 80032d8:	055b      	lsls	r3, r3, #21
 80032da:	0d5b      	lsrs	r3, r3, #21
 80032dc:	b29b      	uxth	r3, r3
 80032de:	0018      	movs	r0, r3
 80032e0:	f000 f92c 	bl	800353c <SBUS_Transform>
 80032e4:	0003      	movs	r3, r0
 80032e6:	b21a      	sxth	r2, r3
 80032e8:	4b8e      	ldr	r3, [pc, #568]	; (8003524 <SBUS_Update+0x398>)
 80032ea:	825a      	strh	r2, [r3, #18]
		dataSBUS.ch[7]  = SBUS_Transform( (int16_t)( (rxSBUS[10] >> 5 | rxSBUS[11] << 3 ) & 0x07FF) );
 80032ec:	4b8c      	ldr	r3, [pc, #560]	; (8003520 <SBUS_Update+0x394>)
 80032ee:	7a9b      	ldrb	r3, [r3, #10]
 80032f0:	095b      	lsrs	r3, r3, #5
 80032f2:	b2db      	uxtb	r3, r3
 80032f4:	b21a      	sxth	r2, r3
 80032f6:	4b8a      	ldr	r3, [pc, #552]	; (8003520 <SBUS_Update+0x394>)
 80032f8:	7adb      	ldrb	r3, [r3, #11]
 80032fa:	00db      	lsls	r3, r3, #3
 80032fc:	b21b      	sxth	r3, r3
 80032fe:	4313      	orrs	r3, r2
 8003300:	b21b      	sxth	r3, r3
 8003302:	b29b      	uxth	r3, r3
 8003304:	055b      	lsls	r3, r3, #21
 8003306:	0d5b      	lsrs	r3, r3, #21
 8003308:	b29b      	uxth	r3, r3
 800330a:	0018      	movs	r0, r3
 800330c:	f000 f916 	bl	800353c <SBUS_Transform>
 8003310:	0003      	movs	r3, r0
 8003312:	b21a      	sxth	r2, r3
 8003314:	4b83      	ldr	r3, [pc, #524]	; (8003524 <SBUS_Update+0x398>)
 8003316:	829a      	strh	r2, [r3, #20]

		dataSBUS.ch[8]  = SBUS_Transform( (int16_t)( (rxSBUS[12]		 | rxSBUS[13] << 8 ) & 0x07FF) );
 8003318:	4b81      	ldr	r3, [pc, #516]	; (8003520 <SBUS_Update+0x394>)
 800331a:	7b1b      	ldrb	r3, [r3, #12]
 800331c:	b21a      	sxth	r2, r3
 800331e:	4b80      	ldr	r3, [pc, #512]	; (8003520 <SBUS_Update+0x394>)
 8003320:	7b5b      	ldrb	r3, [r3, #13]
 8003322:	021b      	lsls	r3, r3, #8
 8003324:	b21b      	sxth	r3, r3
 8003326:	4313      	orrs	r3, r2
 8003328:	b21b      	sxth	r3, r3
 800332a:	b29b      	uxth	r3, r3
 800332c:	055b      	lsls	r3, r3, #21
 800332e:	0d5b      	lsrs	r3, r3, #21
 8003330:	b29b      	uxth	r3, r3
 8003332:	0018      	movs	r0, r3
 8003334:	f000 f902 	bl	800353c <SBUS_Transform>
 8003338:	0003      	movs	r3, r0
 800333a:	b21a      	sxth	r2, r3
 800333c:	4b79      	ldr	r3, [pc, #484]	; (8003524 <SBUS_Update+0x398>)
 800333e:	82da      	strh	r2, [r3, #22]
		dataSBUS.ch[9]  = SBUS_Transform( (int16_t)( (rxSBUS[13] >> 3 | rxSBUS[14] << 5 ) & 0x07FF) );
 8003340:	4b77      	ldr	r3, [pc, #476]	; (8003520 <SBUS_Update+0x394>)
 8003342:	7b5b      	ldrb	r3, [r3, #13]
 8003344:	08db      	lsrs	r3, r3, #3
 8003346:	b2db      	uxtb	r3, r3
 8003348:	b21a      	sxth	r2, r3
 800334a:	4b75      	ldr	r3, [pc, #468]	; (8003520 <SBUS_Update+0x394>)
 800334c:	7b9b      	ldrb	r3, [r3, #14]
 800334e:	015b      	lsls	r3, r3, #5
 8003350:	b21b      	sxth	r3, r3
 8003352:	4313      	orrs	r3, r2
 8003354:	b21b      	sxth	r3, r3
 8003356:	b29b      	uxth	r3, r3
 8003358:	055b      	lsls	r3, r3, #21
 800335a:	0d5b      	lsrs	r3, r3, #21
 800335c:	b29b      	uxth	r3, r3
 800335e:	0018      	movs	r0, r3
 8003360:	f000 f8ec 	bl	800353c <SBUS_Transform>
 8003364:	0003      	movs	r3, r0
 8003366:	b21a      	sxth	r2, r3
 8003368:	4b6e      	ldr	r3, [pc, #440]	; (8003524 <SBUS_Update+0x398>)
 800336a:	831a      	strh	r2, [r3, #24]
		dataSBUS.ch[10] = SBUS_Transform( (int16_t)( (rxSBUS[14] >> 6 | rxSBUS[15] << 2  | rxSBUS[16] << 10 ) & 0x07FF) );
 800336c:	4b6c      	ldr	r3, [pc, #432]	; (8003520 <SBUS_Update+0x394>)
 800336e:	7b9b      	ldrb	r3, [r3, #14]
 8003370:	099b      	lsrs	r3, r3, #6
 8003372:	b2db      	uxtb	r3, r3
 8003374:	b21a      	sxth	r2, r3
 8003376:	4b6a      	ldr	r3, [pc, #424]	; (8003520 <SBUS_Update+0x394>)
 8003378:	7bdb      	ldrb	r3, [r3, #15]
 800337a:	009b      	lsls	r3, r3, #2
 800337c:	b21b      	sxth	r3, r3
 800337e:	4313      	orrs	r3, r2
 8003380:	b21a      	sxth	r2, r3
 8003382:	4b67      	ldr	r3, [pc, #412]	; (8003520 <SBUS_Update+0x394>)
 8003384:	7c1b      	ldrb	r3, [r3, #16]
 8003386:	029b      	lsls	r3, r3, #10
 8003388:	b21b      	sxth	r3, r3
 800338a:	4313      	orrs	r3, r2
 800338c:	b21b      	sxth	r3, r3
 800338e:	b29b      	uxth	r3, r3
 8003390:	055b      	lsls	r3, r3, #21
 8003392:	0d5b      	lsrs	r3, r3, #21
 8003394:	b29b      	uxth	r3, r3
 8003396:	0018      	movs	r0, r3
 8003398:	f000 f8d0 	bl	800353c <SBUS_Transform>
 800339c:	0003      	movs	r3, r0
 800339e:	b21a      	sxth	r2, r3
 80033a0:	4b60      	ldr	r3, [pc, #384]	; (8003524 <SBUS_Update+0x398>)
 80033a2:	835a      	strh	r2, [r3, #26]
		dataSBUS.ch[11] = SBUS_Transform( (int16_t)( (rxSBUS[16] >> 1 | rxSBUS[17] << 7 ) & 0x07FF) );
 80033a4:	4b5e      	ldr	r3, [pc, #376]	; (8003520 <SBUS_Update+0x394>)
 80033a6:	7c1b      	ldrb	r3, [r3, #16]
 80033a8:	085b      	lsrs	r3, r3, #1
 80033aa:	b2db      	uxtb	r3, r3
 80033ac:	b21a      	sxth	r2, r3
 80033ae:	4b5c      	ldr	r3, [pc, #368]	; (8003520 <SBUS_Update+0x394>)
 80033b0:	7c5b      	ldrb	r3, [r3, #17]
 80033b2:	01db      	lsls	r3, r3, #7
 80033b4:	b21b      	sxth	r3, r3
 80033b6:	4313      	orrs	r3, r2
 80033b8:	b21b      	sxth	r3, r3
 80033ba:	b29b      	uxth	r3, r3
 80033bc:	055b      	lsls	r3, r3, #21
 80033be:	0d5b      	lsrs	r3, r3, #21
 80033c0:	b29b      	uxth	r3, r3
 80033c2:	0018      	movs	r0, r3
 80033c4:	f000 f8ba 	bl	800353c <SBUS_Transform>
 80033c8:	0003      	movs	r3, r0
 80033ca:	b21a      	sxth	r2, r3
 80033cc:	4b55      	ldr	r3, [pc, #340]	; (8003524 <SBUS_Update+0x398>)
 80033ce:	839a      	strh	r2, [r3, #28]
		dataSBUS.ch[12] = SBUS_Transform( (int16_t)( (rxSBUS[17] >> 4 | rxSBUS[18] << 4 ) & 0x07FF) );
 80033d0:	4b53      	ldr	r3, [pc, #332]	; (8003520 <SBUS_Update+0x394>)
 80033d2:	7c5b      	ldrb	r3, [r3, #17]
 80033d4:	091b      	lsrs	r3, r3, #4
 80033d6:	b2db      	uxtb	r3, r3
 80033d8:	b21a      	sxth	r2, r3
 80033da:	4b51      	ldr	r3, [pc, #324]	; (8003520 <SBUS_Update+0x394>)
 80033dc:	7c9b      	ldrb	r3, [r3, #18]
 80033de:	011b      	lsls	r3, r3, #4
 80033e0:	b21b      	sxth	r3, r3
 80033e2:	4313      	orrs	r3, r2
 80033e4:	b21b      	sxth	r3, r3
 80033e6:	b29b      	uxth	r3, r3
 80033e8:	055b      	lsls	r3, r3, #21
 80033ea:	0d5b      	lsrs	r3, r3, #21
 80033ec:	b29b      	uxth	r3, r3
 80033ee:	0018      	movs	r0, r3
 80033f0:	f000 f8a4 	bl	800353c <SBUS_Transform>
 80033f4:	0003      	movs	r3, r0
 80033f6:	b21a      	sxth	r2, r3
 80033f8:	4b4a      	ldr	r3, [pc, #296]	; (8003524 <SBUS_Update+0x398>)
 80033fa:	83da      	strh	r2, [r3, #30]
		dataSBUS.ch[13] = SBUS_Transform( (int16_t)( (rxSBUS[18] >> 7 | rxSBUS[19] << 1 | rxSBUS[20]) & 0x07FF) );
 80033fc:	4b48      	ldr	r3, [pc, #288]	; (8003520 <SBUS_Update+0x394>)
 80033fe:	7c9b      	ldrb	r3, [r3, #18]
 8003400:	09db      	lsrs	r3, r3, #7
 8003402:	b2db      	uxtb	r3, r3
 8003404:	b21a      	sxth	r2, r3
 8003406:	4b46      	ldr	r3, [pc, #280]	; (8003520 <SBUS_Update+0x394>)
 8003408:	7cdb      	ldrb	r3, [r3, #19]
 800340a:	005b      	lsls	r3, r3, #1
 800340c:	b21b      	sxth	r3, r3
 800340e:	4313      	orrs	r3, r2
 8003410:	b21a      	sxth	r2, r3
 8003412:	4b43      	ldr	r3, [pc, #268]	; (8003520 <SBUS_Update+0x394>)
 8003414:	7d1b      	ldrb	r3, [r3, #20]
 8003416:	b21b      	sxth	r3, r3
 8003418:	4313      	orrs	r3, r2
 800341a:	b21b      	sxth	r3, r3
 800341c:	b29b      	uxth	r3, r3
 800341e:	055b      	lsls	r3, r3, #21
 8003420:	0d5b      	lsrs	r3, r3, #21
 8003422:	b29b      	uxth	r3, r3
 8003424:	0018      	movs	r0, r3
 8003426:	f000 f889 	bl	800353c <SBUS_Transform>
 800342a:	0003      	movs	r3, r0
 800342c:	b21a      	sxth	r2, r3
 800342e:	4b3d      	ldr	r3, [pc, #244]	; (8003524 <SBUS_Update+0x398>)
 8003430:	841a      	strh	r2, [r3, #32]
		dataSBUS.ch[14] = SBUS_Transform( (int16_t)( (rxSBUS[20] >> 2 | rxSBUS[21] << 6 ) & 0x07FF) );
 8003432:	4b3b      	ldr	r3, [pc, #236]	; (8003520 <SBUS_Update+0x394>)
 8003434:	7d1b      	ldrb	r3, [r3, #20]
 8003436:	089b      	lsrs	r3, r3, #2
 8003438:	b2db      	uxtb	r3, r3
 800343a:	b21a      	sxth	r2, r3
 800343c:	4b38      	ldr	r3, [pc, #224]	; (8003520 <SBUS_Update+0x394>)
 800343e:	7d5b      	ldrb	r3, [r3, #21]
 8003440:	019b      	lsls	r3, r3, #6
 8003442:	b21b      	sxth	r3, r3
 8003444:	4313      	orrs	r3, r2
 8003446:	b21b      	sxth	r3, r3
 8003448:	b29b      	uxth	r3, r3
 800344a:	055b      	lsls	r3, r3, #21
 800344c:	0d5b      	lsrs	r3, r3, #21
 800344e:	b29b      	uxth	r3, r3
 8003450:	0018      	movs	r0, r3
 8003452:	f000 f873 	bl	800353c <SBUS_Transform>
 8003456:	0003      	movs	r3, r0
 8003458:	b21a      	sxth	r2, r3
 800345a:	4b32      	ldr	r3, [pc, #200]	; (8003524 <SBUS_Update+0x398>)
 800345c:	845a      	strh	r2, [r3, #34]	; 0x22
		dataSBUS.ch[15] = SBUS_Transform( (int16_t)( (rxSBUS[21] >> 5 | rxSBUS[22] << 3 ) & 0x07FF) );
 800345e:	4b30      	ldr	r3, [pc, #192]	; (8003520 <SBUS_Update+0x394>)
 8003460:	7d5b      	ldrb	r3, [r3, #21]
 8003462:	095b      	lsrs	r3, r3, #5
 8003464:	b2db      	uxtb	r3, r3
 8003466:	b21a      	sxth	r2, r3
 8003468:	4b2d      	ldr	r3, [pc, #180]	; (8003520 <SBUS_Update+0x394>)
 800346a:	7d9b      	ldrb	r3, [r3, #22]
 800346c:	00db      	lsls	r3, r3, #3
 800346e:	b21b      	sxth	r3, r3
 8003470:	4313      	orrs	r3, r2
 8003472:	b21b      	sxth	r3, r3
 8003474:	b29b      	uxth	r3, r3
 8003476:	055b      	lsls	r3, r3, #21
 8003478:	0d5b      	lsrs	r3, r3, #21
 800347a:	b29b      	uxth	r3, r3
 800347c:	0018      	movs	r0, r3
 800347e:	f000 f85d 	bl	800353c <SBUS_Transform>
 8003482:	0003      	movs	r3, r0
 8003484:	b21a      	sxth	r2, r3
 8003486:	4b27      	ldr	r3, [pc, #156]	; (8003524 <SBUS_Update+0x398>)
 8003488:	849a      	strh	r2, [r3, #36]	; 0x24

		dataSBUS.ch17      = rxSBUS[23] & SBUS_CH17_MASK;
 800348a:	4b25      	ldr	r3, [pc, #148]	; (8003520 <SBUS_Update+0x394>)
 800348c:	7ddb      	ldrb	r3, [r3, #23]
 800348e:	001a      	movs	r2, r3
 8003490:	2301      	movs	r3, #1
 8003492:	4013      	ands	r3, r2
 8003494:	1e5a      	subs	r2, r3, #1
 8003496:	4193      	sbcs	r3, r2
 8003498:	b2da      	uxtb	r2, r3
 800349a:	4b22      	ldr	r3, [pc, #136]	; (8003524 <SBUS_Update+0x398>)
 800349c:	70da      	strb	r2, [r3, #3]
		dataSBUS.ch17      = rxSBUS[23] & SBUS_CH18_MASK;
 800349e:	4b20      	ldr	r3, [pc, #128]	; (8003520 <SBUS_Update+0x394>)
 80034a0:	7ddb      	ldrb	r3, [r3, #23]
 80034a2:	001a      	movs	r2, r3
 80034a4:	2302      	movs	r3, #2
 80034a6:	4013      	ands	r3, r2
 80034a8:	1e5a      	subs	r2, r3, #1
 80034aa:	4193      	sbcs	r3, r2
 80034ac:	b2da      	uxtb	r2, r3
 80034ae:	4b1d      	ldr	r3, [pc, #116]	; (8003524 <SBUS_Update+0x398>)
 80034b0:	70da      	strb	r2, [r3, #3]
		dataSBUS.failsafe  = rxSBUS[23] & SBUS_FAILSAFE_MASK;
 80034b2:	4b1b      	ldr	r3, [pc, #108]	; (8003520 <SBUS_Update+0x394>)
 80034b4:	7ddb      	ldrb	r3, [r3, #23]
 80034b6:	001a      	movs	r2, r3
 80034b8:	2308      	movs	r3, #8
 80034ba:	4013      	ands	r3, r2
 80034bc:	1e5a      	subs	r2, r3, #1
 80034be:	4193      	sbcs	r3, r2
 80034c0:	b2da      	uxtb	r2, r3
 80034c2:	4b18      	ldr	r3, [pc, #96]	; (8003524 <SBUS_Update+0x398>)
 80034c4:	709a      	strb	r2, [r3, #2]
		dataSBUS.frameLost = rxSBUS[23] & SBUS_LOSTFRAME_MASK;
 80034c6:	4b16      	ldr	r3, [pc, #88]	; (8003520 <SBUS_Update+0x394>)
 80034c8:	7ddb      	ldrb	r3, [r3, #23]
 80034ca:	001a      	movs	r2, r3
 80034cc:	2304      	movs	r3, #4
 80034ce:	4013      	ands	r3, r2
 80034d0:	1e5a      	subs	r2, r3, #1
 80034d2:	4193      	sbcs	r3, r2
 80034d4:	b2da      	uxtb	r2, r3
 80034d6:	4b13      	ldr	r3, [pc, #76]	; (8003524 <SBUS_Update+0x398>)
 80034d8:	705a      	strb	r2, [r3, #1]

		prev = now;
 80034da:	4b13      	ldr	r3, [pc, #76]	; (8003528 <SBUS_Update+0x39c>)
 80034dc:	687a      	ldr	r2, [r7, #4]
 80034de:	601a      	str	r2, [r3, #0]
	}

	// Check Failsafe

	if (dataSBUS.failsafe)
 80034e0:	4b10      	ldr	r3, [pc, #64]	; (8003524 <SBUS_Update+0x398>)
 80034e2:	789b      	ldrb	r3, [r3, #2]
 80034e4:	2b00      	cmp	r3, #0
 80034e6:	d003      	beq.n	80034f0 <SBUS_Update+0x364>
	{
		dataSBUS.inputLost = true;
 80034e8:	4b0e      	ldr	r3, [pc, #56]	; (8003524 <SBUS_Update+0x398>)
 80034ea:	2201      	movs	r2, #1
 80034ec:	701a      	strb	r2, [r3, #0]
			memset(rxSBUS, 0, sizeof(rxSBUS));
		} else {
			dataSBUS.inputLost = false;
		}
	}
}
 80034ee:	e012      	b.n	8003516 <SBUS_Update+0x38a>
		if (SBUS_TIMEOUT <= (now - prev)) {
 80034f0:	4b0d      	ldr	r3, [pc, #52]	; (8003528 <SBUS_Update+0x39c>)
 80034f2:	681b      	ldr	r3, [r3, #0]
 80034f4:	687a      	ldr	r2, [r7, #4]
 80034f6:	1ad3      	subs	r3, r2, r3
 80034f8:	2b29      	cmp	r3, #41	; 0x29
 80034fa:	d909      	bls.n	8003510 <SBUS_Update+0x384>
			dataSBUS.inputLost = true;
 80034fc:	4b09      	ldr	r3, [pc, #36]	; (8003524 <SBUS_Update+0x398>)
 80034fe:	2201      	movs	r2, #1
 8003500:	701a      	strb	r2, [r3, #0]
			memset(rxSBUS, 0, sizeof(rxSBUS));
 8003502:	4b07      	ldr	r3, [pc, #28]	; (8003520 <SBUS_Update+0x394>)
 8003504:	2232      	movs	r2, #50	; 0x32
 8003506:	2100      	movs	r1, #0
 8003508:	0018      	movs	r0, r3
 800350a:	f001 fc20 	bl	8004d4e <memset>
}
 800350e:	e002      	b.n	8003516 <SBUS_Update+0x38a>
			dataSBUS.inputLost = false;
 8003510:	4b04      	ldr	r3, [pc, #16]	; (8003524 <SBUS_Update+0x398>)
 8003512:	2200      	movs	r2, #0
 8003514:	701a      	strb	r2, [r3, #0]
}
 8003516:	46c0      	nop			; (mov r8, r8)
 8003518:	46bd      	mov	sp, r7
 800351a:	b002      	add	sp, #8
 800351c:	bd80      	pop	{r7, pc}
 800351e:	46c0      	nop			; (mov r8, r8)
 8003520:	20000444 	.word	0x20000444
 8003524:	20000478 	.word	0x20000478
 8003528:	200004a0 	.word	0x200004a0

0800352c <SBUS_GetDataPtr>:

SBUS_Data* SBUS_GetDataPtr (void)
{
 800352c:	b580      	push	{r7, lr}
 800352e:	af00      	add	r7, sp, #0
	return &dataSBUS;
 8003530:	4b01      	ldr	r3, [pc, #4]	; (8003538 <SBUS_GetDataPtr+0xc>)
}
 8003532:	0018      	movs	r0, r3
 8003534:	46bd      	mov	sp, r7
 8003536:	bd80      	pop	{r7, pc}
 8003538:	20000478 	.word	0x20000478

0800353c <SBUS_Transform>:
/*
 * PRIVATE FUNCTIONS
 */

uint16_t SBUS_Transform (uint16_t r)
{
 800353c:	b580      	push	{r7, lr}
 800353e:	b084      	sub	sp, #16
 8003540:	af00      	add	r7, sp, #0
 8003542:	0002      	movs	r2, r0
 8003544:	1dbb      	adds	r3, r7, #6
 8003546:	801a      	strh	r2, [r3, #0]
	uint32_t retVal = 0;
 8003548:	2300      	movs	r3, #0
 800354a:	60fb      	str	r3, [r7, #12]

	if (r == 0) {
 800354c:	1dbb      	adds	r3, r7, #6
 800354e:	881b      	ldrh	r3, [r3, #0]
 8003550:	2b00      	cmp	r3, #0
 8003552:	d102      	bne.n	800355a <SBUS_Transform+0x1e>
		retVal = 0;
 8003554:	2300      	movs	r3, #0
 8003556:	60fb      	str	r3, [r7, #12]
 8003558:	e019      	b.n	800358e <SBUS_Transform+0x52>
	} else if (r < (SBUS_MIN - SBUS_THRESHOLD)) {
		retVal = 0;
	} else if (r < SBUS_MIN) {
 800355a:	1dbb      	adds	r3, r7, #6
 800355c:	881b      	ldrh	r3, [r3, #0]
 800355e:	2bab      	cmp	r3, #171	; 0xab
 8003560:	d802      	bhi.n	8003568 <SBUS_Transform+0x2c>
		retVal = SBUS_MIN;
 8003562:	23ac      	movs	r3, #172	; 0xac
 8003564:	60fb      	str	r3, [r7, #12]
 8003566:	e012      	b.n	800358e <SBUS_Transform+0x52>
	} else if (r <= SBUS_MAX) {
 8003568:	1dbb      	adds	r3, r7, #6
 800356a:	881b      	ldrh	r3, [r3, #0]
 800356c:	4a18      	ldr	r2, [pc, #96]	; (80035d0 <SBUS_Transform+0x94>)
 800356e:	4293      	cmp	r3, r2
 8003570:	d803      	bhi.n	800357a <SBUS_Transform+0x3e>
		retVal = r;
 8003572:	1dbb      	adds	r3, r7, #6
 8003574:	881b      	ldrh	r3, [r3, #0]
 8003576:	60fb      	str	r3, [r7, #12]
 8003578:	e009      	b.n	800358e <SBUS_Transform+0x52>
	} else if (r < (SBUS_MAX + SBUS_THRESHOLD))	{
 800357a:	1dbb      	adds	r3, r7, #6
 800357c:	881b      	ldrh	r3, [r3, #0]
 800357e:	4a15      	ldr	r2, [pc, #84]	; (80035d4 <SBUS_Transform+0x98>)
 8003580:	4293      	cmp	r3, r2
 8003582:	d802      	bhi.n	800358a <SBUS_Transform+0x4e>
		retVal = SBUS_MAX;
 8003584:	4b12      	ldr	r3, [pc, #72]	; (80035d0 <SBUS_Transform+0x94>)
 8003586:	60fb      	str	r3, [r7, #12]
 8003588:	e001      	b.n	800358e <SBUS_Transform+0x52>
	} else {
		retVal = 0;
 800358a:	2300      	movs	r3, #0
 800358c:	60fb      	str	r3, [r7, #12]
	}

	if (retVal)
 800358e:	68fb      	ldr	r3, [r7, #12]
 8003590:	2b00      	cmp	r3, #0
 8003592:	d017      	beq.n	80035c4 <SBUS_Transform+0x88>
	{
		retVal *= SBUS_MAP_RANGE;
 8003594:	68fa      	ldr	r2, [r7, #12]
 8003596:	0013      	movs	r3, r2
 8003598:	015b      	lsls	r3, r3, #5
 800359a:	1a9b      	subs	r3, r3, r2
 800359c:	009b      	lsls	r3, r3, #2
 800359e:	189b      	adds	r3, r3, r2
 80035a0:	00db      	lsls	r3, r3, #3
 80035a2:	60fb      	str	r3, [r7, #12]
		retVal /= SBUS_RANGE;
 80035a4:	68fb      	ldr	r3, [r7, #12]
 80035a6:	490c      	ldr	r1, [pc, #48]	; (80035d8 <SBUS_Transform+0x9c>)
 80035a8:	0018      	movs	r0, r3
 80035aa:	f7fc fdad 	bl	8000108 <__udivsi3>
 80035ae:	0003      	movs	r3, r0
 80035b0:	60fb      	str	r3, [r7, #12]
		retVal += SBUS_MAP_MIN;
 80035b2:	68fb      	ldr	r3, [r7, #12]
 80035b4:	22fa      	movs	r2, #250	; 0xfa
 80035b6:	0092      	lsls	r2, r2, #2
 80035b8:	4694      	mov	ip, r2
 80035ba:	4463      	add	r3, ip
 80035bc:	60fb      	str	r3, [r7, #12]
		retVal -= (SBUS_MIN * SBUS_MAP_RANGE / SBUS_RANGE);
 80035be:	68fb      	ldr	r3, [r7, #12]
 80035c0:	3b68      	subs	r3, #104	; 0x68
 80035c2:	60fb      	str	r3, [r7, #12]
	}

	return (uint16_t)retVal;
 80035c4:	68fb      	ldr	r3, [r7, #12]
 80035c6:	b29b      	uxth	r3, r3
}
 80035c8:	0018      	movs	r0, r3
 80035ca:	46bd      	mov	sp, r7
 80035cc:	b004      	add	sp, #16
 80035ce:	bd80      	pop	{r7, pc}
 80035d0:	00000713 	.word	0x00000713
 80035d4:	00000906 	.word	0x00000906
 80035d8:	00000667 	.word	0x00000667

080035dc <SBUS_HandleUART>:


bool SBUS_HandleUART (void)
{
 80035dc:	b580      	push	{r7, lr}
 80035de:	b082      	sub	sp, #8
 80035e0:	af00      	add	r7, sp, #0
	static uint8_t byte_p = SBUS_FOOTER;
	static bool detected = false;
	bool retVal = false;
 80035e2:	1dfb      	adds	r3, r7, #7
 80035e4:	2200      	movs	r2, #0
 80035e6:	701a      	strb	r2, [r3, #0]

	if ( !detected ) // Not detected header
 80035e8:	4b2a      	ldr	r3, [pc, #168]	; (8003694 <SBUS_HandleUART+0xb8>)
 80035ea:	781b      	ldrb	r3, [r3, #0]
 80035ec:	2201      	movs	r2, #1
 80035ee:	4053      	eors	r3, r2
 80035f0:	b2db      	uxtb	r3, r3
 80035f2:	2b00      	cmp	r3, #0
 80035f4:	d02b      	beq.n	800364e <SBUS_HandleUART+0x72>
	{
		while (UART_ReadCount(SBUS_UART))
 80035f6:	e023      	b.n	8003640 <SBUS_HandleUART+0x64>
		{
			UART_Read(SBUS_UART, &rxSBUS[SBUS_HEADER_INDEX], SBUS_HEADER_LEN);
 80035f8:	4b27      	ldr	r3, [pc, #156]	; (8003698 <SBUS_HandleUART+0xbc>)
 80035fa:	681b      	ldr	r3, [r3, #0]
 80035fc:	4927      	ldr	r1, [pc, #156]	; (800369c <SBUS_HandleUART+0xc0>)
 80035fe:	2201      	movs	r2, #1
 8003600:	0018      	movs	r0, r3
 8003602:	f001 fa1c 	bl	8004a3e <UART_Read>
			bool b = rxSBUS[SBUS_HEADER_INDEX] == SBUS_HEADER;
 8003606:	4b25      	ldr	r3, [pc, #148]	; (800369c <SBUS_HandleUART+0xc0>)
 8003608:	781a      	ldrb	r2, [r3, #0]
 800360a:	1dbb      	adds	r3, r7, #6
 800360c:	3a0f      	subs	r2, #15
 800360e:	4251      	negs	r1, r2
 8003610:	414a      	adcs	r2, r1
 8003612:	701a      	strb	r2, [r3, #0]
			bool b_p = byte_p == SBUS_FOOTER;
 8003614:	4b22      	ldr	r3, [pc, #136]	; (80036a0 <SBUS_HandleUART+0xc4>)
 8003616:	781a      	ldrb	r2, [r3, #0]
 8003618:	1d7b      	adds	r3, r7, #5
 800361a:	4251      	negs	r1, r2
 800361c:	414a      	adcs	r2, r1
 800361e:	701a      	strb	r2, [r3, #0]
			byte_p = rxSBUS[SBUS_HEADER_INDEX];
 8003620:	4b1e      	ldr	r3, [pc, #120]	; (800369c <SBUS_HandleUART+0xc0>)
 8003622:	781a      	ldrb	r2, [r3, #0]
 8003624:	4b1e      	ldr	r3, [pc, #120]	; (80036a0 <SBUS_HandleUART+0xc4>)
 8003626:	701a      	strb	r2, [r3, #0]
			if (b && b_p)
 8003628:	1dbb      	adds	r3, r7, #6
 800362a:	781b      	ldrb	r3, [r3, #0]
 800362c:	2b00      	cmp	r3, #0
 800362e:	d007      	beq.n	8003640 <SBUS_HandleUART+0x64>
 8003630:	1d7b      	adds	r3, r7, #5
 8003632:	781b      	ldrb	r3, [r3, #0]
 8003634:	2b00      	cmp	r3, #0
 8003636:	d003      	beq.n	8003640 <SBUS_HandleUART+0x64>
			{
				detected = true;
 8003638:	4b16      	ldr	r3, [pc, #88]	; (8003694 <SBUS_HandleUART+0xb8>)
 800363a:	2201      	movs	r2, #1
 800363c:	701a      	strb	r2, [r3, #0]
				break;
 800363e:	e006      	b.n	800364e <SBUS_HandleUART+0x72>
		while (UART_ReadCount(SBUS_UART))
 8003640:	4b15      	ldr	r3, [pc, #84]	; (8003698 <SBUS_HandleUART+0xbc>)
 8003642:	681b      	ldr	r3, [r3, #0]
 8003644:	0018      	movs	r0, r3
 8003646:	f001 f9cd 	bl	80049e4 <UART_ReadCount>
 800364a:	1e03      	subs	r3, r0, #0
 800364c:	d1d4      	bne.n	80035f8 <SBUS_HandleUART+0x1c>
			}
		}
	}

	if ( detected )  // header has been detected
 800364e:	4b11      	ldr	r3, [pc, #68]	; (8003694 <SBUS_HandleUART+0xb8>)
 8003650:	781b      	ldrb	r3, [r3, #0]
 8003652:	2b00      	cmp	r3, #0
 8003654:	d018      	beq.n	8003688 <SBUS_HandleUART+0xac>
	{
		if ( UART_ReadCount(SBUS_UART) >= (SBUS_PAYLOAD_LEN - SBUS_HEADER_LEN) )
 8003656:	4b10      	ldr	r3, [pc, #64]	; (8003698 <SBUS_HandleUART+0xbc>)
 8003658:	681b      	ldr	r3, [r3, #0]
 800365a:	0018      	movs	r0, r3
 800365c:	f001 f9c2 	bl	80049e4 <UART_ReadCount>
 8003660:	0003      	movs	r3, r0
 8003662:	2b17      	cmp	r3, #23
 8003664:	d910      	bls.n	8003688 <SBUS_HandleUART+0xac>
		{
			UART_Read(SBUS_UART, &rxSBUS[SBUS_DATA_INDEX], (SBUS_PAYLOAD_LEN - SBUS_HEADER_LEN));
 8003666:	4b0c      	ldr	r3, [pc, #48]	; (8003698 <SBUS_HandleUART+0xbc>)
 8003668:	681b      	ldr	r3, [r3, #0]
 800366a:	490e      	ldr	r1, [pc, #56]	; (80036a4 <SBUS_HandleUART+0xc8>)
 800366c:	2218      	movs	r2, #24
 800366e:	0018      	movs	r0, r3
 8003670:	f001 f9e5 	bl	8004a3e <UART_Read>
			//
			byte_p = rxSBUS[SBUS_FOOTER_INDEX];
 8003674:	4b09      	ldr	r3, [pc, #36]	; (800369c <SBUS_HandleUART+0xc0>)
 8003676:	7e1a      	ldrb	r2, [r3, #24]
 8003678:	4b09      	ldr	r3, [pc, #36]	; (80036a0 <SBUS_HandleUART+0xc4>)
 800367a:	701a      	strb	r2, [r3, #0]
			//
			retVal = true;
 800367c:	1dfb      	adds	r3, r7, #7
 800367e:	2201      	movs	r2, #1
 8003680:	701a      	strb	r2, [r3, #0]
			// Reset the detected flag
			detected = false;
 8003682:	4b04      	ldr	r3, [pc, #16]	; (8003694 <SBUS_HandleUART+0xb8>)
 8003684:	2200      	movs	r2, #0
 8003686:	701a      	strb	r2, [r3, #0]
		}
	}

	return retVal;
 8003688:	1dfb      	adds	r3, r7, #7
 800368a:	781b      	ldrb	r3, [r3, #0]
}
 800368c:	0018      	movs	r0, r3
 800368e:	46bd      	mov	sp, r7
 8003690:	b002      	add	sp, #8
 8003692:	bd80      	pop	{r7, pc}
 8003694:	200004a4 	.word	0x200004a4
 8003698:	2000028c 	.word	0x2000028c
 800369c:	20000444 	.word	0x20000444
 80036a0:	200004a5 	.word	0x200004a5
 80036a4:	20000445 	.word	0x20000445

080036a8 <ADC_Init>:
/*
 * PUBLIC FUNCTIONS
 */

void ADC_Init(void)
{
 80036a8:	b580      	push	{r7, lr}
 80036aa:	af00      	add	r7, sp, #0
	CLK_EnableADCCLK();
 80036ac:	f000 f994 	bl	80039d8 <CLK_EnableADCCLK>
	__HAL_RCC_ADC1_CLK_ENABLE();
 80036b0:	4b25      	ldr	r3, [pc, #148]	; (8003748 <ADC_Init+0xa0>)
 80036b2:	6b5a      	ldr	r2, [r3, #52]	; 0x34
 80036b4:	4b24      	ldr	r3, [pc, #144]	; (8003748 <ADC_Init+0xa0>)
 80036b6:	2180      	movs	r1, #128	; 0x80
 80036b8:	0089      	lsls	r1, r1, #2
 80036ba:	430a      	orrs	r2, r1
 80036bc:	635a      	str	r2, [r3, #52]	; 0x34

	_ADC_CLOCK_PRESCALER(ADCx, ADC_CLOCK_PRESCALAR);
 80036be:	4b23      	ldr	r3, [pc, #140]	; (800374c <ADC_Init+0xa4>)
 80036c0:	691a      	ldr	r2, [r3, #16]
 80036c2:	4b22      	ldr	r3, [pc, #136]	; (800374c <ADC_Init+0xa4>)
 80036c4:	0092      	lsls	r2, r2, #2
 80036c6:	0892      	lsrs	r2, r2, #2
 80036c8:	611a      	str	r2, [r3, #16]
 80036ca:	4b21      	ldr	r3, [pc, #132]	; (8003750 <ADC_Init+0xa8>)
 80036cc:	681b      	ldr	r3, [r3, #0]
 80036ce:	4a21      	ldr	r2, [pc, #132]	; (8003754 <ADC_Init+0xac>)
 80036d0:	401a      	ands	r2, r3
 80036d2:	4b1f      	ldr	r3, [pc, #124]	; (8003750 <ADC_Init+0xa8>)
 80036d4:	2180      	movs	r1, #128	; 0x80
 80036d6:	0309      	lsls	r1, r1, #12
 80036d8:	430a      	orrs	r2, r1
 80036da:	601a      	str	r2, [r3, #0]

#ifdef ADC_CCR_LFMEN
	// Disable the low power mode
	MODIFY_REG(ADC->CCR, ADC_CCR_LFMEN, __HAL_ADC_CCR_LOWFREQUENCY(DISABLE));
 80036dc:	4b1c      	ldr	r3, [pc, #112]	; (8003750 <ADC_Init+0xa8>)
 80036de:	681a      	ldr	r2, [r3, #0]
 80036e0:	4b1b      	ldr	r3, [pc, #108]	; (8003750 <ADC_Init+0xa8>)
 80036e2:	491d      	ldr	r1, [pc, #116]	; (8003758 <ADC_Init+0xb0>)
 80036e4:	400a      	ands	r2, r1
 80036e6:	601a      	str	r2, [r3, #0]
#endif
#ifdef ADC_CR_ADVREGEN
	// Enable the voltage regulator
	if (HAL_IS_BIT_CLR(ADCx->CR, ADC_CR_ADVREGEN))
 80036e8:	4b18      	ldr	r3, [pc, #96]	; (800374c <ADC_Init+0xa4>)
 80036ea:	689a      	ldr	r2, [r3, #8]
 80036ec:	2380      	movs	r3, #128	; 0x80
 80036ee:	055b      	lsls	r3, r3, #21
 80036f0:	4013      	ands	r3, r2
 80036f2:	d109      	bne.n	8003708 <ADC_Init+0x60>
	{
		ADCx->CR |= ADC_CR_ADVREGEN;
 80036f4:	4b15      	ldr	r3, [pc, #84]	; (800374c <ADC_Init+0xa4>)
 80036f6:	689a      	ldr	r2, [r3, #8]
 80036f8:	4b14      	ldr	r3, [pc, #80]	; (800374c <ADC_Init+0xa4>)
 80036fa:	2180      	movs	r1, #128	; 0x80
 80036fc:	0549      	lsls	r1, r1, #21
 80036fe:	430a      	orrs	r2, r1
 8003700:	609a      	str	r2, [r3, #8]
		// Wait for regulator stability.
		US_Delay(20);
 8003702:	2014      	movs	r0, #20
 8003704:	f001 fae4 	bl	8004cd0 <US_Delay>
	}
#endif

	ADCx->CFGR1 = ADC_DATAALIGN_RIGHT
 8003708:	4b10      	ldr	r3, [pc, #64]	; (800374c <ADC_Init+0xa4>)
 800370a:	2200      	movs	r2, #0
 800370c:	60da      	str	r2, [r3, #12]
		| ADC_CFGR1_AUTOWAIT(DISABLE)
		| ADC_CFGR1_AUTOOFF(DISABLE)
		| ADC_OVR_DATA_PRESERVED
		| ADC_RESOLUTION_12B;

	ADCx->CFGR2 = 0;
 800370e:	4b0f      	ldr	r3, [pc, #60]	; (800374c <ADC_Init+0xa4>)
 8003710:	2200      	movs	r2, #0
 8003712:	611a      	str	r2, [r3, #16]
	// Configure the default sampling rate
	MODIFY_REG(ADCx->SMPR, ADC_SMPR_SMPR, ADC_SMPR_DEFAULT);
 8003714:	4b0d      	ldr	r3, [pc, #52]	; (800374c <ADC_Init+0xa4>)
 8003716:	695b      	ldr	r3, [r3, #20]
 8003718:	2207      	movs	r2, #7
 800371a:	4393      	bics	r3, r2
 800371c:	001a      	movs	r2, r3
 800371e:	4b0b      	ldr	r3, [pc, #44]	; (800374c <ADC_Init+0xa4>)
 8003720:	2106      	movs	r1, #6
 8003722:	430a      	orrs	r2, r1
 8003724:	615a      	str	r2, [r3, #20]

	ADC_Calibrate();
 8003726:	f000 f8c9 	bl	80038bc <ADC_Calibrate>
	__HAL_ADC_ENABLE(&gADC);
 800372a:	4b0c      	ldr	r3, [pc, #48]	; (800375c <ADC_Init+0xb4>)
 800372c:	681b      	ldr	r3, [r3, #0]
 800372e:	689a      	ldr	r2, [r3, #8]
 8003730:	4b0a      	ldr	r3, [pc, #40]	; (800375c <ADC_Init+0xb4>)
 8003732:	681b      	ldr	r3, [r3, #0]
 8003734:	2101      	movs	r1, #1
 8003736:	430a      	orrs	r2, r1
 8003738:	609a      	str	r2, [r3, #8]
	ADC_WaitForFlag(ADC_FLAG_RDY);
 800373a:	2001      	movs	r0, #1
 800373c:	f000 f8aa 	bl	8003894 <ADC_WaitForFlag>
}
 8003740:	46c0      	nop			; (mov r8, r8)
 8003742:	46bd      	mov	sp, r7
 8003744:	bd80      	pop	{r7, pc}
 8003746:	46c0      	nop			; (mov r8, r8)
 8003748:	40021000 	.word	0x40021000
 800374c:	40012400 	.word	0x40012400
 8003750:	40012708 	.word	0x40012708
 8003754:	ffc3ffff 	.word	0xffc3ffff
 8003758:	fdffffff 	.word	0xfdffffff
 800375c:	20000004 	.word	0x20000004

08003760 <ADC_Read>:
	}
}
#endif

uint32_t ADC_Read(ADC_Channel_t channel)
{
 8003760:	b580      	push	{r7, lr}
 8003762:	b082      	sub	sp, #8
 8003764:	af00      	add	r7, sp, #0
 8003766:	6078      	str	r0, [r7, #4]
	__HAL_ADC_CLEAR_FLAG(&gADC, (ADC_FLAG_EOC | ADC_FLAG_EOS | ADC_FLAG_OVR));
 8003768:	4b0d      	ldr	r3, [pc, #52]	; (80037a0 <ADC_Read+0x40>)
 800376a:	681b      	ldr	r3, [r3, #0]
 800376c:	221c      	movs	r2, #28
 800376e:	601a      	str	r2, [r3, #0]

	ADCx->CHSELR = channel;
 8003770:	4b0c      	ldr	r3, [pc, #48]	; (80037a4 <ADC_Read+0x44>)
 8003772:	687a      	ldr	r2, [r7, #4]
 8003774:	629a      	str	r2, [r3, #40]	; 0x28

	// Put it back in single shot mode.
	MODIFY_REG( ADCx->CFGR1,
 8003776:	4b0b      	ldr	r3, [pc, #44]	; (80037a4 <ADC_Read+0x44>)
 8003778:	68da      	ldr	r2, [r3, #12]
 800377a:	4b0a      	ldr	r3, [pc, #40]	; (80037a4 <ADC_Read+0x44>)
 800377c:	490a      	ldr	r1, [pc, #40]	; (80037a8 <ADC_Read+0x48>)
 800377e:	400a      	ands	r2, r1
 8003780:	60da      	str	r2, [r3, #12]
				ADC_CFGR1_DMACFG | ADC_CFGR1_CONT | ADC_CFGR1_DMAEN,
				ADC_CFGR1_CONTINUOUS(DISABLE) | ADC_CFGR1_DMACONTREQ(DISABLE)
			);

	ADCx->CR |= ADC_CR_ADSTART;
 8003782:	4b08      	ldr	r3, [pc, #32]	; (80037a4 <ADC_Read+0x44>)
 8003784:	689a      	ldr	r2, [r3, #8]
 8003786:	4b07      	ldr	r3, [pc, #28]	; (80037a4 <ADC_Read+0x44>)
 8003788:	2104      	movs	r1, #4
 800378a:	430a      	orrs	r2, r1
 800378c:	609a      	str	r2, [r3, #8]

	ADC_WaitForFlag(ADC_FLAG_EOC);
 800378e:	2004      	movs	r0, #4
 8003790:	f000 f880 	bl	8003894 <ADC_WaitForFlag>

	return ADCx->DR;
 8003794:	4b03      	ldr	r3, [pc, #12]	; (80037a4 <ADC_Read+0x44>)
 8003796:	6c1b      	ldr	r3, [r3, #64]	; 0x40
}
 8003798:	0018      	movs	r0, r3
 800379a:	46bd      	mov	sp, r7
 800379c:	b002      	add	sp, #8
 800379e:	bd80      	pop	{r7, pc}
 80037a0:	20000004 	.word	0x20000004
 80037a4:	40012400 	.word	0x40012400
 80037a8:	ffffdffc 	.word	0xffffdffc

080037ac <AIN_AinToDivider>:
	__HAL_RCC_ADC1_CLK_DISABLE();
	CLK_DisableADCCLK();
}

uint32_t AIN_AinToDivider(uint32_t ain, uint32_t rlow, uint32_t rhigh)
{
 80037ac:	b580      	push	{r7, lr}
 80037ae:	b084      	sub	sp, #16
 80037b0:	af00      	add	r7, sp, #0
 80037b2:	60f8      	str	r0, [r7, #12]
 80037b4:	60b9      	str	r1, [r7, #8]
 80037b6:	607a      	str	r2, [r7, #4]
	return AIN_AinToMv(ain) * (rhigh + rlow) / rlow;
 80037b8:	68fb      	ldr	r3, [r7, #12]
 80037ba:	0018      	movs	r0, r3
 80037bc:	f000 f80e 	bl	80037dc <AIN_AinToMv>
 80037c0:	0001      	movs	r1, r0
 80037c2:	687a      	ldr	r2, [r7, #4]
 80037c4:	68bb      	ldr	r3, [r7, #8]
 80037c6:	18d3      	adds	r3, r2, r3
 80037c8:	434b      	muls	r3, r1
 80037ca:	68b9      	ldr	r1, [r7, #8]
 80037cc:	0018      	movs	r0, r3
 80037ce:	f7fc fc9b 	bl	8000108 <__udivsi3>
 80037d2:	0003      	movs	r3, r0
}
 80037d4:	0018      	movs	r0, r3
 80037d6:	46bd      	mov	sp, r7
 80037d8:	b004      	add	sp, #16
 80037da:	bd80      	pop	{r7, pc}

080037dc <AIN_AinToMv>:

uint32_t AIN_AinToMv(uint32_t ain)
{
 80037dc:	b580      	push	{r7, lr}
 80037de:	b082      	sub	sp, #8
 80037e0:	af00      	add	r7, sp, #0
 80037e2:	6078      	str	r0, [r7, #4]
	return (ain * ADC_VREF) / ADC_MAX;
 80037e4:	687b      	ldr	r3, [r7, #4]
 80037e6:	4a05      	ldr	r2, [pc, #20]	; (80037fc <AIN_AinToMv+0x20>)
 80037e8:	4353      	muls	r3, r2
 80037ea:	4905      	ldr	r1, [pc, #20]	; (8003800 <AIN_AinToMv+0x24>)
 80037ec:	0018      	movs	r0, r3
 80037ee:	f7fc fc8b 	bl	8000108 <__udivsi3>
 80037f2:	0003      	movs	r3, r0
}
 80037f4:	0018      	movs	r0, r3
 80037f6:	46bd      	mov	sp, r7
 80037f8:	b002      	add	sp, #8
 80037fa:	bd80      	pop	{r7, pc}
 80037fc:	00000ce4 	.word	0x00000ce4
 8003800:	00000fff 	.word	0x00000fff

08003804 <ADC_ReadDieTemp>:

int32_t ADC_ReadDieTemp(void)
{
 8003804:	b580      	push	{r7, lr}
 8003806:	b082      	sub	sp, #8
 8003808:	af00      	add	r7, sp, #0
	ADC->CCR |= ADC_CCR_TSEN;
 800380a:	4b1c      	ldr	r3, [pc, #112]	; (800387c <ADC_ReadDieTemp+0x78>)
 800380c:	681a      	ldr	r2, [r3, #0]
 800380e:	4b1b      	ldr	r3, [pc, #108]	; (800387c <ADC_ReadDieTemp+0x78>)
 8003810:	2180      	movs	r1, #128	; 0x80
 8003812:	0409      	lsls	r1, r1, #16
 8003814:	430a      	orrs	r2, r1
 8003816:	601a      	str	r2, [r3, #0]
	US_Delay(10);
 8003818:	200a      	movs	r0, #10
 800381a:	f001 fa59 	bl	8004cd0 <US_Delay>
	int32_t ain = ADC_Read(ADC_Channel_Temp);
 800381e:	2380      	movs	r3, #128	; 0x80
 8003820:	02db      	lsls	r3, r3, #11
 8003822:	0018      	movs	r0, r3
 8003824:	f7ff ff9c 	bl	8003760 <ADC_Read>
 8003828:	0003      	movs	r3, r0
 800382a:	607b      	str	r3, [r7, #4]
	ADC->CCR &= ~ADC_CCR_TSEN;
 800382c:	4b13      	ldr	r3, [pc, #76]	; (800387c <ADC_ReadDieTemp+0x78>)
 800382e:	681a      	ldr	r2, [r3, #0]
 8003830:	4b12      	ldr	r3, [pc, #72]	; (800387c <ADC_ReadDieTemp+0x78>)
 8003832:	4913      	ldr	r1, [pc, #76]	; (8003880 <ADC_ReadDieTemp+0x7c>)
 8003834:	400a      	ands	r2, r1
 8003836:	601a      	str	r2, [r3, #0]

	// The temp sensor is not ratiometric, so the vref must be adjusted for.
	ain = ain * ADC_VREF / TS_CAL_VREF;
 8003838:	687b      	ldr	r3, [r7, #4]
 800383a:	4a12      	ldr	r2, [pc, #72]	; (8003884 <ADC_ReadDieTemp+0x80>)
 800383c:	4353      	muls	r3, r2
 800383e:	4912      	ldr	r1, [pc, #72]	; (8003888 <ADC_ReadDieTemp+0x84>)
 8003840:	0018      	movs	r0, r3
 8003842:	f7fc fceb 	bl	800021c <__divsi3>
 8003846:	0003      	movs	r3, r0
 8003848:	607b      	str	r3, [r7, #4]
	ain = ((ain - TS_CAL1_AIN) * (TS_CAL2_DEG - TS_CAL1_DEG) / (TS_CAL2_AIN - TS_CAL1_AIN)) + TS_CAL1_DEG;
 800384a:	4b10      	ldr	r3, [pc, #64]	; (800388c <ADC_ReadDieTemp+0x88>)
 800384c:	881b      	ldrh	r3, [r3, #0]
 800384e:	001a      	movs	r2, r3
 8003850:	687b      	ldr	r3, [r7, #4]
 8003852:	1a9b      	subs	r3, r3, r2
 8003854:	2264      	movs	r2, #100	; 0x64
 8003856:	4353      	muls	r3, r2
 8003858:	4a0d      	ldr	r2, [pc, #52]	; (8003890 <ADC_ReadDieTemp+0x8c>)
 800385a:	8812      	ldrh	r2, [r2, #0]
 800385c:	0011      	movs	r1, r2
 800385e:	4a0b      	ldr	r2, [pc, #44]	; (800388c <ADC_ReadDieTemp+0x88>)
 8003860:	8812      	ldrh	r2, [r2, #0]
 8003862:	1a8a      	subs	r2, r1, r2
 8003864:	0011      	movs	r1, r2
 8003866:	0018      	movs	r0, r3
 8003868:	f7fc fcd8 	bl	800021c <__divsi3>
 800386c:	0003      	movs	r3, r0
 800386e:	331e      	adds	r3, #30
 8003870:	607b      	str	r3, [r7, #4]
//	ain = ((ain - 665) * (TS_CAL2_DEG - TS_CAL1_DEG) / (897 - 665)) + TS_CAL1_DEG;
	return ain;
 8003872:	687b      	ldr	r3, [r7, #4]
}
 8003874:	0018      	movs	r0, r3
 8003876:	46bd      	mov	sp, r7
 8003878:	b002      	add	sp, #8
 800387a:	bd80      	pop	{r7, pc}
 800387c:	40012708 	.word	0x40012708
 8003880:	ff7fffff 	.word	0xff7fffff
 8003884:	00000ce4 	.word	0x00000ce4
 8003888:	00000bb8 	.word	0x00000bb8
 800388c:	1ff8007a 	.word	0x1ff8007a
 8003890:	1ff8007e 	.word	0x1ff8007e

08003894 <ADC_WaitForFlag>:
		while(ADCx->CR & ADC_CR_ADSTART);
	}
}

static void ADC_WaitForFlag(uint32_t flag)
{
 8003894:	b580      	push	{r7, lr}
 8003896:	b082      	sub	sp, #8
 8003898:	af00      	add	r7, sp, #0
 800389a:	6078      	str	r0, [r7, #4]
	while (!__HAL_ADC_GET_FLAG(&gADC, flag));
 800389c:	46c0      	nop			; (mov r8, r8)
 800389e:	4b06      	ldr	r3, [pc, #24]	; (80038b8 <ADC_WaitForFlag+0x24>)
 80038a0:	681b      	ldr	r3, [r3, #0]
 80038a2:	681b      	ldr	r3, [r3, #0]
 80038a4:	687a      	ldr	r2, [r7, #4]
 80038a6:	4013      	ands	r3, r2
 80038a8:	687a      	ldr	r2, [r7, #4]
 80038aa:	429a      	cmp	r2, r3
 80038ac:	d1f7      	bne.n	800389e <ADC_WaitForFlag+0xa>
}
 80038ae:	46c0      	nop			; (mov r8, r8)
 80038b0:	46c0      	nop			; (mov r8, r8)
 80038b2:	46bd      	mov	sp, r7
 80038b4:	b002      	add	sp, #8
 80038b6:	bd80      	pop	{r7, pc}
 80038b8:	20000004 	.word	0x20000004

080038bc <ADC_Calibrate>:

static void ADC_Calibrate(void)
{
 80038bc:	b580      	push	{r7, lr}
 80038be:	af00      	add	r7, sp, #0
	// Note, ADC must be disabled for this to occurr
	ADCx->CR |= ADC_CR_ADCAL;
 80038c0:	4b07      	ldr	r3, [pc, #28]	; (80038e0 <ADC_Calibrate+0x24>)
 80038c2:	689a      	ldr	r2, [r3, #8]
 80038c4:	4b06      	ldr	r3, [pc, #24]	; (80038e0 <ADC_Calibrate+0x24>)
 80038c6:	2180      	movs	r1, #128	; 0x80
 80038c8:	0609      	lsls	r1, r1, #24
 80038ca:	430a      	orrs	r2, r1
 80038cc:	609a      	str	r2, [r3, #8]
	while(ADCx->CR & ADC_CR_ADCAL);
 80038ce:	46c0      	nop			; (mov r8, r8)
 80038d0:	4b03      	ldr	r3, [pc, #12]	; (80038e0 <ADC_Calibrate+0x24>)
 80038d2:	689b      	ldr	r3, [r3, #8]
 80038d4:	2b00      	cmp	r3, #0
 80038d6:	dbfb      	blt.n	80038d0 <ADC_Calibrate+0x14>
}
 80038d8:	46c0      	nop			; (mov r8, r8)
 80038da:	46c0      	nop			; (mov r8, r8)
 80038dc:	46bd      	mov	sp, r7
 80038de:	bd80      	pop	{r7, pc}
 80038e0:	40012400 	.word	0x40012400

080038e4 <CLK_InitSYSCLK>:
/*
 * PUBLIC FUNCTIONS
 */

void CLK_InitSYSCLK(void)
{
 80038e4:	b580      	push	{r7, lr}
 80038e6:	af00      	add	r7, sp, #0
	__HAL_FLASH_SET_LATENCY(FLASH_LATENCY_1);
 80038e8:	4b33      	ldr	r3, [pc, #204]	; (80039b8 <CLK_InitSYSCLK+0xd4>)
 80038ea:	681a      	ldr	r2, [r3, #0]
 80038ec:	4b32      	ldr	r3, [pc, #200]	; (80039b8 <CLK_InitSYSCLK+0xd4>)
 80038ee:	2101      	movs	r1, #1
 80038f0:	430a      	orrs	r2, r1
 80038f2:	601a      	str	r2, [r3, #0]
#ifdef CLK_USE_HSE
	__HAL_RCC_HSE_CONFIG(RCC_HSE_ON);
	while(__HAL_RCC_GET_FLAG(RCC_FLAG_HSERDY) == 0U);
#endif
#ifdef CLK_USE_HSI
	__HAL_RCC_HSI_CALIBRATIONVALUE_ADJUST(RCC_HSICALIBRATION_DEFAULT);
 80038f4:	4b31      	ldr	r3, [pc, #196]	; (80039bc <CLK_InitSYSCLK+0xd8>)
 80038f6:	685b      	ldr	r3, [r3, #4]
 80038f8:	4a31      	ldr	r2, [pc, #196]	; (80039c0 <CLK_InitSYSCLK+0xdc>)
 80038fa:	401a      	ands	r2, r3
 80038fc:	4b2f      	ldr	r3, [pc, #188]	; (80039bc <CLK_InitSYSCLK+0xd8>)
 80038fe:	2180      	movs	r1, #128	; 0x80
 8003900:	0149      	lsls	r1, r1, #5
 8003902:	430a      	orrs	r2, r1
 8003904:	605a      	str	r2, [r3, #4]
	__HAL_RCC_HSI_ENABLE();
 8003906:	4b2d      	ldr	r3, [pc, #180]	; (80039bc <CLK_InitSYSCLK+0xd8>)
 8003908:	681a      	ldr	r2, [r3, #0]
 800390a:	4b2c      	ldr	r3, [pc, #176]	; (80039bc <CLK_InitSYSCLK+0xd8>)
 800390c:	2101      	movs	r1, #1
 800390e:	430a      	orrs	r2, r1
 8003910:	601a      	str	r2, [r3, #0]
	while(__HAL_RCC_GET_FLAG(RCC_FLAG_HSIRDY) == 0U);
 8003912:	46c0      	nop			; (mov r8, r8)
 8003914:	4b29      	ldr	r3, [pc, #164]	; (80039bc <CLK_InitSYSCLK+0xd8>)
 8003916:	681b      	ldr	r3, [r3, #0]
 8003918:	2204      	movs	r2, #4
 800391a:	4013      	ands	r3, r2
 800391c:	d0fa      	beq.n	8003914 <CLK_InitSYSCLK+0x30>
	__HAL_RCC_MSI_CALIBRATIONVALUE_ADJUST(RCC_MSICALIBRATION_DEFAULT);
#endif

#ifdef CLK_USE_PLL
	// PLL must be disables for configuration.
	__HAL_RCC_PLL_DISABLE();
 800391e:	4b27      	ldr	r3, [pc, #156]	; (80039bc <CLK_InitSYSCLK+0xd8>)
 8003920:	681a      	ldr	r2, [r3, #0]
 8003922:	4b26      	ldr	r3, [pc, #152]	; (80039bc <CLK_InitSYSCLK+0xd8>)
 8003924:	4927      	ldr	r1, [pc, #156]	; (80039c4 <CLK_InitSYSCLK+0xe0>)
 8003926:	400a      	ands	r2, r1
 8003928:	601a      	str	r2, [r3, #0]
	while(__HAL_RCC_GET_FLAG(RCC_FLAG_PLLRDY) != 0U);
 800392a:	46c0      	nop			; (mov r8, r8)
 800392c:	4b23      	ldr	r3, [pc, #140]	; (80039bc <CLK_InitSYSCLK+0xd8>)
 800392e:	681a      	ldr	r2, [r3, #0]
 8003930:	2380      	movs	r3, #128	; 0x80
 8003932:	049b      	lsls	r3, r3, #18
 8003934:	4013      	ands	r3, r2
 8003936:	d1f9      	bne.n	800392c <CLK_InitSYSCLK+0x48>
	__CLK_PLL_CONFIG(CLK_PLL_SRC, CLK_PLL_MUL_CFG, CLK_PLL_DIV_CFG);
 8003938:	4b20      	ldr	r3, [pc, #128]	; (80039bc <CLK_InitSYSCLK+0xd8>)
 800393a:	68db      	ldr	r3, [r3, #12]
 800393c:	4a22      	ldr	r2, [pc, #136]	; (80039c8 <CLK_InitSYSCLK+0xe4>)
 800393e:	401a      	ands	r2, r3
 8003940:	4b1e      	ldr	r3, [pc, #120]	; (80039bc <CLK_InitSYSCLK+0xd8>)
 8003942:	2188      	movs	r1, #136	; 0x88
 8003944:	03c9      	lsls	r1, r1, #15
 8003946:	430a      	orrs	r2, r1
 8003948:	60da      	str	r2, [r3, #12]
	__HAL_RCC_PLL_ENABLE();
 800394a:	4b1c      	ldr	r3, [pc, #112]	; (80039bc <CLK_InitSYSCLK+0xd8>)
 800394c:	681a      	ldr	r2, [r3, #0]
 800394e:	4b1b      	ldr	r3, [pc, #108]	; (80039bc <CLK_InitSYSCLK+0xd8>)
 8003950:	2180      	movs	r1, #128	; 0x80
 8003952:	0449      	lsls	r1, r1, #17
 8003954:	430a      	orrs	r2, r1
 8003956:	601a      	str	r2, [r3, #0]
	while(__HAL_RCC_GET_FLAG(RCC_FLAG_PLLRDY) == 0U);
 8003958:	46c0      	nop			; (mov r8, r8)
 800395a:	4b18      	ldr	r3, [pc, #96]	; (80039bc <CLK_InitSYSCLK+0xd8>)
 800395c:	681a      	ldr	r2, [r3, #0]
 800395e:	2380      	movs	r3, #128	; 0x80
 8003960:	049b      	lsls	r3, r3, #18
 8003962:	4013      	ands	r3, r2
 8003964:	d0f9      	beq.n	800395a <CLK_InitSYSCLK+0x76>
	 * CONFIGURE CLOCKS
	 * Select the sources and dividers for internal clocks
	 */

	// Configure AHBCLK divider
	MODIFY_REG(RCC->CFGR, RCC_CFGR_HPRE, RCC_SYSCLK_DIV1);
 8003966:	4b15      	ldr	r3, [pc, #84]	; (80039bc <CLK_InitSYSCLK+0xd8>)
 8003968:	68da      	ldr	r2, [r3, #12]
 800396a:	4b14      	ldr	r3, [pc, #80]	; (80039bc <CLK_InitSYSCLK+0xd8>)
 800396c:	21f0      	movs	r1, #240	; 0xf0
 800396e:	438a      	bics	r2, r1
 8003970:	60da      	str	r2, [r3, #12]

	// Apply SYSCLK source
	__HAL_RCC_SYSCLK_CONFIG(CLK_SYSCLK_SRC);
 8003972:	4b12      	ldr	r3, [pc, #72]	; (80039bc <CLK_InitSYSCLK+0xd8>)
 8003974:	68da      	ldr	r2, [r3, #12]
 8003976:	4b11      	ldr	r3, [pc, #68]	; (80039bc <CLK_InitSYSCLK+0xd8>)
 8003978:	2103      	movs	r1, #3
 800397a:	430a      	orrs	r2, r1
 800397c:	60da      	str	r2, [r3, #12]
#elif (CLK_SYSCLK_SRC == RCC_SYSCLKSOURCE_STATUS_HSI)
	while (__HAL_RCC_GET_SYSCLK_SOURCE() != RCC_SYSCLKSOURCE_STATUS_HSI);
#elif (CLK_SYSCLK_SRC == RCC_SYSCLKSOURCE_STATUS_HSE)
	while (__HAL_RCC_GET_SYSCLK_SOURCE() != RCC_SYSCLKSOURCE_STATUS_HSE);
#elif (CLK_SYSCLK_SRC == RCC_SYSCLKSOURCE_PLLCLK)
	while (__HAL_RCC_GET_SYSCLK_SOURCE() != RCC_SYSCLKSOURCE_STATUS_PLLCLK);
 800397e:	46c0      	nop			; (mov r8, r8)
 8003980:	4b0e      	ldr	r3, [pc, #56]	; (80039bc <CLK_InitSYSCLK+0xd8>)
 8003982:	68db      	ldr	r3, [r3, #12]
 8003984:	220c      	movs	r2, #12
 8003986:	4013      	ands	r3, r2
 8003988:	2b0c      	cmp	r3, #12
 800398a:	d1f9      	bne.n	8003980 <CLK_InitSYSCLK+0x9c>
	// Configure PCLK dividers (peripheral clock)


#if defined(STM32L0)
	// STM32L0's have a second PCLK. The shift by 3 is defined like this in the HAL.
	MODIFY_REG(RCC->CFGR, RCC_CFGR_PPRE1, RCC_HCLK_DIV1);
 800398c:	4b0b      	ldr	r3, [pc, #44]	; (80039bc <CLK_InitSYSCLK+0xd8>)
 800398e:	68da      	ldr	r2, [r3, #12]
 8003990:	4b0a      	ldr	r3, [pc, #40]	; (80039bc <CLK_InitSYSCLK+0xd8>)
 8003992:	490e      	ldr	r1, [pc, #56]	; (80039cc <CLK_InitSYSCLK+0xe8>)
 8003994:	400a      	ands	r2, r1
 8003996:	60da      	str	r2, [r3, #12]
	MODIFY_REG(RCC->CFGR, RCC_CFGR_PPRE2, RCC_HCLK_DIV1 << 3);
 8003998:	4b08      	ldr	r3, [pc, #32]	; (80039bc <CLK_InitSYSCLK+0xd8>)
 800399a:	68da      	ldr	r2, [r3, #12]
 800399c:	4b07      	ldr	r3, [pc, #28]	; (80039bc <CLK_InitSYSCLK+0xd8>)
 800399e:	490c      	ldr	r1, [pc, #48]	; (80039d0 <CLK_InitSYSCLK+0xec>)
 80039a0:	400a      	ands	r2, r1
 80039a2:	60da      	str	r2, [r3, #12]

#ifndef CLK_USE_HSI
	__HAL_RCC_HSI_DISABLE();
#endif
#if (defined(RCC_SYSCLKSOURCE_MSI) && !defined(CLK_USE_MSI))
	__HAL_RCC_MSI_DISABLE();
 80039a4:	4b05      	ldr	r3, [pc, #20]	; (80039bc <CLK_InitSYSCLK+0xd8>)
 80039a6:	681a      	ldr	r2, [r3, #0]
 80039a8:	4b04      	ldr	r3, [pc, #16]	; (80039bc <CLK_InitSYSCLK+0xd8>)
 80039aa:	490a      	ldr	r1, [pc, #40]	; (80039d4 <CLK_InitSYSCLK+0xf0>)
 80039ac:	400a      	ands	r2, r1
 80039ae:	601a      	str	r2, [r3, #0]
#endif
}
 80039b0:	46c0      	nop			; (mov r8, r8)
 80039b2:	46bd      	mov	sp, r7
 80039b4:	bd80      	pop	{r7, pc}
 80039b6:	46c0      	nop			; (mov r8, r8)
 80039b8:	40022000 	.word	0x40022000
 80039bc:	40021000 	.word	0x40021000
 80039c0:	ffffe0ff 	.word	0xffffe0ff
 80039c4:	feffffff 	.word	0xfeffffff
 80039c8:	ff02ffff 	.word	0xff02ffff
 80039cc:	fffff8ff 	.word	0xfffff8ff
 80039d0:	ffffc7ff 	.word	0xffffc7ff
 80039d4:	fffffeff 	.word	0xfffffeff

080039d8 <CLK_EnableADCCLK>:
	__HAL_RCC_LSI_DISABLE();
#endif
}

void CLK_EnableADCCLK(void)
{
 80039d8:	b580      	push	{r7, lr}
 80039da:	af00      	add	r7, sp, #0
	// ADC CLK is driven off the HSI on STM32L0
#if defined(STM32L0) && !defined(CLK_USE_HSI)
	__HAL_RCC_HSI_ENABLE();
	while(__HAL_RCC_GET_FLAG(RCC_FLAG_HSIRDY) == 0);
#endif
}
 80039dc:	46c0      	nop			; (mov r8, r8)
 80039de:	46bd      	mov	sp, r7
 80039e0:	bd80      	pop	{r7, pc}
	...

080039e4 <CORE_GetTick>:
{
 80039e4:	b580      	push	{r7, lr}
 80039e6:	af00      	add	r7, sp, #0
	return gTicks;
 80039e8:	4b02      	ldr	r3, [pc, #8]	; (80039f4 <CORE_GetTick+0x10>)
 80039ea:	681b      	ldr	r3, [r3, #0]
}
 80039ec:	0018      	movs	r0, r3
 80039ee:	46bd      	mov	sp, r7
 80039f0:	bd80      	pop	{r7, pc}
 80039f2:	46c0      	nop			; (mov r8, r8)
 80039f4:	200004a8 	.word	0x200004a8

080039f8 <GPIO_Deinit>:
{
 80039f8:	b580      	push	{r7, lr}
 80039fa:	b082      	sub	sp, #8
 80039fc:	af00      	add	r7, sp, #0
 80039fe:	6078      	str	r0, [r7, #4]
 8003a00:	6039      	str	r1, [r7, #0]
	GPIO_Init(gpio, pin, GPIO_Mode_Analog);
 8003a02:	6839      	ldr	r1, [r7, #0]
 8003a04:	687b      	ldr	r3, [r7, #4]
 8003a06:	2203      	movs	r2, #3
 8003a08:	0018      	movs	r0, r3
 8003a0a:	f000 f9f7 	bl	8003dfc <GPIO_Init>
}
 8003a0e:	46c0      	nop			; (mov r8, r8)
 8003a10:	46bd      	mov	sp, r7
 8003a12:	b002      	add	sp, #8
 8003a14:	bd80      	pop	{r7, pc}
	...

08003a18 <CLK_GetHCLKFreq>:
/*
 * INLINE FUNCTION DEFINITIONS
 */

static inline uint32_t CLK_GetHCLKFreq(void)
{
 8003a18:	b580      	push	{r7, lr}
 8003a1a:	af00      	add	r7, sp, #0
	return CLK_SYSCLK_FREQ;
 8003a1c:	4b01      	ldr	r3, [pc, #4]	; (8003a24 <CLK_GetHCLKFreq+0xc>)
}
 8003a1e:	0018      	movs	r0, r3
 8003a20:	46bd      	mov	sp, r7
 8003a22:	bd80      	pop	{r7, pc}
 8003a24:	01e84800 	.word	0x01e84800

08003a28 <CORE_Init>:
/*
 * PUBLIC FUNCTIONS
 */

void CORE_Init(void)
{
 8003a28:	b580      	push	{r7, lr}
 8003a2a:	af00      	add	r7, sp, #0
#if defined(STM32L0)
	__HAL_FLASH_PREREAD_BUFFER_ENABLE();
 8003a2c:	4b15      	ldr	r3, [pc, #84]	; (8003a84 <CORE_Init+0x5c>)
 8003a2e:	681a      	ldr	r2, [r3, #0]
 8003a30:	4b14      	ldr	r3, [pc, #80]	; (8003a84 <CORE_Init+0x5c>)
 8003a32:	2140      	movs	r1, #64	; 0x40
 8003a34:	430a      	orrs	r2, r1
 8003a36:	601a      	str	r2, [r3, #0]

#elif defined(STM32F0)
	__HAL_FLASH_PREFETCH_BUFFER_ENABLE();
#endif
	__HAL_RCC_SYSCFG_CLK_ENABLE();
 8003a38:	4b13      	ldr	r3, [pc, #76]	; (8003a88 <CORE_Init+0x60>)
 8003a3a:	6b5a      	ldr	r2, [r3, #52]	; 0x34
 8003a3c:	4b12      	ldr	r3, [pc, #72]	; (8003a88 <CORE_Init+0x60>)
 8003a3e:	2101      	movs	r1, #1
 8003a40:	430a      	orrs	r2, r1
 8003a42:	635a      	str	r2, [r3, #52]	; 0x34
	__HAL_RCC_PWR_CLK_ENABLE();
 8003a44:	4b10      	ldr	r3, [pc, #64]	; (8003a88 <CORE_Init+0x60>)
 8003a46:	6b9a      	ldr	r2, [r3, #56]	; 0x38
 8003a48:	4b0f      	ldr	r3, [pc, #60]	; (8003a88 <CORE_Init+0x60>)
 8003a4a:	2180      	movs	r1, #128	; 0x80
 8003a4c:	0549      	lsls	r1, r1, #21
 8003a4e:	430a      	orrs	r2, r1
 8003a50:	639a      	str	r2, [r3, #56]	; 0x38
#ifdef STM32L0
#ifndef USB_ENABLE
	// This seems to disrupt USB. Future investigation needed.
	SET_BIT(PWR->CR, PWR_CR_ULP | PWR_CR_FWU); // Enable Ultra low power mode & Fast wakeup
 8003a52:	4b0e      	ldr	r3, [pc, #56]	; (8003a8c <CORE_Init+0x64>)
 8003a54:	681a      	ldr	r2, [r3, #0]
 8003a56:	4b0d      	ldr	r3, [pc, #52]	; (8003a8c <CORE_Init+0x64>)
 8003a58:	21c0      	movs	r1, #192	; 0xc0
 8003a5a:	00c9      	lsls	r1, r1, #3
 8003a5c:	430a      	orrs	r2, r1
 8003a5e:	601a      	str	r2, [r3, #0]
#endif
	__HAL_PWR_VOLTAGESCALING_CONFIG(CORE_VOLTAGE_RANGE);
 8003a60:	4b0a      	ldr	r3, [pc, #40]	; (8003a8c <CORE_Init+0x64>)
 8003a62:	681b      	ldr	r3, [r3, #0]
 8003a64:	4a0a      	ldr	r2, [pc, #40]	; (8003a90 <CORE_Init+0x68>)
 8003a66:	401a      	ands	r2, r3
 8003a68:	4b08      	ldr	r3, [pc, #32]	; (8003a8c <CORE_Init+0x64>)
 8003a6a:	2180      	movs	r1, #128	; 0x80
 8003a6c:	0109      	lsls	r1, r1, #4
 8003a6e:	430a      	orrs	r2, r1
 8003a70:	601a      	str	r2, [r3, #0]
#endif

	CLK_InitSYSCLK();
 8003a72:	f7ff ff37 	bl	80038e4 <CLK_InitSYSCLK>
	CORE_InitSysTick();
 8003a76:	f000 f82e 	bl	8003ad6 <CORE_InitSysTick>
	CORE_InitGPIO();
 8003a7a:	f000 f845 	bl	8003b08 <CORE_InitGPIO>
#ifdef	US_ENABLE
	US_Init();
#endif
}
 8003a7e:	46c0      	nop			; (mov r8, r8)
 8003a80:	46bd      	mov	sp, r7
 8003a82:	bd80      	pop	{r7, pc}
 8003a84:	40022000 	.word	0x40022000
 8003a88:	40021000 	.word	0x40021000
 8003a8c:	40007000 	.word	0x40007000
 8003a90:	ffffe7ff 	.word	0xffffe7ff

08003a94 <CORE_Idle>:

void __attribute__ ((noinline)) CORE_Idle(void)
{
 8003a94:	b580      	push	{r7, lr}
 8003a96:	af00      	add	r7, sp, #0
	// The push and pop of this function protects r0 from being clobbered during interrupt.
	// I do not understand why this is not preserved by the IRQ's push/pop.
	// If this function is inlined - then the usually pushed registers can get clobbered when returning from WFI.

	// As long as systick is on, this will at least return each millisecond.
	__WFI();
 8003a98:	bf30      	wfi
}
 8003a9a:	46c0      	nop			; (mov r8, r8)
 8003a9c:	46bd      	mov	sp, r7
 8003a9e:	bd80      	pop	{r7, pc}

08003aa0 <CORE_Delay>:
	CLK_InitSYSCLK();
	HAL_ResumeTick();
}

void CORE_Delay(uint32_t ms)
{
 8003aa0:	b580      	push	{r7, lr}
 8003aa2:	b084      	sub	sp, #16
 8003aa4:	af00      	add	r7, sp, #0
 8003aa6:	6078      	str	r0, [r7, #4]
	ms += MS_PER_SYSTICK; // Add to guarantee a minimum delay
 8003aa8:	687b      	ldr	r3, [r7, #4]
 8003aaa:	3301      	adds	r3, #1
 8003aac:	607b      	str	r3, [r7, #4]
	uint32_t start = CORE_GetTick();
 8003aae:	f7ff ff99 	bl	80039e4 <CORE_GetTick>
 8003ab2:	0003      	movs	r3, r0
 8003ab4:	60fb      	str	r3, [r7, #12]
	while (CORE_GetTick() - start < ms)
 8003ab6:	e001      	b.n	8003abc <CORE_Delay+0x1c>
	{
		CORE_Idle();
 8003ab8:	f7ff ffec 	bl	8003a94 <CORE_Idle>
	while (CORE_GetTick() - start < ms)
 8003abc:	f7ff ff92 	bl	80039e4 <CORE_GetTick>
 8003ac0:	0002      	movs	r2, r0
 8003ac2:	68fb      	ldr	r3, [r7, #12]
 8003ac4:	1ad3      	subs	r3, r2, r3
 8003ac6:	687a      	ldr	r2, [r7, #4]
 8003ac8:	429a      	cmp	r2, r3
 8003aca:	d8f5      	bhi.n	8003ab8 <CORE_Delay+0x18>
	}
}
 8003acc:	46c0      	nop			; (mov r8, r8)
 8003ace:	46c0      	nop			; (mov r8, r8)
 8003ad0:	46bd      	mov	sp, r7
 8003ad2:	b004      	add	sp, #16
 8003ad4:	bd80      	pop	{r7, pc}

08003ad6 <CORE_InitSysTick>:
/*
 * PRIVATE FUNCTIONS
 */

void CORE_InitSysTick(void)
{
 8003ad6:	b580      	push	{r7, lr}
 8003ad8:	af00      	add	r7, sp, #0
	HAL_SYSTICK_Config(CLK_GetHCLKFreq() / CORE_SYSTICK_FREQ);
 8003ada:	f7ff ff9d 	bl	8003a18 <CLK_GetHCLKFreq>
 8003ade:	0002      	movs	r2, r0
 8003ae0:	23fa      	movs	r3, #250	; 0xfa
 8003ae2:	0099      	lsls	r1, r3, #2
 8003ae4:	0010      	movs	r0, r2
 8003ae6:	f7fc fb0f 	bl	8000108 <__udivsi3>
 8003aea:	0003      	movs	r3, r0
 8003aec:	0018      	movs	r0, r3
 8003aee:	f7fe fa4c 	bl	8001f8a <HAL_SYSTICK_Config>
	HAL_NVIC_SetPriority(SysTick_IRQn, 0, 0);
 8003af2:	2301      	movs	r3, #1
 8003af4:	425b      	negs	r3, r3
 8003af6:	2200      	movs	r2, #0
 8003af8:	2100      	movs	r1, #0
 8003afa:	0018      	movs	r0, r3
 8003afc:	f7fe fa10 	bl	8001f20 <HAL_NVIC_SetPriority>
}
 8003b00:	46c0      	nop			; (mov r8, r8)
 8003b02:	46bd      	mov	sp, r7
 8003b04:	bd80      	pop	{r7, pc}
	...

08003b08 <CORE_InitGPIO>:

void CORE_InitGPIO(void)
{
 8003b08:	b580      	push	{r7, lr}
 8003b0a:	b084      	sub	sp, #16
 8003b0c:	af00      	add	r7, sp, #0
	__HAL_RCC_GPIOA_CLK_ENABLE();
 8003b0e:	4b26      	ldr	r3, [pc, #152]	; (8003ba8 <CORE_InitGPIO+0xa0>)
 8003b10:	6ada      	ldr	r2, [r3, #44]	; 0x2c
 8003b12:	4b25      	ldr	r3, [pc, #148]	; (8003ba8 <CORE_InitGPIO+0xa0>)
 8003b14:	2101      	movs	r1, #1
 8003b16:	430a      	orrs	r2, r1
 8003b18:	62da      	str	r2, [r3, #44]	; 0x2c
 8003b1a:	4b23      	ldr	r3, [pc, #140]	; (8003ba8 <CORE_InitGPIO+0xa0>)
 8003b1c:	6adb      	ldr	r3, [r3, #44]	; 0x2c
 8003b1e:	2201      	movs	r2, #1
 8003b20:	4013      	ands	r3, r2
 8003b22:	60fb      	str	r3, [r7, #12]
 8003b24:	68fb      	ldr	r3, [r7, #12]
#ifdef DEBUG
	// SWCLK and SWDIO on PA13, PA14
	GPIO_Deinit(GPIOA, GPIO_PIN_All & ~(GPIO_PIN_13 | GPIO_PIN_14));
 8003b26:	4a21      	ldr	r2, [pc, #132]	; (8003bac <CORE_InitGPIO+0xa4>)
 8003b28:	23a0      	movs	r3, #160	; 0xa0
 8003b2a:	05db      	lsls	r3, r3, #23
 8003b2c:	0011      	movs	r1, r2
 8003b2e:	0018      	movs	r0, r3
 8003b30:	f7ff ff62 	bl	80039f8 <GPIO_Deinit>
#else
	GPIO_Deinit(GPIOA, GPIO_PIN_All);
#endif

	__HAL_RCC_GPIOB_CLK_ENABLE();
 8003b34:	4b1c      	ldr	r3, [pc, #112]	; (8003ba8 <CORE_InitGPIO+0xa0>)
 8003b36:	6ada      	ldr	r2, [r3, #44]	; 0x2c
 8003b38:	4b1b      	ldr	r3, [pc, #108]	; (8003ba8 <CORE_InitGPIO+0xa0>)
 8003b3a:	2102      	movs	r1, #2
 8003b3c:	430a      	orrs	r2, r1
 8003b3e:	62da      	str	r2, [r3, #44]	; 0x2c
 8003b40:	4b19      	ldr	r3, [pc, #100]	; (8003ba8 <CORE_InitGPIO+0xa0>)
 8003b42:	6adb      	ldr	r3, [r3, #44]	; 0x2c
 8003b44:	2202      	movs	r2, #2
 8003b46:	4013      	ands	r3, r2
 8003b48:	60bb      	str	r3, [r7, #8]
 8003b4a:	68bb      	ldr	r3, [r7, #8]
	GPIO_Deinit(GPIOB, GPIO_PIN_All);
 8003b4c:	4a18      	ldr	r2, [pc, #96]	; (8003bb0 <CORE_InitGPIO+0xa8>)
 8003b4e:	4b19      	ldr	r3, [pc, #100]	; (8003bb4 <CORE_InitGPIO+0xac>)
 8003b50:	0011      	movs	r1, r2
 8003b52:	0018      	movs	r0, r3
 8003b54:	f7ff ff50 	bl	80039f8 <GPIO_Deinit>

	__HAL_RCC_GPIOC_CLK_ENABLE();
 8003b58:	4b13      	ldr	r3, [pc, #76]	; (8003ba8 <CORE_InitGPIO+0xa0>)
 8003b5a:	6ada      	ldr	r2, [r3, #44]	; 0x2c
 8003b5c:	4b12      	ldr	r3, [pc, #72]	; (8003ba8 <CORE_InitGPIO+0xa0>)
 8003b5e:	2104      	movs	r1, #4
 8003b60:	430a      	orrs	r2, r1
 8003b62:	62da      	str	r2, [r3, #44]	; 0x2c
 8003b64:	4b10      	ldr	r3, [pc, #64]	; (8003ba8 <CORE_InitGPIO+0xa0>)
 8003b66:	6adb      	ldr	r3, [r3, #44]	; 0x2c
 8003b68:	2204      	movs	r2, #4
 8003b6a:	4013      	ands	r3, r2
 8003b6c:	607b      	str	r3, [r7, #4]
 8003b6e:	687b      	ldr	r3, [r7, #4]
	GPIO_Deinit(GPIOC, GPIO_PIN_All);
 8003b70:	4a0f      	ldr	r2, [pc, #60]	; (8003bb0 <CORE_InitGPIO+0xa8>)
 8003b72:	4b11      	ldr	r3, [pc, #68]	; (8003bb8 <CORE_InitGPIO+0xb0>)
 8003b74:	0011      	movs	r1, r2
 8003b76:	0018      	movs	r0, r3
 8003b78:	f7ff ff3e 	bl	80039f8 <GPIO_Deinit>

#if defined(GPIOD)
	__HAL_RCC_GPIOD_CLK_ENABLE();
 8003b7c:	4b0a      	ldr	r3, [pc, #40]	; (8003ba8 <CORE_InitGPIO+0xa0>)
 8003b7e:	6ada      	ldr	r2, [r3, #44]	; 0x2c
 8003b80:	4b09      	ldr	r3, [pc, #36]	; (8003ba8 <CORE_InitGPIO+0xa0>)
 8003b82:	2108      	movs	r1, #8
 8003b84:	430a      	orrs	r2, r1
 8003b86:	62da      	str	r2, [r3, #44]	; 0x2c
 8003b88:	4b07      	ldr	r3, [pc, #28]	; (8003ba8 <CORE_InitGPIO+0xa0>)
 8003b8a:	6adb      	ldr	r3, [r3, #44]	; 0x2c
 8003b8c:	2208      	movs	r2, #8
 8003b8e:	4013      	ands	r3, r2
 8003b90:	603b      	str	r3, [r7, #0]
 8003b92:	683b      	ldr	r3, [r7, #0]
	GPIO_Deinit(GPIOD, GPIO_PIN_All);
 8003b94:	4a06      	ldr	r2, [pc, #24]	; (8003bb0 <CORE_InitGPIO+0xa8>)
 8003b96:	4b09      	ldr	r3, [pc, #36]	; (8003bbc <CORE_InitGPIO+0xb4>)
 8003b98:	0011      	movs	r1, r2
 8003b9a:	0018      	movs	r0, r3
 8003b9c:	f7ff ff2c 	bl	80039f8 <GPIO_Deinit>
#endif
}
 8003ba0:	46c0      	nop			; (mov r8, r8)
 8003ba2:	46bd      	mov	sp, r7
 8003ba4:	b004      	add	sp, #16
 8003ba6:	bd80      	pop	{r7, pc}
 8003ba8:	40021000 	.word	0x40021000
 8003bac:	00009fff 	.word	0x00009fff
 8003bb0:	0000ffff 	.word	0x0000ffff
 8003bb4:	50000400 	.word	0x50000400
 8003bb8:	50000800 	.word	0x50000800
 8003bbc:	50000c00 	.word	0x50000c00

08003bc0 <SysTick_Handler>:
/*
 * INTERRUPT ROUTINES
 */

void SysTick_Handler(void)
{
 8003bc0:	b580      	push	{r7, lr}
 8003bc2:	af00      	add	r7, sp, #0
	gTicks += MS_PER_SYSTICK;
 8003bc4:	4b03      	ldr	r3, [pc, #12]	; (8003bd4 <SysTick_Handler+0x14>)
 8003bc6:	681b      	ldr	r3, [r3, #0]
 8003bc8:	1c5a      	adds	r2, r3, #1
 8003bca:	4b02      	ldr	r3, [pc, #8]	; (8003bd4 <SysTick_Handler+0x14>)
 8003bcc:	601a      	str	r2, [r3, #0]
	if (gTickCallback != NULL)
	{
		gTickCallback();
	}
#endif
}
 8003bce:	46c0      	nop			; (mov r8, r8)
 8003bd0:	46bd      	mov	sp, r7
 8003bd2:	bd80      	pop	{r7, pc}
 8003bd4:	200004a8 	.word	0x200004a8

08003bd8 <EEPROM_Write>:
/*
 * PUBLIC FUNCTIONS
 */

void EEPROM_Write(uint32_t offset, const void * data, uint32_t size)
{
 8003bd8:	b580      	push	{r7, lr}
 8003bda:	b088      	sub	sp, #32
 8003bdc:	af00      	add	r7, sp, #0
 8003bde:	60f8      	str	r0, [r7, #12]
 8003be0:	60b9      	str	r1, [r7, #8]
 8003be2:	607a      	str	r2, [r7, #4]
	uint8_t * bytes = (uint8_t *)data;
 8003be4:	68bb      	ldr	r3, [r7, #8]
 8003be6:	61bb      	str	r3, [r7, #24]
	uint8_t * eeprom = (uint8_t *)(DATA_EEPROM_BASE + offset);
 8003be8:	68fb      	ldr	r3, [r7, #12]
 8003bea:	4a15      	ldr	r2, [pc, #84]	; (8003c40 <EEPROM_Write+0x68>)
 8003bec:	4694      	mov	ip, r2
 8003bee:	4463      	add	r3, ip
 8003bf0:	617b      	str	r3, [r7, #20]

	EEPROM_Unlock();
 8003bf2:	f000 f83f 	bl	8003c74 <EEPROM_Unlock>
	for (uint32_t i = 0; i < size; i++)
 8003bf6:	2300      	movs	r3, #0
 8003bf8:	61fb      	str	r3, [r7, #28]
 8003bfa:	e016      	b.n	8003c2a <EEPROM_Write+0x52>
	{
		if (bytes[i] != eeprom[i])
 8003bfc:	69ba      	ldr	r2, [r7, #24]
 8003bfe:	69fb      	ldr	r3, [r7, #28]
 8003c00:	18d3      	adds	r3, r2, r3
 8003c02:	781a      	ldrb	r2, [r3, #0]
 8003c04:	6979      	ldr	r1, [r7, #20]
 8003c06:	69fb      	ldr	r3, [r7, #28]
 8003c08:	18cb      	adds	r3, r1, r3
 8003c0a:	781b      	ldrb	r3, [r3, #0]
 8003c0c:	429a      	cmp	r2, r3
 8003c0e:	d009      	beq.n	8003c24 <EEPROM_Write+0x4c>
		{
			eeprom[i] = bytes[i]; // This triggers an 8 bit write operation.
 8003c10:	69ba      	ldr	r2, [r7, #24]
 8003c12:	69fb      	ldr	r3, [r7, #28]
 8003c14:	18d2      	adds	r2, r2, r3
 8003c16:	6979      	ldr	r1, [r7, #20]
 8003c18:	69fb      	ldr	r3, [r7, #28]
 8003c1a:	18cb      	adds	r3, r1, r3
 8003c1c:	7812      	ldrb	r2, [r2, #0]
 8003c1e:	701a      	strb	r2, [r3, #0]
			EEPROM_WaitForOperation();
 8003c20:	f000 f856 	bl	8003cd0 <EEPROM_WaitForOperation>
	for (uint32_t i = 0; i < size; i++)
 8003c24:	69fb      	ldr	r3, [r7, #28]
 8003c26:	3301      	adds	r3, #1
 8003c28:	61fb      	str	r3, [r7, #28]
 8003c2a:	69fa      	ldr	r2, [r7, #28]
 8003c2c:	687b      	ldr	r3, [r7, #4]
 8003c2e:	429a      	cmp	r2, r3
 8003c30:	d3e4      	bcc.n	8003bfc <EEPROM_Write+0x24>
		}
	}
	EEPROM_Lock();
 8003c32:	f000 f83f 	bl	8003cb4 <EEPROM_Lock>
}
 8003c36:	46c0      	nop			; (mov r8, r8)
 8003c38:	46bd      	mov	sp, r7
 8003c3a:	b008      	add	sp, #32
 8003c3c:	bd80      	pop	{r7, pc}
 8003c3e:	46c0      	nop			; (mov r8, r8)
 8003c40:	08080000 	.word	0x08080000

08003c44 <EEPROM_Read>:

void EEPROM_Read(uint32_t offset, void * data, uint32_t size)
{
 8003c44:	b580      	push	{r7, lr}
 8003c46:	b086      	sub	sp, #24
 8003c48:	af00      	add	r7, sp, #0
 8003c4a:	60f8      	str	r0, [r7, #12]
 8003c4c:	60b9      	str	r1, [r7, #8]
 8003c4e:	607a      	str	r2, [r7, #4]
	uint8_t * eeprom = (uint8_t *)(DATA_EEPROM_BASE + offset);
 8003c50:	68fb      	ldr	r3, [r7, #12]
 8003c52:	4a07      	ldr	r2, [pc, #28]	; (8003c70 <EEPROM_Read+0x2c>)
 8003c54:	4694      	mov	ip, r2
 8003c56:	4463      	add	r3, ip
 8003c58:	617b      	str	r3, [r7, #20]
	memcpy(data, eeprom, size);
 8003c5a:	687a      	ldr	r2, [r7, #4]
 8003c5c:	6979      	ldr	r1, [r7, #20]
 8003c5e:	68bb      	ldr	r3, [r7, #8]
 8003c60:	0018      	movs	r0, r3
 8003c62:	f001 f86b 	bl	8004d3c <memcpy>
}
 8003c66:	46c0      	nop			; (mov r8, r8)
 8003c68:	46bd      	mov	sp, r7
 8003c6a:	b006      	add	sp, #24
 8003c6c:	bd80      	pop	{r7, pc}
 8003c6e:	46c0      	nop			; (mov r8, r8)
 8003c70:	08080000 	.word	0x08080000

08003c74 <EEPROM_Unlock>:
/*
 * PRIVATE FUNCTIONS
 */

static void EEPROM_Unlock(void)
{
 8003c74:	b580      	push	{r7, lr}
 8003c76:	b084      	sub	sp, #16
 8003c78:	af00      	add	r7, sp, #0
  __ASM volatile ("MRS %0, primask" : "=r" (result) :: "memory");
 8003c7a:	f3ef 8310 	mrs	r3, PRIMASK
 8003c7e:	607b      	str	r3, [r7, #4]
  return(result);
 8003c80:	687b      	ldr	r3, [r7, #4]
	// This sequence must not be interrupted.
	uint32_t primask_bit = __get_PRIMASK();
 8003c82:	60fb      	str	r3, [r7, #12]
  __ASM volatile ("cpsid i" : : : "memory");
 8003c84:	b672      	cpsid	i
}
 8003c86:	46c0      	nop			; (mov r8, r8)
	__disable_irq();

	FLASH->PEKEYR = FLASH_PEKEY1;
 8003c88:	4b07      	ldr	r3, [pc, #28]	; (8003ca8 <EEPROM_Unlock+0x34>)
 8003c8a:	4a08      	ldr	r2, [pc, #32]	; (8003cac <EEPROM_Unlock+0x38>)
 8003c8c:	60da      	str	r2, [r3, #12]
	FLASH->PEKEYR = FLASH_PEKEY2;
 8003c8e:	4b06      	ldr	r3, [pc, #24]	; (8003ca8 <EEPROM_Unlock+0x34>)
 8003c90:	4a07      	ldr	r2, [pc, #28]	; (8003cb0 <EEPROM_Unlock+0x3c>)
 8003c92:	60da      	str	r2, [r3, #12]
 8003c94:	68fb      	ldr	r3, [r7, #12]
 8003c96:	60bb      	str	r3, [r7, #8]
  __ASM volatile ("MSR primask, %0" : : "r" (priMask) : "memory");
 8003c98:	68bb      	ldr	r3, [r7, #8]
 8003c9a:	f383 8810 	msr	PRIMASK, r3
}
 8003c9e:	46c0      	nop			; (mov r8, r8)

	__set_PRIMASK(primask_bit);
}
 8003ca0:	46c0      	nop			; (mov r8, r8)
 8003ca2:	46bd      	mov	sp, r7
 8003ca4:	b004      	add	sp, #16
 8003ca6:	bd80      	pop	{r7, pc}
 8003ca8:	40022000 	.word	0x40022000
 8003cac:	89abcdef 	.word	0x89abcdef
 8003cb0:	02030405 	.word	0x02030405

08003cb4 <EEPROM_Lock>:

static inline void EEPROM_Lock(void)
{
 8003cb4:	b580      	push	{r7, lr}
 8003cb6:	af00      	add	r7, sp, #0
	SET_BIT(FLASH->PECR, FLASH_PECR_PELOCK);
 8003cb8:	4b04      	ldr	r3, [pc, #16]	; (8003ccc <EEPROM_Lock+0x18>)
 8003cba:	685a      	ldr	r2, [r3, #4]
 8003cbc:	4b03      	ldr	r3, [pc, #12]	; (8003ccc <EEPROM_Lock+0x18>)
 8003cbe:	2101      	movs	r1, #1
 8003cc0:	430a      	orrs	r2, r1
 8003cc2:	605a      	str	r2, [r3, #4]
}
 8003cc4:	46c0      	nop			; (mov r8, r8)
 8003cc6:	46bd      	mov	sp, r7
 8003cc8:	bd80      	pop	{r7, pc}
 8003cca:	46c0      	nop			; (mov r8, r8)
 8003ccc:	40022000 	.word	0x40022000

08003cd0 <EEPROM_WaitForOperation>:

static void EEPROM_WaitForOperation(void)
{
 8003cd0:	b580      	push	{r7, lr}
 8003cd2:	af00      	add	r7, sp, #0
	while(__HAL_FLASH_GET_FLAG(FLASH_FLAG_BSY));
 8003cd4:	46c0      	nop			; (mov r8, r8)
 8003cd6:	4b09      	ldr	r3, [pc, #36]	; (8003cfc <EEPROM_WaitForOperation+0x2c>)
 8003cd8:	699b      	ldr	r3, [r3, #24]
 8003cda:	2201      	movs	r2, #1
 8003cdc:	4013      	ands	r3, r2
 8003cde:	2b01      	cmp	r3, #1
 8003ce0:	d0f9      	beq.n	8003cd6 <EEPROM_WaitForOperation+0x6>
	if (__HAL_FLASH_GET_FLAG(FLASH_FLAG_EOP))
 8003ce2:	4b06      	ldr	r3, [pc, #24]	; (8003cfc <EEPROM_WaitForOperation+0x2c>)
 8003ce4:	699b      	ldr	r3, [r3, #24]
 8003ce6:	2202      	movs	r2, #2
 8003ce8:	4013      	ands	r3, r2
 8003cea:	2b02      	cmp	r3, #2
 8003cec:	d102      	bne.n	8003cf4 <EEPROM_WaitForOperation+0x24>
	{
		__HAL_FLASH_CLEAR_FLAG(FLASH_FLAG_EOP);
 8003cee:	4b03      	ldr	r3, [pc, #12]	; (8003cfc <EEPROM_WaitForOperation+0x2c>)
 8003cf0:	2202      	movs	r2, #2
 8003cf2:	619a      	str	r2, [r3, #24]
	}
}
 8003cf4:	46c0      	nop			; (mov r8, r8)
 8003cf6:	46bd      	mov	sp, r7
 8003cf8:	bd80      	pop	{r7, pc}
 8003cfa:	46c0      	nop			; (mov r8, r8)
 8003cfc:	40022000 	.word	0x40022000

08003d00 <GPIO_Set>:
{
 8003d00:	b580      	push	{r7, lr}
 8003d02:	b082      	sub	sp, #8
 8003d04:	af00      	add	r7, sp, #0
 8003d06:	6078      	str	r0, [r7, #4]
 8003d08:	6039      	str	r1, [r7, #0]
	gpio->BSRR = (uint32_t)pin;
 8003d0a:	687b      	ldr	r3, [r7, #4]
 8003d0c:	683a      	ldr	r2, [r7, #0]
 8003d0e:	619a      	str	r2, [r3, #24]
}
 8003d10:	46c0      	nop			; (mov r8, r8)
 8003d12:	46bd      	mov	sp, r7
 8003d14:	b002      	add	sp, #8
 8003d16:	bd80      	pop	{r7, pc}

08003d18 <GPIO_Reset>:
{
 8003d18:	b580      	push	{r7, lr}
 8003d1a:	b082      	sub	sp, #8
 8003d1c:	af00      	add	r7, sp, #0
 8003d1e:	6078      	str	r0, [r7, #4]
 8003d20:	6039      	str	r1, [r7, #0]
	gpio->BRR = (uint32_t)pin;
 8003d22:	687b      	ldr	r3, [r7, #4]
 8003d24:	683a      	ldr	r2, [r7, #0]
 8003d26:	629a      	str	r2, [r3, #40]	; 0x28
}
 8003d28:	46c0      	nop			; (mov r8, r8)
 8003d2a:	46bd      	mov	sp, r7
 8003d2c:	b002      	add	sp, #8
 8003d2e:	bd80      	pop	{r7, pc}

08003d30 <GPIO_Write>:
/*
 * PUBLIC FUNCTIONS
 */

void GPIO_Write(GPIO_t * gpio, uint32_t pin, GPIO_State_t state)
{
 8003d30:	b580      	push	{r7, lr}
 8003d32:	b084      	sub	sp, #16
 8003d34:	af00      	add	r7, sp, #0
 8003d36:	60f8      	str	r0, [r7, #12]
 8003d38:	60b9      	str	r1, [r7, #8]
 8003d3a:	1dfb      	adds	r3, r7, #7
 8003d3c:	701a      	strb	r2, [r3, #0]
	if (state)
 8003d3e:	1dfb      	adds	r3, r7, #7
 8003d40:	781b      	ldrb	r3, [r3, #0]
 8003d42:	2b00      	cmp	r3, #0
 8003d44:	d006      	beq.n	8003d54 <GPIO_Write+0x24>
	{
		GPIO_Set(gpio, pin);
 8003d46:	68ba      	ldr	r2, [r7, #8]
 8003d48:	68fb      	ldr	r3, [r7, #12]
 8003d4a:	0011      	movs	r1, r2
 8003d4c:	0018      	movs	r0, r3
 8003d4e:	f7ff ffd7 	bl	8003d00 <GPIO_Set>
	}
	else
	{
		GPIO_Reset(gpio, pin);
	}
}
 8003d52:	e005      	b.n	8003d60 <GPIO_Write+0x30>
		GPIO_Reset(gpio, pin);
 8003d54:	68ba      	ldr	r2, [r7, #8]
 8003d56:	68fb      	ldr	r3, [r7, #12]
 8003d58:	0011      	movs	r1, r2
 8003d5a:	0018      	movs	r0, r3
 8003d5c:	f7ff ffdc 	bl	8003d18 <GPIO_Reset>
}
 8003d60:	46c0      	nop			; (mov r8, r8)
 8003d62:	46bd      	mov	sp, r7
 8003d64:	b004      	add	sp, #16
 8003d66:	bd80      	pop	{r7, pc}

08003d68 <GPIO_EnableAlternate>:

void GPIO_EnableAlternate(GPIO_t * gpio, uint32_t pin, GPIO_Flag_t flags, uint32_t af)
{
 8003d68:	b580      	push	{r7, lr}
 8003d6a:	b084      	sub	sp, #16
 8003d6c:	af00      	add	r7, sp, #0
 8003d6e:	60f8      	str	r0, [r7, #12]
 8003d70:	60b9      	str	r1, [r7, #8]
 8003d72:	603b      	str	r3, [r7, #0]
 8003d74:	1dbb      	adds	r3, r7, #6
 8003d76:	801a      	strh	r2, [r3, #0]
	GPIO_ConfigAlternate(gpio, pin, af);
 8003d78:	683a      	ldr	r2, [r7, #0]
 8003d7a:	68b9      	ldr	r1, [r7, #8]
 8003d7c:	68fb      	ldr	r3, [r7, #12]
 8003d7e:	0018      	movs	r0, r3
 8003d80:	f000 f8ab 	bl	8003eda <GPIO_ConfigAlternate>
	GPIO_Init(gpio, pin, GPIO_Mode_Alternate | GPIO_Speed_High | flags);
 8003d84:	1dbb      	adds	r3, r7, #6
 8003d86:	881b      	ldrh	r3, [r3, #0]
 8003d88:	4a05      	ldr	r2, [pc, #20]	; (8003da0 <GPIO_EnableAlternate+0x38>)
 8003d8a:	4313      	orrs	r3, r2
 8003d8c:	b29a      	uxth	r2, r3
 8003d8e:	68b9      	ldr	r1, [r7, #8]
 8003d90:	68fb      	ldr	r3, [r7, #12]
 8003d92:	0018      	movs	r0, r3
 8003d94:	f000 f832 	bl	8003dfc <GPIO_Init>
}
 8003d98:	46c0      	nop			; (mov r8, r8)
 8003d9a:	46bd      	mov	sp, r7
 8003d9c:	b004      	add	sp, #16
 8003d9e:	bd80      	pop	{r7, pc}
 8003da0:	00000302 	.word	0x00000302

08003da4 <GPIO_OnChange>:

#ifdef GPIO_USE_IRQS
void GPIO_OnChange(GPIO_t * gpio, uint32_t pin, GPIO_IT_Dir_t dir, VoidFunction_t callback)
{
 8003da4:	b580      	push	{r7, lr}
 8003da6:	b086      	sub	sp, #24
 8003da8:	af00      	add	r7, sp, #0
 8003daa:	60f8      	str	r0, [r7, #12]
 8003dac:	60b9      	str	r1, [r7, #8]
 8003dae:	603b      	str	r3, [r7, #0]
 8003db0:	1dfb      	adds	r3, r7, #7
 8003db2:	701a      	strb	r2, [r3, #0]
	int n = 0;
 8003db4:	2300      	movs	r3, #0
 8003db6:	617b      	str	r3, [r7, #20]
	while ((pin & (1 << n)) == 0) { n++; }
 8003db8:	e002      	b.n	8003dc0 <GPIO_OnChange+0x1c>
 8003dba:	697b      	ldr	r3, [r7, #20]
 8003dbc:	3301      	adds	r3, #1
 8003dbe:	617b      	str	r3, [r7, #20]
 8003dc0:	2201      	movs	r2, #1
 8003dc2:	697b      	ldr	r3, [r7, #20]
 8003dc4:	409a      	lsls	r2, r3
 8003dc6:	0013      	movs	r3, r2
 8003dc8:	001a      	movs	r2, r3
 8003dca:	68bb      	ldr	r3, [r7, #8]
 8003dcc:	4013      	ands	r3, r2
 8003dce:	d0f4      	beq.n	8003dba <GPIO_OnChange+0x16>

	gCallback[n] = callback;
 8003dd0:	4b09      	ldr	r3, [pc, #36]	; (8003df8 <GPIO_OnChange+0x54>)
 8003dd2:	697a      	ldr	r2, [r7, #20]
 8003dd4:	0092      	lsls	r2, r2, #2
 8003dd6:	6839      	ldr	r1, [r7, #0]
 8003dd8:	50d1      	str	r1, [r2, r3]

	GPIO_ConfigInterrupt(gpio, n, dir);
 8003dda:	1dfb      	adds	r3, r7, #7
 8003ddc:	781a      	ldrb	r2, [r3, #0]
 8003dde:	6979      	ldr	r1, [r7, #20]
 8003de0:	68fb      	ldr	r3, [r7, #12]
 8003de2:	0018      	movs	r0, r3
 8003de4:	f000 f8b2 	bl	8003f4c <GPIO_ConfigInterrupt>

	EXTIx_EnableIRQn(n);
 8003de8:	697b      	ldr	r3, [r7, #20]
 8003dea:	0018      	movs	r0, r3
 8003dec:	f000 f99e 	bl	800412c <EXTIx_EnableIRQn>
}
 8003df0:	46c0      	nop			; (mov r8, r8)
 8003df2:	46bd      	mov	sp, r7
 8003df4:	b006      	add	sp, #24
 8003df6:	bd80      	pop	{r7, pc}
 8003df8:	200004ac 	.word	0x200004ac

08003dfc <GPIO_Init>:
#endif //GPIO_USE_IRQS

void GPIO_Init(GPIO_t * gpio, uint32_t pins, GPIO_Flag_t mode)
{
 8003dfc:	b580      	push	{r7, lr}
 8003dfe:	b088      	sub	sp, #32
 8003e00:	af00      	add	r7, sp, #0
 8003e02:	60f8      	str	r0, [r7, #12]
 8003e04:	60b9      	str	r1, [r7, #8]
 8003e06:	1dbb      	adds	r3, r7, #6
 8003e08:	801a      	strh	r2, [r3, #0]
	uint32_t pinmask = GPIO_SWARBitDouble(pins);
 8003e0a:	68bb      	ldr	r3, [r7, #8]
 8003e0c:	0018      	movs	r0, r3
 8003e0e:	f000 f933 	bl	8004078 <GPIO_SWARBitDouble>
 8003e12:	0003      	movs	r3, r0
 8003e14:	61fb      	str	r3, [r7, #28]

	GPIO_Mode_t dir = mode & GPIO_Mode_MASK;
 8003e16:	1dbb      	adds	r3, r7, #6
 8003e18:	881b      	ldrh	r3, [r3, #0]
 8003e1a:	b2da      	uxtb	r2, r3
 8003e1c:	201b      	movs	r0, #27
 8003e1e:	183b      	adds	r3, r7, r0
 8003e20:	2103      	movs	r1, #3
 8003e22:	400a      	ands	r2, r1
 8003e24:	701a      	strb	r2, [r3, #0]

	if (dir == GPIO_Mode_Alternate || dir == GPIO_Mode_Output)
 8003e26:	183b      	adds	r3, r7, r0
 8003e28:	781b      	ldrb	r3, [r3, #0]
 8003e2a:	2b02      	cmp	r3, #2
 8003e2c:	d003      	beq.n	8003e36 <GPIO_Init+0x3a>
 8003e2e:	183b      	adds	r3, r7, r0
 8003e30:	781b      	ldrb	r3, [r3, #0]
 8003e32:	2b01      	cmp	r3, #1
 8003e34:	d126      	bne.n	8003e84 <GPIO_Init+0x88>
	{
		uint32_t speed = (mode & GPIO_Speed_MASK) >> GPIOCFG_SPEED_POS;
 8003e36:	1dbb      	adds	r3, r7, #6
 8003e38:	881b      	ldrh	r3, [r3, #0]
 8003e3a:	121b      	asrs	r3, r3, #8
 8003e3c:	001a      	movs	r2, r3
 8003e3e:	2303      	movs	r3, #3
 8003e40:	4013      	ands	r3, r2
 8003e42:	617b      	str	r3, [r7, #20]
		MODIFY_REG( gpio->OSPEEDR, pinmask * GPIO_OSPEEDER_OSPEED0, pinmask * speed );
 8003e44:	68fb      	ldr	r3, [r7, #12]
 8003e46:	6899      	ldr	r1, [r3, #8]
 8003e48:	69fa      	ldr	r2, [r7, #28]
 8003e4a:	0013      	movs	r3, r2
 8003e4c:	005b      	lsls	r3, r3, #1
 8003e4e:	189b      	adds	r3, r3, r2
 8003e50:	43db      	mvns	r3, r3
 8003e52:	400b      	ands	r3, r1
 8003e54:	001a      	movs	r2, r3
 8003e56:	69fb      	ldr	r3, [r7, #28]
 8003e58:	6979      	ldr	r1, [r7, #20]
 8003e5a:	434b      	muls	r3, r1
 8003e5c:	431a      	orrs	r2, r3
 8003e5e:	68fb      	ldr	r3, [r7, #12]
 8003e60:	609a      	str	r2, [r3, #8]
		MODIFY_REG( gpio->OTYPER, pins, (mode & GPIO_Flag_OpenDrain) ? pins : 0 );
 8003e62:	68fb      	ldr	r3, [r7, #12]
 8003e64:	685b      	ldr	r3, [r3, #4]
 8003e66:	68ba      	ldr	r2, [r7, #8]
 8003e68:	43d2      	mvns	r2, r2
 8003e6a:	401a      	ands	r2, r3
 8003e6c:	1dbb      	adds	r3, r7, #6
 8003e6e:	8819      	ldrh	r1, [r3, #0]
 8003e70:	2380      	movs	r3, #128	; 0x80
 8003e72:	015b      	lsls	r3, r3, #5
 8003e74:	400b      	ands	r3, r1
 8003e76:	d001      	beq.n	8003e7c <GPIO_Init+0x80>
 8003e78:	68bb      	ldr	r3, [r7, #8]
 8003e7a:	e000      	b.n	8003e7e <GPIO_Init+0x82>
 8003e7c:	2300      	movs	r3, #0
 8003e7e:	431a      	orrs	r2, r3
 8003e80:	68fb      	ldr	r3, [r7, #12]
 8003e82:	605a      	str	r2, [r3, #4]
	}

	MODIFY_REG( gpio->MODER, pinmask * GPIO_MODER_MODE0, pinmask * dir);
 8003e84:	68fb      	ldr	r3, [r7, #12]
 8003e86:	6819      	ldr	r1, [r3, #0]
 8003e88:	69fa      	ldr	r2, [r7, #28]
 8003e8a:	0013      	movs	r3, r2
 8003e8c:	005b      	lsls	r3, r3, #1
 8003e8e:	189b      	adds	r3, r3, r2
 8003e90:	43db      	mvns	r3, r3
 8003e92:	400b      	ands	r3, r1
 8003e94:	001a      	movs	r2, r3
 8003e96:	231b      	movs	r3, #27
 8003e98:	18fb      	adds	r3, r7, r3
 8003e9a:	781b      	ldrb	r3, [r3, #0]
 8003e9c:	69f9      	ldr	r1, [r7, #28]
 8003e9e:	434b      	muls	r3, r1
 8003ea0:	431a      	orrs	r2, r3
 8003ea2:	68fb      	ldr	r3, [r7, #12]
 8003ea4:	601a      	str	r2, [r3, #0]
	uint32_t pull = (mode & GPIO_Pull_MASK) >> GPIOCFG_PULL_POS;
 8003ea6:	1dbb      	adds	r3, r7, #6
 8003ea8:	881b      	ldrh	r3, [r3, #0]
 8003eaa:	111b      	asrs	r3, r3, #4
 8003eac:	001a      	movs	r2, r3
 8003eae:	2303      	movs	r3, #3
 8003eb0:	4013      	ands	r3, r2
 8003eb2:	613b      	str	r3, [r7, #16]
	MODIFY_REG( gpio->PUPDR, pinmask * GPIO_PUPDR_PUPD0, pinmask * pull);
 8003eb4:	68fb      	ldr	r3, [r7, #12]
 8003eb6:	68d9      	ldr	r1, [r3, #12]
 8003eb8:	69fa      	ldr	r2, [r7, #28]
 8003eba:	0013      	movs	r3, r2
 8003ebc:	005b      	lsls	r3, r3, #1
 8003ebe:	189b      	adds	r3, r3, r2
 8003ec0:	43db      	mvns	r3, r3
 8003ec2:	400b      	ands	r3, r1
 8003ec4:	001a      	movs	r2, r3
 8003ec6:	69fb      	ldr	r3, [r7, #28]
 8003ec8:	6939      	ldr	r1, [r7, #16]
 8003eca:	434b      	muls	r3, r1
 8003ecc:	431a      	orrs	r2, r3
 8003ece:	68fb      	ldr	r3, [r7, #12]
 8003ed0:	60da      	str	r2, [r3, #12]
}
 8003ed2:	46c0      	nop			; (mov r8, r8)
 8003ed4:	46bd      	mov	sp, r7
 8003ed6:	b008      	add	sp, #32
 8003ed8:	bd80      	pop	{r7, pc}

08003eda <GPIO_ConfigAlternate>:
/*
 * PRIVATE FUNCTIONS
 */

static void GPIO_ConfigAlternate( GPIO_t * gpio, uint32_t pins, uint32_t af)
{
 8003eda:	b580      	push	{r7, lr}
 8003edc:	b086      	sub	sp, #24
 8003ede:	af00      	add	r7, sp, #0
 8003ee0:	60f8      	str	r0, [r7, #12]
 8003ee2:	60b9      	str	r1, [r7, #8]
 8003ee4:	607a      	str	r2, [r7, #4]
	uint32_t pos = 0;
 8003ee6:	2300      	movs	r3, #0
 8003ee8:	617b      	str	r3, [r7, #20]
	while (pins)
 8003eea:	e026      	b.n	8003f3a <GPIO_ConfigAlternate+0x60>
	{
		if (pins & 0x1)
 8003eec:	68bb      	ldr	r3, [r7, #8]
 8003eee:	2201      	movs	r2, #1
 8003ef0:	4013      	ands	r3, r2
 8003ef2:	d01c      	beq.n	8003f2e <GPIO_ConfigAlternate+0x54>
		{
			uint32_t alt_offset = (pos & 0x7) * 4;
 8003ef4:	697b      	ldr	r3, [r7, #20]
 8003ef6:	2207      	movs	r2, #7
 8003ef8:	4013      	ands	r3, r2
 8003efa:	009b      	lsls	r3, r3, #2
 8003efc:	613b      	str	r3, [r7, #16]
			MODIFY_REG(gpio->AFR[pos >> 3], (0xF << alt_offset), (af << alt_offset));
 8003efe:	697b      	ldr	r3, [r7, #20]
 8003f00:	08da      	lsrs	r2, r3, #3
 8003f02:	68fb      	ldr	r3, [r7, #12]
 8003f04:	3208      	adds	r2, #8
 8003f06:	0092      	lsls	r2, r2, #2
 8003f08:	58d3      	ldr	r3, [r2, r3]
 8003f0a:	210f      	movs	r1, #15
 8003f0c:	693a      	ldr	r2, [r7, #16]
 8003f0e:	4091      	lsls	r1, r2
 8003f10:	000a      	movs	r2, r1
 8003f12:	43d2      	mvns	r2, r2
 8003f14:	401a      	ands	r2, r3
 8003f16:	0011      	movs	r1, r2
 8003f18:	687a      	ldr	r2, [r7, #4]
 8003f1a:	693b      	ldr	r3, [r7, #16]
 8003f1c:	409a      	lsls	r2, r3
 8003f1e:	0013      	movs	r3, r2
 8003f20:	697a      	ldr	r2, [r7, #20]
 8003f22:	08d2      	lsrs	r2, r2, #3
 8003f24:	4319      	orrs	r1, r3
 8003f26:	68fb      	ldr	r3, [r7, #12]
 8003f28:	3208      	adds	r2, #8
 8003f2a:	0092      	lsls	r2, r2, #2
 8003f2c:	50d1      	str	r1, [r2, r3]
		}
		pins >>= 1;
 8003f2e:	68bb      	ldr	r3, [r7, #8]
 8003f30:	085b      	lsrs	r3, r3, #1
 8003f32:	60bb      	str	r3, [r7, #8]
		pos++;
 8003f34:	697b      	ldr	r3, [r7, #20]
 8003f36:	3301      	adds	r3, #1
 8003f38:	617b      	str	r3, [r7, #20]
	while (pins)
 8003f3a:	68bb      	ldr	r3, [r7, #8]
 8003f3c:	2b00      	cmp	r3, #0
 8003f3e:	d1d5      	bne.n	8003eec <GPIO_ConfigAlternate+0x12>
	}
}
 8003f40:	46c0      	nop			; (mov r8, r8)
 8003f42:	46c0      	nop			; (mov r8, r8)
 8003f44:	46bd      	mov	sp, r7
 8003f46:	b006      	add	sp, #24
 8003f48:	bd80      	pop	{r7, pc}
	...

08003f4c <GPIO_ConfigInterrupt>:

#ifdef GPIO_USE_IRQS
static void GPIO_ConfigInterrupt( GPIO_t * gpio, int n, GPIO_IT_Dir_t dir)
{
 8003f4c:	b580      	push	{r7, lr}
 8003f4e:	b088      	sub	sp, #32
 8003f50:	af00      	add	r7, sp, #0
 8003f52:	60f8      	str	r0, [r7, #12]
 8003f54:	60b9      	str	r1, [r7, #8]
 8003f56:	1dfb      	adds	r3, r7, #7
 8003f58:	701a      	strb	r2, [r3, #0]
	uint32_t pin = 1 << n;
 8003f5a:	2201      	movs	r2, #1
 8003f5c:	68bb      	ldr	r3, [r7, #8]
 8003f5e:	409a      	lsls	r2, r3
 8003f60:	0013      	movs	r3, r2
 8003f62:	61fb      	str	r3, [r7, #28]
	if (dir == GPIO_IT_None)
 8003f64:	1dfb      	adds	r3, r7, #7
 8003f66:	781b      	ldrb	r3, [r3, #0]
 8003f68:	2b00      	cmp	r3, #0
 8003f6a:	d107      	bne.n	8003f7c <GPIO_ConfigInterrupt+0x30>
	{
		// Disable the EXTI channel.
		CLEAR_BIT(EXTI->IMR, pin);
 8003f6c:	4b3b      	ldr	r3, [pc, #236]	; (800405c <GPIO_ConfigInterrupt+0x110>)
 8003f6e:	681a      	ldr	r2, [r3, #0]
 8003f70:	69fb      	ldr	r3, [r7, #28]
 8003f72:	43d9      	mvns	r1, r3
 8003f74:	4b39      	ldr	r3, [pc, #228]	; (800405c <GPIO_ConfigInterrupt+0x110>)
 8003f76:	400a      	ands	r2, r1
 8003f78:	601a      	str	r2, [r3, #0]
		// Configure the EXTI channel
		SET_BIT(EXTI->IMR, pin);
		MODIFY_REG(EXTI->RTSR, pin, (dir & GPIO_IT_Rising) ? pin : 0);
		MODIFY_REG(EXTI->FTSR, pin, (dir & GPIO_IT_Falling) ? pin : 0);
	}
}
 8003f7a:	e06a      	b.n	8004052 <GPIO_ConfigInterrupt+0x106>
		__HAL_RCC_SYSCFG_CLK_ENABLE();
 8003f7c:	4b38      	ldr	r3, [pc, #224]	; (8004060 <GPIO_ConfigInterrupt+0x114>)
 8003f7e:	6b5a      	ldr	r2, [r3, #52]	; 0x34
 8003f80:	4b37      	ldr	r3, [pc, #220]	; (8004060 <GPIO_ConfigInterrupt+0x114>)
 8003f82:	2101      	movs	r1, #1
 8003f84:	430a      	orrs	r2, r1
 8003f86:	635a      	str	r2, [r3, #52]	; 0x34
		uint32_t gpio_index = GPIO_GET_INDEX(gpio);
 8003f88:	68fa      	ldr	r2, [r7, #12]
 8003f8a:	23a0      	movs	r3, #160	; 0xa0
 8003f8c:	05db      	lsls	r3, r3, #23
 8003f8e:	429a      	cmp	r2, r3
 8003f90:	d019      	beq.n	8003fc6 <GPIO_ConfigInterrupt+0x7a>
 8003f92:	68fb      	ldr	r3, [r7, #12]
 8003f94:	4a33      	ldr	r2, [pc, #204]	; (8004064 <GPIO_ConfigInterrupt+0x118>)
 8003f96:	4293      	cmp	r3, r2
 8003f98:	d013      	beq.n	8003fc2 <GPIO_ConfigInterrupt+0x76>
 8003f9a:	68fb      	ldr	r3, [r7, #12]
 8003f9c:	4a32      	ldr	r2, [pc, #200]	; (8004068 <GPIO_ConfigInterrupt+0x11c>)
 8003f9e:	4293      	cmp	r3, r2
 8003fa0:	d00d      	beq.n	8003fbe <GPIO_ConfigInterrupt+0x72>
 8003fa2:	68fb      	ldr	r3, [r7, #12]
 8003fa4:	4a31      	ldr	r2, [pc, #196]	; (800406c <GPIO_ConfigInterrupt+0x120>)
 8003fa6:	4293      	cmp	r3, r2
 8003fa8:	d007      	beq.n	8003fba <GPIO_ConfigInterrupt+0x6e>
 8003faa:	68fb      	ldr	r3, [r7, #12]
 8003fac:	4a30      	ldr	r2, [pc, #192]	; (8004070 <GPIO_ConfigInterrupt+0x124>)
 8003fae:	4293      	cmp	r3, r2
 8003fb0:	d101      	bne.n	8003fb6 <GPIO_ConfigInterrupt+0x6a>
 8003fb2:	2305      	movs	r3, #5
 8003fb4:	e008      	b.n	8003fc8 <GPIO_ConfigInterrupt+0x7c>
 8003fb6:	2306      	movs	r3, #6
 8003fb8:	e006      	b.n	8003fc8 <GPIO_ConfigInterrupt+0x7c>
 8003fba:	2303      	movs	r3, #3
 8003fbc:	e004      	b.n	8003fc8 <GPIO_ConfigInterrupt+0x7c>
 8003fbe:	2302      	movs	r3, #2
 8003fc0:	e002      	b.n	8003fc8 <GPIO_ConfigInterrupt+0x7c>
 8003fc2:	2301      	movs	r3, #1
 8003fc4:	e000      	b.n	8003fc8 <GPIO_ConfigInterrupt+0x7c>
 8003fc6:	2300      	movs	r3, #0
 8003fc8:	61bb      	str	r3, [r7, #24]
		uint32_t offset = (n & 0x3) * 4;
 8003fca:	68bb      	ldr	r3, [r7, #8]
 8003fcc:	2203      	movs	r2, #3
 8003fce:	4013      	ands	r3, r2
 8003fd0:	009b      	lsls	r3, r3, #2
 8003fd2:	617b      	str	r3, [r7, #20]
		MODIFY_REG(SYSCFG->EXTICR[n >> 2], 0xF << offset, gpio_index << offset);
 8003fd4:	4a27      	ldr	r2, [pc, #156]	; (8004074 <GPIO_ConfigInterrupt+0x128>)
 8003fd6:	68bb      	ldr	r3, [r7, #8]
 8003fd8:	109b      	asrs	r3, r3, #2
 8003fda:	3302      	adds	r3, #2
 8003fdc:	009b      	lsls	r3, r3, #2
 8003fde:	589b      	ldr	r3, [r3, r2]
 8003fe0:	210f      	movs	r1, #15
 8003fe2:	697a      	ldr	r2, [r7, #20]
 8003fe4:	4091      	lsls	r1, r2
 8003fe6:	000a      	movs	r2, r1
 8003fe8:	43d2      	mvns	r2, r2
 8003fea:	401a      	ands	r2, r3
 8003fec:	0011      	movs	r1, r2
 8003fee:	69ba      	ldr	r2, [r7, #24]
 8003ff0:	697b      	ldr	r3, [r7, #20]
 8003ff2:	409a      	lsls	r2, r3
 8003ff4:	481f      	ldr	r0, [pc, #124]	; (8004074 <GPIO_ConfigInterrupt+0x128>)
 8003ff6:	68bb      	ldr	r3, [r7, #8]
 8003ff8:	109b      	asrs	r3, r3, #2
 8003ffa:	430a      	orrs	r2, r1
 8003ffc:	3302      	adds	r3, #2
 8003ffe:	009b      	lsls	r3, r3, #2
 8004000:	501a      	str	r2, [r3, r0]
		SET_BIT(EXTI->IMR, pin);
 8004002:	4b16      	ldr	r3, [pc, #88]	; (800405c <GPIO_ConfigInterrupt+0x110>)
 8004004:	6819      	ldr	r1, [r3, #0]
 8004006:	4b15      	ldr	r3, [pc, #84]	; (800405c <GPIO_ConfigInterrupt+0x110>)
 8004008:	69fa      	ldr	r2, [r7, #28]
 800400a:	430a      	orrs	r2, r1
 800400c:	601a      	str	r2, [r3, #0]
		MODIFY_REG(EXTI->RTSR, pin, (dir & GPIO_IT_Rising) ? pin : 0);
 800400e:	4b13      	ldr	r3, [pc, #76]	; (800405c <GPIO_ConfigInterrupt+0x110>)
 8004010:	689b      	ldr	r3, [r3, #8]
 8004012:	69fa      	ldr	r2, [r7, #28]
 8004014:	43d2      	mvns	r2, r2
 8004016:	401a      	ands	r2, r3
 8004018:	0011      	movs	r1, r2
 800401a:	1dfb      	adds	r3, r7, #7
 800401c:	781b      	ldrb	r3, [r3, #0]
 800401e:	2201      	movs	r2, #1
 8004020:	4013      	ands	r3, r2
 8004022:	d001      	beq.n	8004028 <GPIO_ConfigInterrupt+0xdc>
 8004024:	69fa      	ldr	r2, [r7, #28]
 8004026:	e000      	b.n	800402a <GPIO_ConfigInterrupt+0xde>
 8004028:	2200      	movs	r2, #0
 800402a:	4b0c      	ldr	r3, [pc, #48]	; (800405c <GPIO_ConfigInterrupt+0x110>)
 800402c:	430a      	orrs	r2, r1
 800402e:	609a      	str	r2, [r3, #8]
		MODIFY_REG(EXTI->FTSR, pin, (dir & GPIO_IT_Falling) ? pin : 0);
 8004030:	4b0a      	ldr	r3, [pc, #40]	; (800405c <GPIO_ConfigInterrupt+0x110>)
 8004032:	68db      	ldr	r3, [r3, #12]
 8004034:	69fa      	ldr	r2, [r7, #28]
 8004036:	43d2      	mvns	r2, r2
 8004038:	401a      	ands	r2, r3
 800403a:	0011      	movs	r1, r2
 800403c:	1dfb      	adds	r3, r7, #7
 800403e:	781b      	ldrb	r3, [r3, #0]
 8004040:	2202      	movs	r2, #2
 8004042:	4013      	ands	r3, r2
 8004044:	d001      	beq.n	800404a <GPIO_ConfigInterrupt+0xfe>
 8004046:	69fa      	ldr	r2, [r7, #28]
 8004048:	e000      	b.n	800404c <GPIO_ConfigInterrupt+0x100>
 800404a:	2200      	movs	r2, #0
 800404c:	4b03      	ldr	r3, [pc, #12]	; (800405c <GPIO_ConfigInterrupt+0x110>)
 800404e:	430a      	orrs	r2, r1
 8004050:	60da      	str	r2, [r3, #12]
}
 8004052:	46c0      	nop			; (mov r8, r8)
 8004054:	46bd      	mov	sp, r7
 8004056:	b008      	add	sp, #32
 8004058:	bd80      	pop	{r7, pc}
 800405a:	46c0      	nop			; (mov r8, r8)
 800405c:	40010400 	.word	0x40010400
 8004060:	40021000 	.word	0x40021000
 8004064:	50000400 	.word	0x50000400
 8004068:	50000800 	.word	0x50000800
 800406c:	50000c00 	.word	0x50000c00
 8004070:	50001c00 	.word	0x50001c00
 8004074:	40010000 	.word	0x40010000

08004078 <GPIO_SWARBitDouble>:
#endif

static uint32_t GPIO_SWARBitDouble(uint32_t s)
{
 8004078:	b580      	push	{r7, lr}
 800407a:	b082      	sub	sp, #8
 800407c:	af00      	add	r7, sp, #0
 800407e:	6078      	str	r0, [r7, #4]
	s = (s & ~0xFF00FF00) | ((s & 0xFF00FF00) << 8);
 8004080:	687b      	ldr	r3, [r7, #4]
 8004082:	4a14      	ldr	r2, [pc, #80]	; (80040d4 <GPIO_SWARBitDouble+0x5c>)
 8004084:	401a      	ands	r2, r3
 8004086:	687b      	ldr	r3, [r7, #4]
 8004088:	0219      	lsls	r1, r3, #8
 800408a:	23ff      	movs	r3, #255	; 0xff
 800408c:	041b      	lsls	r3, r3, #16
 800408e:	400b      	ands	r3, r1
 8004090:	4313      	orrs	r3, r2
 8004092:	607b      	str	r3, [r7, #4]
	s = (s & ~0xF0F0F0F0) | ((s & 0xF0F0F0F0) << 4);
 8004094:	687b      	ldr	r3, [r7, #4]
 8004096:	4a10      	ldr	r2, [pc, #64]	; (80040d8 <GPIO_SWARBitDouble+0x60>)
 8004098:	401a      	ands	r2, r3
 800409a:	687b      	ldr	r3, [r7, #4]
 800409c:	011b      	lsls	r3, r3, #4
 800409e:	490f      	ldr	r1, [pc, #60]	; (80040dc <GPIO_SWARBitDouble+0x64>)
 80040a0:	400b      	ands	r3, r1
 80040a2:	4313      	orrs	r3, r2
 80040a4:	607b      	str	r3, [r7, #4]
	s = (s & ~0xCCCCCCCC) | ((s & 0xCCCCCCCC) << 2);
 80040a6:	687b      	ldr	r3, [r7, #4]
 80040a8:	4a0d      	ldr	r2, [pc, #52]	; (80040e0 <GPIO_SWARBitDouble+0x68>)
 80040aa:	401a      	ands	r2, r3
 80040ac:	687b      	ldr	r3, [r7, #4]
 80040ae:	009b      	lsls	r3, r3, #2
 80040b0:	490c      	ldr	r1, [pc, #48]	; (80040e4 <GPIO_SWARBitDouble+0x6c>)
 80040b2:	400b      	ands	r3, r1
 80040b4:	4313      	orrs	r3, r2
 80040b6:	607b      	str	r3, [r7, #4]
	s = (s & ~0xAAAAAAAA) | ((s & 0xAAAAAAAA) << 1);
 80040b8:	687b      	ldr	r3, [r7, #4]
 80040ba:	4a0b      	ldr	r2, [pc, #44]	; (80040e8 <GPIO_SWARBitDouble+0x70>)
 80040bc:	401a      	ands	r2, r3
 80040be:	687b      	ldr	r3, [r7, #4]
 80040c0:	005b      	lsls	r3, r3, #1
 80040c2:	490a      	ldr	r1, [pc, #40]	; (80040ec <GPIO_SWARBitDouble+0x74>)
 80040c4:	400b      	ands	r3, r1
 80040c6:	4313      	orrs	r3, r2
 80040c8:	607b      	str	r3, [r7, #4]
	return s;
 80040ca:	687b      	ldr	r3, [r7, #4]
}
 80040cc:	0018      	movs	r0, r3
 80040ce:	46bd      	mov	sp, r7
 80040d0:	b002      	add	sp, #8
 80040d2:	bd80      	pop	{r7, pc}
 80040d4:	00ff00ff 	.word	0x00ff00ff
 80040d8:	0f0f0f0f 	.word	0x0f0f0f0f
 80040dc:	0f0f0f00 	.word	0x0f0f0f00
 80040e0:	33333333 	.word	0x33333333
 80040e4:	33333330 	.word	0x33333330
 80040e8:	55555555 	.word	0x55555555
 80040ec:	55555554 	.word	0x55555554

080040f0 <EXTIx_IRQHandler>:


#ifdef GPIO_USE_IRQS
static inline void EXTIx_IRQHandler(int n)
{
 80040f0:	b580      	push	{r7, lr}
 80040f2:	b082      	sub	sp, #8
 80040f4:	af00      	add	r7, sp, #0
 80040f6:	6078      	str	r0, [r7, #4]
	if (__HAL_GPIO_EXTI_GET_IT(1 << n) != RESET)
 80040f8:	4b0a      	ldr	r3, [pc, #40]	; (8004124 <EXTIx_IRQHandler+0x34>)
 80040fa:	695b      	ldr	r3, [r3, #20]
 80040fc:	2101      	movs	r1, #1
 80040fe:	687a      	ldr	r2, [r7, #4]
 8004100:	4091      	lsls	r1, r2
 8004102:	000a      	movs	r2, r1
 8004104:	4013      	ands	r3, r2
 8004106:	d009      	beq.n	800411c <EXTIx_IRQHandler+0x2c>
	{
		__HAL_GPIO_EXTI_CLEAR_IT(1 << n);
 8004108:	2201      	movs	r2, #1
 800410a:	687b      	ldr	r3, [r7, #4]
 800410c:	409a      	lsls	r2, r3
 800410e:	4b05      	ldr	r3, [pc, #20]	; (8004124 <EXTIx_IRQHandler+0x34>)
 8004110:	615a      	str	r2, [r3, #20]
		gCallback[n]();
 8004112:	4b05      	ldr	r3, [pc, #20]	; (8004128 <EXTIx_IRQHandler+0x38>)
 8004114:	687a      	ldr	r2, [r7, #4]
 8004116:	0092      	lsls	r2, r2, #2
 8004118:	58d3      	ldr	r3, [r2, r3]
 800411a:	4798      	blx	r3
	}
}
 800411c:	46c0      	nop			; (mov r8, r8)
 800411e:	46bd      	mov	sp, r7
 8004120:	b002      	add	sp, #8
 8004122:	bd80      	pop	{r7, pc}
 8004124:	40010400 	.word	0x40010400
 8004128:	200004ac 	.word	0x200004ac

0800412c <EXTIx_EnableIRQn>:

static void EXTIx_EnableIRQn(int n)
{
 800412c:	b580      	push	{r7, lr}
 800412e:	b082      	sub	sp, #8
 8004130:	af00      	add	r7, sp, #0
 8004132:	6078      	str	r0, [r7, #4]
	if (n <= 1)
 8004134:	687b      	ldr	r3, [r7, #4]
 8004136:	2b01      	cmp	r3, #1
 8004138:	dc03      	bgt.n	8004142 <EXTIx_EnableIRQn+0x16>
	{
		HAL_NVIC_EnableIRQ(EXTI0_1_IRQn);
 800413a:	2005      	movs	r0, #5
 800413c:	f7fd ff05 	bl	8001f4a <HAL_NVIC_EnableIRQ>
	}
	else
	{
		HAL_NVIC_EnableIRQ(EXTI4_15_IRQn);
	}
}
 8004140:	e009      	b.n	8004156 <EXTIx_EnableIRQn+0x2a>
	else if (n <= 3)
 8004142:	687b      	ldr	r3, [r7, #4]
 8004144:	2b03      	cmp	r3, #3
 8004146:	dc03      	bgt.n	8004150 <EXTIx_EnableIRQn+0x24>
		HAL_NVIC_EnableIRQ(EXTI2_3_IRQn);
 8004148:	2006      	movs	r0, #6
 800414a:	f7fd fefe 	bl	8001f4a <HAL_NVIC_EnableIRQ>
}
 800414e:	e002      	b.n	8004156 <EXTIx_EnableIRQn+0x2a>
		HAL_NVIC_EnableIRQ(EXTI4_15_IRQn);
 8004150:	2007      	movs	r0, #7
 8004152:	f7fd fefa 	bl	8001f4a <HAL_NVIC_EnableIRQ>
}
 8004156:	46c0      	nop			; (mov r8, r8)
 8004158:	46bd      	mov	sp, r7
 800415a:	b002      	add	sp, #8
 800415c:	bd80      	pop	{r7, pc}

0800415e <EXTI2_3_IRQHandler>:
}
#endif

#if defined(GPIO_IRQ2_ENABLE) || defined(GPIO_IRQ3_ENABLE)
void EXTI2_3_IRQHandler(void)
{
 800415e:	b580      	push	{r7, lr}
 8004160:	af00      	add	r7, sp, #0
#ifdef GPIO_IRQ2_ENABLE
	EXTIx_IRQHandler(2);
 8004162:	2002      	movs	r0, #2
 8004164:	f7ff ffc4 	bl	80040f0 <EXTIx_IRQHandler>
#endif
#ifdef GPIO_IRQ3_ENABLE
	EXTIx_IRQHandler(3);
#endif
}
 8004168:	46c0      	nop			; (mov r8, r8)
 800416a:	46bd      	mov	sp, r7
 800416c:	bd80      	pop	{r7, pc}

0800416e <EXTI4_15_IRQHandler>:
#if    defined(GPIO_IRQ4_ENABLE) || defined(GPIO_IRQ5_ENABLE) || defined(GPIO_IRQ6_ENABLE)   \
    || defined(GPIO_IRQ7_ENABLE) || defined(GPIO_IRQ8_ENABLE) || defined(GPIO_IRQ9_ENABLE)   \
	|| defined(GPIO_IRQ10_ENABLE) || defined(GPIO_IRQ11_ENABLE) || defined(GPIO_IRQ12_ENABLE)\
	|| defined(GPIO_IRQ13_ENABLE) || defined(GPIO_IRQ14_ENABLE) || defined(GPIO_IRQ15_ENABLE)
void EXTI4_15_IRQHandler(void)
{
 800416e:	b580      	push	{r7, lr}
 8004170:	af00      	add	r7, sp, #0
#ifdef GPIO_IRQ4_ENABLE
	EXTIx_IRQHandler(4);
#endif
#ifdef GPIO_IRQ5_ENABLE
	EXTIx_IRQHandler(5);
 8004172:	2005      	movs	r0, #5
 8004174:	f7ff ffbc 	bl	80040f0 <EXTIx_IRQHandler>
#endif
#ifdef GPIO_IRQ6_ENABLE
	EXTIx_IRQHandler(6);
 8004178:	2006      	movs	r0, #6
 800417a:	f7ff ffb9 	bl	80040f0 <EXTIx_IRQHandler>
#endif
#ifdef GPIO_IRQ9_ENABLE
	EXTIx_IRQHandler(9);
#endif
#ifdef GPIO_IRQ10_ENABLE
	EXTIx_IRQHandler(10);
 800417e:	200a      	movs	r0, #10
 8004180:	f7ff ffb6 	bl	80040f0 <EXTIx_IRQHandler>
#endif
#ifdef GPIO_IRQ11_ENABLE
	EXTIx_IRQHandler(11);
 8004184:	200b      	movs	r0, #11
 8004186:	f7ff ffb3 	bl	80040f0 <EXTIx_IRQHandler>
	EXTIx_IRQHandler(14);
#endif
#ifdef GPIO_IRQ15_ENABLE
	EXTIx_IRQHandler(15);
#endif
}
 800418a:	46c0      	nop			; (mov r8, r8)
 800418c:	46bd      	mov	sp, r7
 800418e:	bd80      	pop	{r7, pc}

08004190 <CLK_GetPCLKFreq>:

static inline uint32_t CLK_GetPCLKFreq(void)
{
 8004190:	b580      	push	{r7, lr}
 8004192:	af00      	add	r7, sp, #0
	return CLK_SYSCLK_FREQ;
 8004194:	4b01      	ldr	r3, [pc, #4]	; (800419c <CLK_GetPCLKFreq+0xc>)
}
 8004196:	0018      	movs	r0, r3
 8004198:	46bd      	mov	sp, r7
 800419a:	bd80      	pop	{r7, pc}
 800419c:	01e84800 	.word	0x01e84800

080041a0 <TIM_Init>:
/*
 * PUBLIC FUNCTIONS
 */

void TIM_Init(TIM_t * tim, uint32_t freq, uint32_t reload)
{
 80041a0:	b580      	push	{r7, lr}
 80041a2:	b086      	sub	sp, #24
 80041a4:	af00      	add	r7, sp, #0
 80041a6:	60f8      	str	r0, [r7, #12]
 80041a8:	60b9      	str	r1, [r7, #8]
 80041aa:	607a      	str	r2, [r7, #4]
	TIMx_Init(tim);
 80041ac:	68fb      	ldr	r3, [r7, #12]
 80041ae:	0018      	movs	r0, r3
 80041b0:	f000 f9c6 	bl	8004540 <TIMx_Init>

	uint32_t cr1 = tim->Instance->CR1;
 80041b4:	68fb      	ldr	r3, [r7, #12]
 80041b6:	681b      	ldr	r3, [r3, #0]
 80041b8:	681b      	ldr	r3, [r3, #0]
 80041ba:	617b      	str	r3, [r7, #20]
	cr1 &= ~(TIM_CR1_DIR | TIM_CR1_CMS | TIM_CR1_CKD | TIM_CR1_ARPE);
 80041bc:	697b      	ldr	r3, [r7, #20]
 80041be:	4a0d      	ldr	r2, [pc, #52]	; (80041f4 <TIM_Init+0x54>)
 80041c0:	4013      	ands	r3, r2
 80041c2:	617b      	str	r3, [r7, #20]
	cr1 |= TIM_AUTORELOAD_PRELOAD_ENABLE | TIM_CLOCKDIVISION_DIV1 | TIM_COUNTERMODE_UP;
 80041c4:	697b      	ldr	r3, [r7, #20]
 80041c6:	2280      	movs	r2, #128	; 0x80
 80041c8:	4313      	orrs	r3, r2
 80041ca:	617b      	str	r3, [r7, #20]
	tim->Instance->CR1 = cr1;
 80041cc:	68fb      	ldr	r3, [r7, #12]
 80041ce:	681b      	ldr	r3, [r3, #0]
 80041d0:	697a      	ldr	r2, [r7, #20]
 80041d2:	601a      	str	r2, [r3, #0]

	TIM_SetFreq(tim, freq);
 80041d4:	68ba      	ldr	r2, [r7, #8]
 80041d6:	68fb      	ldr	r3, [r7, #12]
 80041d8:	0011      	movs	r1, r2
 80041da:	0018      	movs	r0, r3
 80041dc:	f000 f80c 	bl	80041f8 <TIM_SetFreq>
	TIM_SetReload(tim, reload);
 80041e0:	687a      	ldr	r2, [r7, #4]
 80041e2:	68fb      	ldr	r3, [r7, #12]
 80041e4:	0011      	movs	r1, r2
 80041e6:	0018      	movs	r0, r3
 80041e8:	f000 f81d 	bl	8004226 <TIM_SetReload>
}
 80041ec:	46c0      	nop			; (mov r8, r8)
 80041ee:	46bd      	mov	sp, r7
 80041f0:	b006      	add	sp, #24
 80041f2:	bd80      	pop	{r7, pc}
 80041f4:	fffffc0f 	.word	0xfffffc0f

080041f8 <TIM_SetFreq>:

void TIM_SetFreq(TIM_t * tim, uint32_t freq)
{
 80041f8:	b580      	push	{r7, lr}
 80041fa:	b084      	sub	sp, #16
 80041fc:	af00      	add	r7, sp, #0
 80041fe:	6078      	str	r0, [r7, #4]
 8004200:	6039      	str	r1, [r7, #0]
	uint32_t clk = CLK_GetPCLKFreq();
 8004202:	f7ff ffc5 	bl	8004190 <CLK_GetPCLKFreq>
 8004206:	0003      	movs	r3, r0
 8004208:	60fb      	str	r3, [r7, #12]
	tim->Instance->PSC = (clk / freq) - 1;
 800420a:	6839      	ldr	r1, [r7, #0]
 800420c:	68f8      	ldr	r0, [r7, #12]
 800420e:	f7fb ff7b 	bl	8000108 <__udivsi3>
 8004212:	0003      	movs	r3, r0
 8004214:	001a      	movs	r2, r3
 8004216:	687b      	ldr	r3, [r7, #4]
 8004218:	681b      	ldr	r3, [r3, #0]
 800421a:	3a01      	subs	r2, #1
 800421c:	629a      	str	r2, [r3, #40]	; 0x28
}
 800421e:	46c0      	nop			; (mov r8, r8)
 8004220:	46bd      	mov	sp, r7
 8004222:	b004      	add	sp, #16
 8004224:	bd80      	pop	{r7, pc}

08004226 <TIM_SetReload>:

void TIM_SetReload(TIM_t * tim, uint32_t reload)
{
 8004226:	b580      	push	{r7, lr}
 8004228:	b082      	sub	sp, #8
 800422a:	af00      	add	r7, sp, #0
 800422c:	6078      	str	r0, [r7, #4]
 800422e:	6039      	str	r1, [r7, #0]
	tim->Instance->ARR = reload;
 8004230:	687b      	ldr	r3, [r7, #4]
 8004232:	681b      	ldr	r3, [r3, #0]
 8004234:	683a      	ldr	r2, [r7, #0]
 8004236:	62da      	str	r2, [r3, #44]	; 0x2c
}
 8004238:	46c0      	nop			; (mov r8, r8)
 800423a:	46bd      	mov	sp, r7
 800423c:	b002      	add	sp, #8
 800423e:	bd80      	pop	{r7, pc}

08004240 <TIM_OnReload>:

#ifdef TIM_USE_IRQS
void TIM_OnReload(TIM_t * tim, VoidFunction_t callback)
{
 8004240:	b580      	push	{r7, lr}
 8004242:	b082      	sub	sp, #8
 8004244:	af00      	add	r7, sp, #0
 8004246:	6078      	str	r0, [r7, #4]
 8004248:	6039      	str	r1, [r7, #0]
	__HAL_TIM_ENABLE_IT(tim, TIM_IT_UPDATE);
 800424a:	687b      	ldr	r3, [r7, #4]
 800424c:	681b      	ldr	r3, [r3, #0]
 800424e:	68da      	ldr	r2, [r3, #12]
 8004250:	687b      	ldr	r3, [r7, #4]
 8004252:	681b      	ldr	r3, [r3, #0]
 8004254:	2101      	movs	r1, #1
 8004256:	430a      	orrs	r2, r1
 8004258:	60da      	str	r2, [r3, #12]
	tim->ReloadCallback = callback;
 800425a:	687b      	ldr	r3, [r7, #4]
 800425c:	683a      	ldr	r2, [r7, #0]
 800425e:	605a      	str	r2, [r3, #4]
}
 8004260:	46c0      	nop			; (mov r8, r8)
 8004262:	46bd      	mov	sp, r7
 8004264:	b002      	add	sp, #8
 8004266:	bd80      	pop	{r7, pc}

08004268 <TIM_OnPulse>:

void TIM_OnPulse(TIM_t * tim, TIM_Channel_t ch, VoidFunction_t callback)
{
 8004268:	b590      	push	{r4, r7, lr}
 800426a:	b085      	sub	sp, #20
 800426c:	af00      	add	r7, sp, #0
 800426e:	60f8      	str	r0, [r7, #12]
 8004270:	607a      	str	r2, [r7, #4]
 8004272:	240b      	movs	r4, #11
 8004274:	193b      	adds	r3, r7, r4
 8004276:	1c0a      	adds	r2, r1, #0
 8004278:	701a      	strb	r2, [r3, #0]
	// WARN: This will fail horribly if ch is greater than 4.
	TIM_EnableOCx(tim, ch, TIM_OCMODE_ACTIVE);
 800427a:	193b      	adds	r3, r7, r4
 800427c:	7819      	ldrb	r1, [r3, #0]
 800427e:	68fb      	ldr	r3, [r7, #12]
 8004280:	2210      	movs	r2, #16
 8004282:	0018      	movs	r0, r3
 8004284:	f000 f8b0 	bl	80043e8 <TIM_EnableOCx>
	// Note that the channels IT's are 1 << 1 through 1 << 4
	__HAL_TIM_ENABLE_IT(tim, TIM_IT_CC1 << ch);
 8004288:	68fb      	ldr	r3, [r7, #12]
 800428a:	681b      	ldr	r3, [r3, #0]
 800428c:	68d9      	ldr	r1, [r3, #12]
 800428e:	0020      	movs	r0, r4
 8004290:	183b      	adds	r3, r7, r0
 8004292:	781b      	ldrb	r3, [r3, #0]
 8004294:	2202      	movs	r2, #2
 8004296:	409a      	lsls	r2, r3
 8004298:	68fb      	ldr	r3, [r7, #12]
 800429a:	681b      	ldr	r3, [r3, #0]
 800429c:	430a      	orrs	r2, r1
 800429e:	60da      	str	r2, [r3, #12]
	tim->PulseCallback[ch] = callback;
 80042a0:	183b      	adds	r3, r7, r0
 80042a2:	781a      	ldrb	r2, [r3, #0]
 80042a4:	68fb      	ldr	r3, [r7, #12]
 80042a6:	3202      	adds	r2, #2
 80042a8:	0092      	lsls	r2, r2, #2
 80042aa:	6879      	ldr	r1, [r7, #4]
 80042ac:	50d1      	str	r1, [r2, r3]
}
 80042ae:	46c0      	nop			; (mov r8, r8)
 80042b0:	46bd      	mov	sp, r7
 80042b2:	b005      	add	sp, #20
 80042b4:	bd90      	pop	{r4, r7, pc}

080042b6 <TIM_EnablePwm>:
#endif //TIM_USE_IRQS

void TIM_EnablePwm(TIM_t * tim, TIM_Channel_t ch, GPIO_t * gpio, uint32_t pin, uint32_t af)
{
 80042b6:	b580      	push	{r7, lr}
 80042b8:	b084      	sub	sp, #16
 80042ba:	af00      	add	r7, sp, #0
 80042bc:	60f8      	str	r0, [r7, #12]
 80042be:	607a      	str	r2, [r7, #4]
 80042c0:	603b      	str	r3, [r7, #0]
 80042c2:	200b      	movs	r0, #11
 80042c4:	183b      	adds	r3, r7, r0
 80042c6:	1c0a      	adds	r2, r1, #0
 80042c8:	701a      	strb	r2, [r3, #0]
	// TIM_CCMR1_OC1PE is the output compare preload
	TIM_EnableOCx(tim, ch, TIM_OCMODE_PWM1 | TIM_CCMR1_OC1PE | TIM_OCFAST_ENABLE);
 80042ca:	183b      	adds	r3, r7, r0
 80042cc:	7819      	ldrb	r1, [r3, #0]
 80042ce:	68fb      	ldr	r3, [r7, #12]
 80042d0:	226c      	movs	r2, #108	; 0x6c
 80042d2:	0018      	movs	r0, r3
 80042d4:	f000 f888 	bl	80043e8 <TIM_EnableOCx>
	GPIO_EnableAlternate(gpio, pin, 0, af);
 80042d8:	69bb      	ldr	r3, [r7, #24]
 80042da:	6839      	ldr	r1, [r7, #0]
 80042dc:	6878      	ldr	r0, [r7, #4]
 80042de:	2200      	movs	r2, #0
 80042e0:	f7ff fd42 	bl	8003d68 <GPIO_EnableAlternate>
}
 80042e4:	46c0      	nop			; (mov r8, r8)
 80042e6:	46bd      	mov	sp, r7
 80042e8:	b004      	add	sp, #16
 80042ea:	bd80      	pop	{r7, pc}

080042ec <TIM_SetPulse>:


void TIM_SetPulse(TIM_t * tim, TIM_Channel_t ch, uint32_t pulse)
{
 80042ec:	b580      	push	{r7, lr}
 80042ee:	b084      	sub	sp, #16
 80042f0:	af00      	add	r7, sp, #0
 80042f2:	60f8      	str	r0, [r7, #12]
 80042f4:	607a      	str	r2, [r7, #4]
 80042f6:	200b      	movs	r0, #11
 80042f8:	183b      	adds	r3, r7, r0
 80042fa:	1c0a      	adds	r2, r1, #0
 80042fc:	701a      	strb	r2, [r3, #0]
	switch (ch)
 80042fe:	183b      	adds	r3, r7, r0
 8004300:	781b      	ldrb	r3, [r3, #0]
 8004302:	2b03      	cmp	r3, #3
 8004304:	d017      	beq.n	8004336 <TIM_SetPulse+0x4a>
 8004306:	dc1b      	bgt.n	8004340 <TIM_SetPulse+0x54>
 8004308:	2b02      	cmp	r3, #2
 800430a:	d00f      	beq.n	800432c <TIM_SetPulse+0x40>
 800430c:	dc18      	bgt.n	8004340 <TIM_SetPulse+0x54>
 800430e:	2b00      	cmp	r3, #0
 8004310:	d002      	beq.n	8004318 <TIM_SetPulse+0x2c>
 8004312:	2b01      	cmp	r3, #1
 8004314:	d005      	beq.n	8004322 <TIM_SetPulse+0x36>
	case TIM_CH4:
		tim->Instance->CCR4 = pulse;
		break;
	}

}
 8004316:	e013      	b.n	8004340 <TIM_SetPulse+0x54>
		tim->Instance->CCR1 = pulse;
 8004318:	68fb      	ldr	r3, [r7, #12]
 800431a:	681b      	ldr	r3, [r3, #0]
 800431c:	687a      	ldr	r2, [r7, #4]
 800431e:	635a      	str	r2, [r3, #52]	; 0x34
		break;
 8004320:	e00e      	b.n	8004340 <TIM_SetPulse+0x54>
		tim->Instance->CCR2 = pulse;
 8004322:	68fb      	ldr	r3, [r7, #12]
 8004324:	681b      	ldr	r3, [r3, #0]
 8004326:	687a      	ldr	r2, [r7, #4]
 8004328:	639a      	str	r2, [r3, #56]	; 0x38
		break;
 800432a:	e009      	b.n	8004340 <TIM_SetPulse+0x54>
		tim->Instance->CCR3 = pulse;
 800432c:	68fb      	ldr	r3, [r7, #12]
 800432e:	681b      	ldr	r3, [r3, #0]
 8004330:	687a      	ldr	r2, [r7, #4]
 8004332:	63da      	str	r2, [r3, #60]	; 0x3c
		break;
 8004334:	e004      	b.n	8004340 <TIM_SetPulse+0x54>
		tim->Instance->CCR4 = pulse;
 8004336:	68fb      	ldr	r3, [r7, #12]
 8004338:	681b      	ldr	r3, [r3, #0]
 800433a:	687a      	ldr	r2, [r7, #4]
 800433c:	641a      	str	r2, [r3, #64]	; 0x40
		break;
 800433e:	46c0      	nop			; (mov r8, r8)
}
 8004340:	46c0      	nop			; (mov r8, r8)
 8004342:	46bd      	mov	sp, r7
 8004344:	b004      	add	sp, #16
 8004346:	bd80      	pop	{r7, pc}

08004348 <TIM_Start>:

void TIM_Start(TIM_t * tim)
{
 8004348:	b580      	push	{r7, lr}
 800434a:	b082      	sub	sp, #8
 800434c:	af00      	add	r7, sp, #0
 800434e:	6078      	str	r0, [r7, #4]
	TIM_Reload(tim);
 8004350:	687b      	ldr	r3, [r7, #4]
 8004352:	0018      	movs	r0, r3
 8004354:	f000 f8d6 	bl	8004504 <TIM_Reload>
	__HAL_TIM_ENABLE(tim);
 8004358:	687b      	ldr	r3, [r7, #4]
 800435a:	681b      	ldr	r3, [r3, #0]
 800435c:	681a      	ldr	r2, [r3, #0]
 800435e:	687b      	ldr	r3, [r7, #4]
 8004360:	681b      	ldr	r3, [r3, #0]
 8004362:	2101      	movs	r1, #1
 8004364:	430a      	orrs	r2, r1
 8004366:	601a      	str	r2, [r3, #0]
}
 8004368:	46c0      	nop			; (mov r8, r8)
 800436a:	46bd      	mov	sp, r7
 800436c:	b002      	add	sp, #8
 800436e:	bd80      	pop	{r7, pc}

08004370 <TIM_Stop>:

void TIM_Stop(TIM_t * tim)
{
 8004370:	b580      	push	{r7, lr}
 8004372:	b082      	sub	sp, #8
 8004374:	af00      	add	r7, sp, #0
 8004376:	6078      	str	r0, [r7, #4]
	__HAL_TIM_DISABLE(tim);
 8004378:	687b      	ldr	r3, [r7, #4]
 800437a:	681b      	ldr	r3, [r3, #0]
 800437c:	6a1b      	ldr	r3, [r3, #32]
 800437e:	4a07      	ldr	r2, [pc, #28]	; (800439c <TIM_Stop+0x2c>)
 8004380:	4013      	ands	r3, r2
 8004382:	d107      	bne.n	8004394 <TIM_Stop+0x24>
 8004384:	687b      	ldr	r3, [r7, #4]
 8004386:	681b      	ldr	r3, [r3, #0]
 8004388:	681a      	ldr	r2, [r3, #0]
 800438a:	687b      	ldr	r3, [r7, #4]
 800438c:	681b      	ldr	r3, [r3, #0]
 800438e:	2101      	movs	r1, #1
 8004390:	438a      	bics	r2, r1
 8004392:	601a      	str	r2, [r3, #0]
}
 8004394:	46c0      	nop			; (mov r8, r8)
 8004396:	46bd      	mov	sp, r7
 8004398:	b002      	add	sp, #8
 800439a:	bd80      	pop	{r7, pc}
 800439c:	00001111 	.word	0x00001111

080043a0 <TIM_Deinit>:

void TIM_Deinit(TIM_t * tim)
{
 80043a0:	b580      	push	{r7, lr}
 80043a2:	b082      	sub	sp, #8
 80043a4:	af00      	add	r7, sp, #0
 80043a6:	6078      	str	r0, [r7, #4]
	__HAL_TIM_DISABLE(tim);
 80043a8:	687b      	ldr	r3, [r7, #4]
 80043aa:	681b      	ldr	r3, [r3, #0]
 80043ac:	6a1b      	ldr	r3, [r3, #32]
 80043ae:	4a0d      	ldr	r2, [pc, #52]	; (80043e4 <TIM_Deinit+0x44>)
 80043b0:	4013      	ands	r3, r2
 80043b2:	d107      	bne.n	80043c4 <TIM_Deinit+0x24>
 80043b4:	687b      	ldr	r3, [r7, #4]
 80043b6:	681b      	ldr	r3, [r3, #0]
 80043b8:	681a      	ldr	r2, [r3, #0]
 80043ba:	687b      	ldr	r3, [r7, #4]
 80043bc:	681b      	ldr	r3, [r3, #0]
 80043be:	2101      	movs	r1, #1
 80043c0:	438a      	bics	r2, r1
 80043c2:	601a      	str	r2, [r3, #0]
	__HAL_TIM_DISABLE_IT(tim, TIM_IT_UPDATE | TIM_IT_CC1 | TIM_IT_CC2 | TIM_IT_CC3 | TIM_IT_CC4);
 80043c4:	687b      	ldr	r3, [r7, #4]
 80043c6:	681b      	ldr	r3, [r3, #0]
 80043c8:	68da      	ldr	r2, [r3, #12]
 80043ca:	687b      	ldr	r3, [r7, #4]
 80043cc:	681b      	ldr	r3, [r3, #0]
 80043ce:	211f      	movs	r1, #31
 80043d0:	438a      	bics	r2, r1
 80043d2:	60da      	str	r2, [r3, #12]
	TIMx_Deinit(tim);
 80043d4:	687b      	ldr	r3, [r7, #4]
 80043d6:	0018      	movs	r0, r3
 80043d8:	f000 f8fc 	bl	80045d4 <TIMx_Deinit>
}
 80043dc:	46c0      	nop			; (mov r8, r8)
 80043de:	46bd      	mov	sp, r7
 80043e0:	b002      	add	sp, #8
 80043e2:	bd80      	pop	{r7, pc}
 80043e4:	00001111 	.word	0x00001111

080043e8 <TIM_EnableOCx>:
/*
 * PRIVATE FUNCTIONS
 */

static void TIM_EnableOCx(TIM_t * tim, uint32_t oc, uint32_t mode)
{
 80043e8:	b580      	push	{r7, lr}
 80043ea:	b084      	sub	sp, #16
 80043ec:	af00      	add	r7, sp, #0
 80043ee:	60f8      	str	r0, [r7, #12]
 80043f0:	60b9      	str	r1, [r7, #8]
 80043f2:	607a      	str	r2, [r7, #4]
	// Disable the channel during the update.
	TIM_DISABLE_CCx(tim, oc);
 80043f4:	68fb      	ldr	r3, [r7, #12]
 80043f6:	681b      	ldr	r3, [r3, #0]
 80043f8:	6a1a      	ldr	r2, [r3, #32]
 80043fa:	68bb      	ldr	r3, [r7, #8]
 80043fc:	009b      	lsls	r3, r3, #2
 80043fe:	2101      	movs	r1, #1
 8004400:	4099      	lsls	r1, r3
 8004402:	000b      	movs	r3, r1
 8004404:	43d9      	mvns	r1, r3
 8004406:	68fb      	ldr	r3, [r7, #12]
 8004408:	681b      	ldr	r3, [r3, #0]
 800440a:	400a      	ands	r2, r1
 800440c:	621a      	str	r2, [r3, #32]
	switch (oc)
 800440e:	68bb      	ldr	r3, [r7, #8]
 8004410:	2b03      	cmp	r3, #3
 8004412:	d04c      	beq.n	80044ae <TIM_EnableOCx+0xc6>
 8004414:	68bb      	ldr	r3, [r7, #8]
 8004416:	2b03      	cmp	r3, #3
 8004418:	d85e      	bhi.n	80044d8 <TIM_EnableOCx+0xf0>
 800441a:	68bb      	ldr	r3, [r7, #8]
 800441c:	2b02      	cmp	r3, #2
 800441e:	d032      	beq.n	8004486 <TIM_EnableOCx+0x9e>
 8004420:	68bb      	ldr	r3, [r7, #8]
 8004422:	2b02      	cmp	r3, #2
 8004424:	d858      	bhi.n	80044d8 <TIM_EnableOCx+0xf0>
 8004426:	68bb      	ldr	r3, [r7, #8]
 8004428:	2b00      	cmp	r3, #0
 800442a:	d003      	beq.n	8004434 <TIM_EnableOCx+0x4c>
 800442c:	68bb      	ldr	r3, [r7, #8]
 800442e:	2b01      	cmp	r3, #1
 8004430:	d014      	beq.n	800445c <TIM_EnableOCx+0x74>
 8004432:	e051      	b.n	80044d8 <TIM_EnableOCx+0xf0>
	{
	case 0:
		MODIFY_REG(tim->Instance->CCMR1, TIM_CCMRx_MSK, mode);
 8004434:	68fb      	ldr	r3, [r7, #12]
 8004436:	681b      	ldr	r3, [r3, #0]
 8004438:	699b      	ldr	r3, [r3, #24]
 800443a:	227f      	movs	r2, #127	; 0x7f
 800443c:	4393      	bics	r3, r2
 800443e:	0019      	movs	r1, r3
 8004440:	68fb      	ldr	r3, [r7, #12]
 8004442:	681b      	ldr	r3, [r3, #0]
 8004444:	687a      	ldr	r2, [r7, #4]
 8004446:	430a      	orrs	r2, r1
 8004448:	619a      	str	r2, [r3, #24]
		MODIFY_REG(tim->Instance->CCER, TIM_CCER_CC1P, TIM_OCPOLARITY_HIGH);
 800444a:	68fb      	ldr	r3, [r7, #12]
 800444c:	681b      	ldr	r3, [r3, #0]
 800444e:	6a1a      	ldr	r2, [r3, #32]
 8004450:	68fb      	ldr	r3, [r7, #12]
 8004452:	681b      	ldr	r3, [r3, #0]
 8004454:	2102      	movs	r1, #2
 8004456:	438a      	bics	r2, r1
 8004458:	621a      	str	r2, [r3, #32]
		break;
 800445a:	e03d      	b.n	80044d8 <TIM_EnableOCx+0xf0>
	case 1:
		MODIFY_REG(tim->Instance->CCMR1, TIM_CCMRx_MSK << 8, mode << 8);
 800445c:	68fb      	ldr	r3, [r7, #12]
 800445e:	681b      	ldr	r3, [r3, #0]
 8004460:	699b      	ldr	r3, [r3, #24]
 8004462:	4a25      	ldr	r2, [pc, #148]	; (80044f8 <TIM_EnableOCx+0x110>)
 8004464:	4013      	ands	r3, r2
 8004466:	0019      	movs	r1, r3
 8004468:	687b      	ldr	r3, [r7, #4]
 800446a:	021a      	lsls	r2, r3, #8
 800446c:	68fb      	ldr	r3, [r7, #12]
 800446e:	681b      	ldr	r3, [r3, #0]
 8004470:	430a      	orrs	r2, r1
 8004472:	619a      	str	r2, [r3, #24]
		MODIFY_REG(tim->Instance->CCER, TIM_CCER_CC2P, TIM_OCPOLARITY_HIGH << 4);
 8004474:	68fb      	ldr	r3, [r7, #12]
 8004476:	681b      	ldr	r3, [r3, #0]
 8004478:	6a1a      	ldr	r2, [r3, #32]
 800447a:	68fb      	ldr	r3, [r7, #12]
 800447c:	681b      	ldr	r3, [r3, #0]
 800447e:	2120      	movs	r1, #32
 8004480:	438a      	bics	r2, r1
 8004482:	621a      	str	r2, [r3, #32]
		break;
 8004484:	e028      	b.n	80044d8 <TIM_EnableOCx+0xf0>
	case 2:
		MODIFY_REG(tim->Instance->CCMR2, TIM_CCMRx_MSK, mode);
 8004486:	68fb      	ldr	r3, [r7, #12]
 8004488:	681b      	ldr	r3, [r3, #0]
 800448a:	69db      	ldr	r3, [r3, #28]
 800448c:	227f      	movs	r2, #127	; 0x7f
 800448e:	4393      	bics	r3, r2
 8004490:	0019      	movs	r1, r3
 8004492:	68fb      	ldr	r3, [r7, #12]
 8004494:	681b      	ldr	r3, [r3, #0]
 8004496:	687a      	ldr	r2, [r7, #4]
 8004498:	430a      	orrs	r2, r1
 800449a:	61da      	str	r2, [r3, #28]
		MODIFY_REG(tim->Instance->CCER, TIM_CCER_CC3P, TIM_OCPOLARITY_HIGH << 8);
 800449c:	68fb      	ldr	r3, [r7, #12]
 800449e:	681b      	ldr	r3, [r3, #0]
 80044a0:	6a1a      	ldr	r2, [r3, #32]
 80044a2:	68fb      	ldr	r3, [r7, #12]
 80044a4:	681b      	ldr	r3, [r3, #0]
 80044a6:	4915      	ldr	r1, [pc, #84]	; (80044fc <TIM_EnableOCx+0x114>)
 80044a8:	400a      	ands	r2, r1
 80044aa:	621a      	str	r2, [r3, #32]
		break;
 80044ac:	e014      	b.n	80044d8 <TIM_EnableOCx+0xf0>
	case 3:
		MODIFY_REG(tim->Instance->CCMR2, TIM_CCMRx_MSK << 8, mode << 8);
 80044ae:	68fb      	ldr	r3, [r7, #12]
 80044b0:	681b      	ldr	r3, [r3, #0]
 80044b2:	69db      	ldr	r3, [r3, #28]
 80044b4:	4a10      	ldr	r2, [pc, #64]	; (80044f8 <TIM_EnableOCx+0x110>)
 80044b6:	4013      	ands	r3, r2
 80044b8:	0019      	movs	r1, r3
 80044ba:	687b      	ldr	r3, [r7, #4]
 80044bc:	021a      	lsls	r2, r3, #8
 80044be:	68fb      	ldr	r3, [r7, #12]
 80044c0:	681b      	ldr	r3, [r3, #0]
 80044c2:	430a      	orrs	r2, r1
 80044c4:	61da      	str	r2, [r3, #28]
		MODIFY_REG(tim->Instance->CCER, TIM_CCER_CC4P, TIM_OCPOLARITY_HIGH << 12);
 80044c6:	68fb      	ldr	r3, [r7, #12]
 80044c8:	681b      	ldr	r3, [r3, #0]
 80044ca:	6a1a      	ldr	r2, [r3, #32]
 80044cc:	68fb      	ldr	r3, [r7, #12]
 80044ce:	681b      	ldr	r3, [r3, #0]
 80044d0:	490b      	ldr	r1, [pc, #44]	; (8004500 <TIM_EnableOCx+0x118>)
 80044d2:	400a      	ands	r2, r1
 80044d4:	621a      	str	r2, [r3, #32]
		break;
 80044d6:	46c0      	nop			; (mov r8, r8)
	}
	TIM_ENABLE_CCx(tim, oc);
 80044d8:	68fb      	ldr	r3, [r7, #12]
 80044da:	681b      	ldr	r3, [r3, #0]
 80044dc:	6a19      	ldr	r1, [r3, #32]
 80044de:	68bb      	ldr	r3, [r7, #8]
 80044e0:	009b      	lsls	r3, r3, #2
 80044e2:	2201      	movs	r2, #1
 80044e4:	409a      	lsls	r2, r3
 80044e6:	68fb      	ldr	r3, [r7, #12]
 80044e8:	681b      	ldr	r3, [r3, #0]
 80044ea:	430a      	orrs	r2, r1
 80044ec:	621a      	str	r2, [r3, #32]
	//	MODIFY_REG(tmpcr2, TIM_CR2_OIS1 | TIM_CR2_OIS1N, TIM_OCIDLESTATE_SET | TIM_OCNIDLESTATE_SET);
	//	TIMx->CR2 = tmpcr2;
	//}


}
 80044ee:	46c0      	nop			; (mov r8, r8)
 80044f0:	46bd      	mov	sp, r7
 80044f2:	b004      	add	sp, #16
 80044f4:	bd80      	pop	{r7, pc}
 80044f6:	46c0      	nop			; (mov r8, r8)
 80044f8:	ffff80ff 	.word	0xffff80ff
 80044fc:	fffffdff 	.word	0xfffffdff
 8004500:	ffffdfff 	.word	0xffffdfff

08004504 <TIM_Reload>:

static void TIM_Reload(TIM_t * tim)
{
 8004504:	b580      	push	{r7, lr}
 8004506:	b084      	sub	sp, #16
 8004508:	af00      	add	r7, sp, #0
 800450a:	6078      	str	r0, [r7, #4]
	// Disable all timer event sources.
	uint32_t itSources = tim->Instance->DIER;
 800450c:	687b      	ldr	r3, [r7, #4]
 800450e:	681b      	ldr	r3, [r3, #0]
 8004510:	68db      	ldr	r3, [r3, #12]
 8004512:	60fb      	str	r3, [r7, #12]
	tim->Instance->DIER = 0;
 8004514:	687b      	ldr	r3, [r7, #4]
 8004516:	681b      	ldr	r3, [r3, #0]
 8004518:	2200      	movs	r2, #0
 800451a:	60da      	str	r2, [r3, #12]

	// Update the prescalar
	tim->Instance->EGR = TIM_EGR_UG;
 800451c:	687b      	ldr	r3, [r7, #4]
 800451e:	681b      	ldr	r3, [r3, #0]
 8004520:	2201      	movs	r2, #1
 8004522:	615a      	str	r2, [r3, #20]

	// Clear the event before it occurrs.
	__HAL_TIM_CLEAR_IT(tim, TIM_IT_UPDATE);
 8004524:	687b      	ldr	r3, [r7, #4]
 8004526:	681b      	ldr	r3, [r3, #0]
 8004528:	2202      	movs	r2, #2
 800452a:	4252      	negs	r2, r2
 800452c:	611a      	str	r2, [r3, #16]
	tim->Instance->DIER = itSources;
 800452e:	687b      	ldr	r3, [r7, #4]
 8004530:	681b      	ldr	r3, [r3, #0]
 8004532:	68fa      	ldr	r2, [r7, #12]
 8004534:	60da      	str	r2, [r3, #12]
}
 8004536:	46c0      	nop			; (mov r8, r8)
 8004538:	46bd      	mov	sp, r7
 800453a:	b004      	add	sp, #16
 800453c:	bd80      	pop	{r7, pc}
	...

08004540 <TIMx_Init>:

static void TIMx_Init(TIM_t * tim)
{
 8004540:	b580      	push	{r7, lr}
 8004542:	b082      	sub	sp, #8
 8004544:	af00      	add	r7, sp, #0
 8004546:	6078      	str	r0, [r7, #4]
		__HAL_RCC_TIM1_CLK_ENABLE();
	}

#endif
#ifdef TIM2_ENABLE
	if (tim == TIM_2)
 8004548:	4b1d      	ldr	r3, [pc, #116]	; (80045c0 <TIMx_Init+0x80>)
 800454a:	681b      	ldr	r3, [r3, #0]
 800454c:	687a      	ldr	r2, [r7, #4]
 800454e:	429a      	cmp	r2, r3
 8004550:	d108      	bne.n	8004564 <TIMx_Init+0x24>
	{
		HAL_NVIC_EnableIRQ(TIM2_IRQn);
 8004552:	200f      	movs	r0, #15
 8004554:	f7fd fcf9 	bl	8001f4a <HAL_NVIC_EnableIRQ>
		__HAL_RCC_TIM2_CLK_ENABLE();
 8004558:	4b1a      	ldr	r3, [pc, #104]	; (80045c4 <TIMx_Init+0x84>)
 800455a:	6b9a      	ldr	r2, [r3, #56]	; 0x38
 800455c:	4b19      	ldr	r3, [pc, #100]	; (80045c4 <TIMx_Init+0x84>)
 800455e:	2101      	movs	r1, #1
 8004560:	430a      	orrs	r2, r1
 8004562:	639a      	str	r2, [r3, #56]	; 0x38
		HAL_NVIC_EnableIRQ(TIM5_IRQn);
		__HAL_RCC_TIM5_CLK_ENABLE();
	}
#endif
#ifdef TIM6_ENABLE
	if (tim == TIM_6)
 8004564:	4b18      	ldr	r3, [pc, #96]	; (80045c8 <TIMx_Init+0x88>)
 8004566:	681b      	ldr	r3, [r3, #0]
 8004568:	687a      	ldr	r2, [r7, #4]
 800456a:	429a      	cmp	r2, r3
 800456c:	d108      	bne.n	8004580 <TIMx_Init+0x40>
	{
		HAL_NVIC_EnableIRQ(TIM6_IRQn);
 800456e:	2011      	movs	r0, #17
 8004570:	f7fd fceb 	bl	8001f4a <HAL_NVIC_EnableIRQ>
		__HAL_RCC_TIM6_CLK_ENABLE();
 8004574:	4b13      	ldr	r3, [pc, #76]	; (80045c4 <TIMx_Init+0x84>)
 8004576:	6b9a      	ldr	r2, [r3, #56]	; 0x38
 8004578:	4b12      	ldr	r3, [pc, #72]	; (80045c4 <TIMx_Init+0x84>)
 800457a:	2110      	movs	r1, #16
 800457c:	430a      	orrs	r2, r1
 800457e:	639a      	str	r2, [r3, #56]	; 0x38
		HAL_NVIC_EnableIRQ(TIM17_IRQn);
		__HAL_RCC_TIM17_CLK_ENABLE();
	}
#endif
#ifdef TIM21_ENABLE
	if (tim == TIM_21)
 8004580:	4b12      	ldr	r3, [pc, #72]	; (80045cc <TIMx_Init+0x8c>)
 8004582:	681b      	ldr	r3, [r3, #0]
 8004584:	687a      	ldr	r2, [r7, #4]
 8004586:	429a      	cmp	r2, r3
 8004588:	d108      	bne.n	800459c <TIMx_Init+0x5c>
	{
		HAL_NVIC_EnableIRQ(TIM21_IRQn);
 800458a:	2014      	movs	r0, #20
 800458c:	f7fd fcdd 	bl	8001f4a <HAL_NVIC_EnableIRQ>
		__HAL_RCC_TIM21_CLK_ENABLE();
 8004590:	4b0c      	ldr	r3, [pc, #48]	; (80045c4 <TIMx_Init+0x84>)
 8004592:	6b5a      	ldr	r2, [r3, #52]	; 0x34
 8004594:	4b0b      	ldr	r3, [pc, #44]	; (80045c4 <TIMx_Init+0x84>)
 8004596:	2104      	movs	r1, #4
 8004598:	430a      	orrs	r2, r1
 800459a:	635a      	str	r2, [r3, #52]	; 0x34
	}
#endif
#ifdef TIM22_ENABLE
	if (tim == TIM_22)
 800459c:	4b0c      	ldr	r3, [pc, #48]	; (80045d0 <TIMx_Init+0x90>)
 800459e:	681b      	ldr	r3, [r3, #0]
 80045a0:	687a      	ldr	r2, [r7, #4]
 80045a2:	429a      	cmp	r2, r3
 80045a4:	d108      	bne.n	80045b8 <TIMx_Init+0x78>
	{
		HAL_NVIC_EnableIRQ(TIM22_IRQn);
 80045a6:	2016      	movs	r0, #22
 80045a8:	f7fd fccf 	bl	8001f4a <HAL_NVIC_EnableIRQ>
		__HAL_RCC_TIM22_CLK_ENABLE();
 80045ac:	4b05      	ldr	r3, [pc, #20]	; (80045c4 <TIMx_Init+0x84>)
 80045ae:	6b5a      	ldr	r2, [r3, #52]	; 0x34
 80045b0:	4b04      	ldr	r3, [pc, #16]	; (80045c4 <TIMx_Init+0x84>)
 80045b2:	2120      	movs	r1, #32
 80045b4:	430a      	orrs	r2, r1
 80045b6:	635a      	str	r2, [r3, #52]	; 0x34
	}
#endif
}
 80045b8:	46c0      	nop			; (mov r8, r8)
 80045ba:	46bd      	mov	sp, r7
 80045bc:	b002      	add	sp, #8
 80045be:	bd80      	pop	{r7, pc}
 80045c0:	20000020 	.word	0x20000020
 80045c4:	40021000 	.word	0x40021000
 80045c8:	2000003c 	.word	0x2000003c
 80045cc:	20000058 	.word	0x20000058
 80045d0:	20000074 	.word	0x20000074

080045d4 <TIMx_Deinit>:


static void TIMx_Deinit(TIM_t * tim)
{
 80045d4:	b580      	push	{r7, lr}
 80045d6:	b082      	sub	sp, #8
 80045d8:	af00      	add	r7, sp, #0
 80045da:	6078      	str	r0, [r7, #4]
		HAL_NVIC_DisableIRQ(TIM1_CC_IRQn);
		__HAL_RCC_TIM1_CLK_DISABLE();
	}
#endif
#ifdef TIM2_ENABLE
	if (tim == TIM_2)
 80045dc:	4b1d      	ldr	r3, [pc, #116]	; (8004654 <TIMx_Deinit+0x80>)
 80045de:	681b      	ldr	r3, [r3, #0]
 80045e0:	687a      	ldr	r2, [r7, #4]
 80045e2:	429a      	cmp	r2, r3
 80045e4:	d108      	bne.n	80045f8 <TIMx_Deinit+0x24>
	{
		HAL_NVIC_DisableIRQ(TIM2_IRQn);
 80045e6:	200f      	movs	r0, #15
 80045e8:	f7fd fcbf 	bl	8001f6a <HAL_NVIC_DisableIRQ>
		__HAL_RCC_TIM2_CLK_DISABLE();
 80045ec:	4b1a      	ldr	r3, [pc, #104]	; (8004658 <TIMx_Deinit+0x84>)
 80045ee:	6b9a      	ldr	r2, [r3, #56]	; 0x38
 80045f0:	4b19      	ldr	r3, [pc, #100]	; (8004658 <TIMx_Deinit+0x84>)
 80045f2:	2101      	movs	r1, #1
 80045f4:	438a      	bics	r2, r1
 80045f6:	639a      	str	r2, [r3, #56]	; 0x38
		HAL_NVIC_DisableIRQ(TIM5_IRQn);
		__HAL_RCC_TIM5_CLK_DISABLE();
	}
#endif
#ifdef TIM6_ENABLE
	if (tim == TIM_6)
 80045f8:	4b18      	ldr	r3, [pc, #96]	; (800465c <TIMx_Deinit+0x88>)
 80045fa:	681b      	ldr	r3, [r3, #0]
 80045fc:	687a      	ldr	r2, [r7, #4]
 80045fe:	429a      	cmp	r2, r3
 8004600:	d108      	bne.n	8004614 <TIMx_Deinit+0x40>
	{
		HAL_NVIC_DisableIRQ(TIM6_IRQn);
 8004602:	2011      	movs	r0, #17
 8004604:	f7fd fcb1 	bl	8001f6a <HAL_NVIC_DisableIRQ>
		__HAL_RCC_TIM6_CLK_DISABLE();
 8004608:	4b13      	ldr	r3, [pc, #76]	; (8004658 <TIMx_Deinit+0x84>)
 800460a:	6b9a      	ldr	r2, [r3, #56]	; 0x38
 800460c:	4b12      	ldr	r3, [pc, #72]	; (8004658 <TIMx_Deinit+0x84>)
 800460e:	2110      	movs	r1, #16
 8004610:	438a      	bics	r2, r1
 8004612:	639a      	str	r2, [r3, #56]	; 0x38
		HAL_NVIC_DisableIRQ(TIM17_IRQn);
		__HAL_RCC_TIM17_CLK_DISABLE();
	}
#endif
#ifdef TIM21_ENABLE
	if (tim == TIM_21)
 8004614:	4b12      	ldr	r3, [pc, #72]	; (8004660 <TIMx_Deinit+0x8c>)
 8004616:	681b      	ldr	r3, [r3, #0]
 8004618:	687a      	ldr	r2, [r7, #4]
 800461a:	429a      	cmp	r2, r3
 800461c:	d108      	bne.n	8004630 <TIMx_Deinit+0x5c>
	{
		HAL_NVIC_DisableIRQ(TIM21_IRQn);
 800461e:	2014      	movs	r0, #20
 8004620:	f7fd fca3 	bl	8001f6a <HAL_NVIC_DisableIRQ>
		__HAL_RCC_TIM21_CLK_DISABLE();
 8004624:	4b0c      	ldr	r3, [pc, #48]	; (8004658 <TIMx_Deinit+0x84>)
 8004626:	6b5a      	ldr	r2, [r3, #52]	; 0x34
 8004628:	4b0b      	ldr	r3, [pc, #44]	; (8004658 <TIMx_Deinit+0x84>)
 800462a:	2104      	movs	r1, #4
 800462c:	438a      	bics	r2, r1
 800462e:	635a      	str	r2, [r3, #52]	; 0x34
	}
#endif
#ifdef TIM22_ENABLE
	if (tim == TIM_22)
 8004630:	4b0c      	ldr	r3, [pc, #48]	; (8004664 <TIMx_Deinit+0x90>)
 8004632:	681b      	ldr	r3, [r3, #0]
 8004634:	687a      	ldr	r2, [r7, #4]
 8004636:	429a      	cmp	r2, r3
 8004638:	d108      	bne.n	800464c <TIMx_Deinit+0x78>
	{
		HAL_NVIC_DisableIRQ(TIM22_IRQn);
 800463a:	2016      	movs	r0, #22
 800463c:	f7fd fc95 	bl	8001f6a <HAL_NVIC_DisableIRQ>
		__HAL_RCC_TIM22_CLK_DISABLE();
 8004640:	4b05      	ldr	r3, [pc, #20]	; (8004658 <TIMx_Deinit+0x84>)
 8004642:	6b5a      	ldr	r2, [r3, #52]	; 0x34
 8004644:	4b04      	ldr	r3, [pc, #16]	; (8004658 <TIMx_Deinit+0x84>)
 8004646:	2120      	movs	r1, #32
 8004648:	438a      	bics	r2, r1
 800464a:	635a      	str	r2, [r3, #52]	; 0x34
	}
#endif
}
 800464c:	46c0      	nop			; (mov r8, r8)
 800464e:	46bd      	mov	sp, r7
 8004650:	b002      	add	sp, #8
 8004652:	bd80      	pop	{r7, pc}
 8004654:	20000020 	.word	0x20000020
 8004658:	40021000 	.word	0x40021000
 800465c:	2000003c 	.word	0x2000003c
 8004660:	20000058 	.word	0x20000058
 8004664:	20000074 	.word	0x20000074

08004668 <TIM_IRQHandler>:
 */

#ifdef TIM_USE_IRQS

static void TIM_IRQHandler(TIM_t * tim)
{
 8004668:	b580      	push	{r7, lr}
 800466a:	b084      	sub	sp, #16
 800466c:	af00      	add	r7, sp, #0
 800466e:	6078      	str	r0, [r7, #4]
	uint32_t irqs = TIM_GET_IRQ_SOURCES(tim);
 8004670:	687b      	ldr	r3, [r7, #4]
 8004672:	681b      	ldr	r3, [r3, #0]
 8004674:	691a      	ldr	r2, [r3, #16]
 8004676:	687b      	ldr	r3, [r7, #4]
 8004678:	681b      	ldr	r3, [r3, #0]
 800467a:	68db      	ldr	r3, [r3, #12]
 800467c:	4013      	ands	r3, r2
 800467e:	60fb      	str	r3, [r7, #12]
	if(irqs & TIM_FLAG_CC1)
 8004680:	68fb      	ldr	r3, [r7, #12]
 8004682:	2202      	movs	r2, #2
 8004684:	4013      	ands	r3, r2
 8004686:	d007      	beq.n	8004698 <TIM_IRQHandler+0x30>
	{
		__HAL_TIM_CLEAR_IT(tim, TIM_IT_CC1);
 8004688:	687b      	ldr	r3, [r7, #4]
 800468a:	681b      	ldr	r3, [r3, #0]
 800468c:	2203      	movs	r2, #3
 800468e:	4252      	negs	r2, r2
 8004690:	611a      	str	r2, [r3, #16]
		tim->PulseCallback[0]();
 8004692:	687b      	ldr	r3, [r7, #4]
 8004694:	689b      	ldr	r3, [r3, #8]
 8004696:	4798      	blx	r3
	}
	if(irqs & TIM_FLAG_CC2)
 8004698:	68fb      	ldr	r3, [r7, #12]
 800469a:	2204      	movs	r2, #4
 800469c:	4013      	ands	r3, r2
 800469e:	d007      	beq.n	80046b0 <TIM_IRQHandler+0x48>
	{
		__HAL_TIM_CLEAR_IT(tim, TIM_IT_CC2);
 80046a0:	687b      	ldr	r3, [r7, #4]
 80046a2:	681b      	ldr	r3, [r3, #0]
 80046a4:	2205      	movs	r2, #5
 80046a6:	4252      	negs	r2, r2
 80046a8:	611a      	str	r2, [r3, #16]
		tim->PulseCallback[1]();
 80046aa:	687b      	ldr	r3, [r7, #4]
 80046ac:	68db      	ldr	r3, [r3, #12]
 80046ae:	4798      	blx	r3
	}
	if(irqs & TIM_FLAG_CC3)
 80046b0:	68fb      	ldr	r3, [r7, #12]
 80046b2:	2208      	movs	r2, #8
 80046b4:	4013      	ands	r3, r2
 80046b6:	d007      	beq.n	80046c8 <TIM_IRQHandler+0x60>
	{
		__HAL_TIM_CLEAR_IT(tim, TIM_IT_CC3);
 80046b8:	687b      	ldr	r3, [r7, #4]
 80046ba:	681b      	ldr	r3, [r3, #0]
 80046bc:	2209      	movs	r2, #9
 80046be:	4252      	negs	r2, r2
 80046c0:	611a      	str	r2, [r3, #16]
		tim->PulseCallback[2]();
 80046c2:	687b      	ldr	r3, [r7, #4]
 80046c4:	691b      	ldr	r3, [r3, #16]
 80046c6:	4798      	blx	r3
	}
	if(irqs & TIM_FLAG_CC4)
 80046c8:	68fb      	ldr	r3, [r7, #12]
 80046ca:	2210      	movs	r2, #16
 80046cc:	4013      	ands	r3, r2
 80046ce:	d007      	beq.n	80046e0 <TIM_IRQHandler+0x78>
	{
		__HAL_TIM_CLEAR_IT(tim, TIM_IT_CC4);
 80046d0:	687b      	ldr	r3, [r7, #4]
 80046d2:	681b      	ldr	r3, [r3, #0]
 80046d4:	2211      	movs	r2, #17
 80046d6:	4252      	negs	r2, r2
 80046d8:	611a      	str	r2, [r3, #16]
		tim->PulseCallback[3]();
 80046da:	687b      	ldr	r3, [r7, #4]
 80046dc:	695b      	ldr	r3, [r3, #20]
 80046de:	4798      	blx	r3
	}
	if(irqs & TIM_FLAG_UPDATE)
 80046e0:	68fb      	ldr	r3, [r7, #12]
 80046e2:	2201      	movs	r2, #1
 80046e4:	4013      	ands	r3, r2
 80046e6:	d007      	beq.n	80046f8 <TIM_IRQHandler+0x90>
	{
		__HAL_TIM_CLEAR_IT(tim, TIM_IT_UPDATE);
 80046e8:	687b      	ldr	r3, [r7, #4]
 80046ea:	681b      	ldr	r3, [r3, #0]
 80046ec:	2202      	movs	r2, #2
 80046ee:	4252      	negs	r2, r2
 80046f0:	611a      	str	r2, [r3, #16]
		tim->ReloadCallback();
 80046f2:	687b      	ldr	r3, [r7, #4]
 80046f4:	685b      	ldr	r3, [r3, #4]
 80046f6:	4798      	blx	r3
	}
}
 80046f8:	46c0      	nop			; (mov r8, r8)
 80046fa:	46bd      	mov	sp, r7
 80046fc:	b004      	add	sp, #16
 80046fe:	bd80      	pop	{r7, pc}

08004700 <TIM2_IRQHandler>:
	TIM_IRQHandler(TIM_1);
}
#endif
#ifdef TIM2_ENABLE
void TIM2_IRQHandler(void)
{
 8004700:	b580      	push	{r7, lr}
 8004702:	af00      	add	r7, sp, #0
	TIM_IRQHandler(TIM_2);
 8004704:	4b03      	ldr	r3, [pc, #12]	; (8004714 <TIM2_IRQHandler+0x14>)
 8004706:	681b      	ldr	r3, [r3, #0]
 8004708:	0018      	movs	r0, r3
 800470a:	f7ff ffad 	bl	8004668 <TIM_IRQHandler>
}
 800470e:	46c0      	nop			; (mov r8, r8)
 8004710:	46bd      	mov	sp, r7
 8004712:	bd80      	pop	{r7, pc}
 8004714:	20000020 	.word	0x20000020

08004718 <TIM6_IRQHandler>:
	TIM_IRQHandler(TIM_5);
}
#endif
#ifdef TIM6_ENABLE
void TIM6_IRQHandler(void)
{
 8004718:	b580      	push	{r7, lr}
 800471a:	af00      	add	r7, sp, #0
	TIM_IRQHandler(TIM_6);
 800471c:	4b03      	ldr	r3, [pc, #12]	; (800472c <TIM6_IRQHandler+0x14>)
 800471e:	681b      	ldr	r3, [r3, #0]
 8004720:	0018      	movs	r0, r3
 8004722:	f7ff ffa1 	bl	8004668 <TIM_IRQHandler>
}
 8004726:	46c0      	nop			; (mov r8, r8)
 8004728:	46bd      	mov	sp, r7
 800472a:	bd80      	pop	{r7, pc}
 800472c:	2000003c 	.word	0x2000003c

08004730 <TIM21_IRQHandler>:
	TIM_IRQHandler(TIM_17);
}
#endif
#ifdef TIM21_ENABLE
void TIM21_IRQHandler(void)
{
 8004730:	b580      	push	{r7, lr}
 8004732:	af00      	add	r7, sp, #0
	TIM_IRQHandler(TIM_21);
 8004734:	4b03      	ldr	r3, [pc, #12]	; (8004744 <TIM21_IRQHandler+0x14>)
 8004736:	681b      	ldr	r3, [r3, #0]
 8004738:	0018      	movs	r0, r3
 800473a:	f7ff ff95 	bl	8004668 <TIM_IRQHandler>
}
 800473e:	46c0      	nop			; (mov r8, r8)
 8004740:	46bd      	mov	sp, r7
 8004742:	bd80      	pop	{r7, pc}
 8004744:	20000058 	.word	0x20000058

08004748 <TIM22_IRQHandler>:
#endif
#ifdef TIM22_ENABLE
void TIM22_IRQHandler(void)
{
 8004748:	b580      	push	{r7, lr}
 800474a:	af00      	add	r7, sp, #0
	TIM_IRQHandler(TIM_22);
 800474c:	4b03      	ldr	r3, [pc, #12]	; (800475c <TIM22_IRQHandler+0x14>)
 800474e:	681b      	ldr	r3, [r3, #0]
 8004750:	0018      	movs	r0, r3
 8004752:	f7ff ff89 	bl	8004668 <TIM_IRQHandler>
}
 8004756:	46c0      	nop			; (mov r8, r8)
 8004758:	46bd      	mov	sp, r7
 800475a:	bd80      	pop	{r7, pc}
 800475c:	20000074 	.word	0x20000074

08004760 <GPIO_Deinit>:
{
 8004760:	b580      	push	{r7, lr}
 8004762:	b082      	sub	sp, #8
 8004764:	af00      	add	r7, sp, #0
 8004766:	6078      	str	r0, [r7, #4]
 8004768:	6039      	str	r1, [r7, #0]
	GPIO_Init(gpio, pin, GPIO_Mode_Analog);
 800476a:	6839      	ldr	r1, [r7, #0]
 800476c:	687b      	ldr	r3, [r7, #4]
 800476e:	2203      	movs	r2, #3
 8004770:	0018      	movs	r0, r3
 8004772:	f7ff fb43 	bl	8003dfc <GPIO_Init>
}
 8004776:	46c0      	nop			; (mov r8, r8)
 8004778:	46bd      	mov	sp, r7
 800477a:	b002      	add	sp, #8
 800477c:	bd80      	pop	{r7, pc}
	...

08004780 <CLK_GetPCLKFreq>:
{
 8004780:	b580      	push	{r7, lr}
 8004782:	af00      	add	r7, sp, #0
	return CLK_SYSCLK_FREQ;
 8004784:	4b01      	ldr	r3, [pc, #4]	; (800478c <CLK_GetPCLKFreq+0xc>)
}
 8004786:	0018      	movs	r0, r3
 8004788:	46bd      	mov	sp, r7
 800478a:	bd80      	pop	{r7, pc}
 800478c:	01e84800 	.word	0x01e84800

08004790 <UART_Init>:
 * PUBLIC FUNCTIONS
 */


void UART_Init(UART_t * uart, uint32_t baud, UART_Mode_t mode)
{
 8004790:	b5f0      	push	{r4, r5, r6, r7, lr}
 8004792:	b093      	sub	sp, #76	; 0x4c
 8004794:	af00      	add	r7, sp, #0
 8004796:	6278      	str	r0, [r7, #36]	; 0x24
 8004798:	6239      	str	r1, [r7, #32]
 800479a:	261f      	movs	r6, #31
 800479c:	19bb      	adds	r3, r7, r6
 800479e:	701a      	strb	r2, [r3, #0]
	uart->tx.head = uart->tx.tail = 0;
 80047a0:	6a7a      	ldr	r2, [r7, #36]	; 0x24
 80047a2:	2382      	movs	r3, #130	; 0x82
 80047a4:	005b      	lsls	r3, r3, #1
 80047a6:	2100      	movs	r1, #0
 80047a8:	50d1      	str	r1, [r2, r3]
 80047aa:	6a7a      	ldr	r2, [r7, #36]	; 0x24
 80047ac:	2382      	movs	r3, #130	; 0x82
 80047ae:	005b      	lsls	r3, r3, #1
 80047b0:	58d1      	ldr	r1, [r2, r3]
 80047b2:	6a7a      	ldr	r2, [r7, #36]	; 0x24
 80047b4:	2380      	movs	r3, #128	; 0x80
 80047b6:	005b      	lsls	r3, r3, #1
 80047b8:	50d1      	str	r1, [r2, r3]
	uart->rx.head = uart->rx.tail = 0;
 80047ba:	6a7a      	ldr	r2, [r7, #36]	; 0x24
 80047bc:	2383      	movs	r3, #131	; 0x83
 80047be:	009b      	lsls	r3, r3, #2
 80047c0:	2100      	movs	r1, #0
 80047c2:	50d1      	str	r1, [r2, r3]
 80047c4:	6a7a      	ldr	r2, [r7, #36]	; 0x24
 80047c6:	2383      	movs	r3, #131	; 0x83
 80047c8:	009b      	lsls	r3, r3, #2
 80047ca:	58d1      	ldr	r1, [r2, r3]
 80047cc:	6a7a      	ldr	r2, [r7, #36]	; 0x24
 80047ce:	2382      	movs	r3, #130	; 0x82
 80047d0:	009b      	lsls	r3, r3, #2
 80047d2:	50d1      	str	r1, [r2, r3]

	// Enable the uart specific GPIO and clocks.
	UARTx_Init(uart);
 80047d4:	6a7b      	ldr	r3, [r7, #36]	; 0x24
 80047d6:	0018      	movs	r0, r3
 80047d8:	f000 f994 	bl	8004b04 <UARTx_Init>

	__HAL_UART_DISABLE(uart);
 80047dc:	6a7a      	ldr	r2, [r7, #36]	; 0x24
 80047de:	2384      	movs	r3, #132	; 0x84
 80047e0:	009b      	lsls	r3, r3, #2
 80047e2:	58d3      	ldr	r3, [r2, r3]
 80047e4:	681a      	ldr	r2, [r3, #0]
 80047e6:	6a79      	ldr	r1, [r7, #36]	; 0x24
 80047e8:	2384      	movs	r3, #132	; 0x84
 80047ea:	009b      	lsls	r3, r3, #2
 80047ec:	58cb      	ldr	r3, [r1, r3]
 80047ee:	2101      	movs	r1, #1
 80047f0:	438a      	bics	r2, r1
 80047f2:	601a      	str	r2, [r3, #0]
	// Configure to standard settings: 8N1, no flow control.
	uint32_t cr1 = (uint32_t)UART_WORDLENGTH_8B | UART_PARITY_NONE | UART_MODE_TX_RX | UART_OVERSAMPLING_16;
 80047f4:	230c      	movs	r3, #12
 80047f6:	643b      	str	r3, [r7, #64]	; 0x40
	const uint32_t cr1msk = USART_CR1_M | USART_CR1_PCE | USART_CR1_PS | USART_CR1_TE | USART_CR1_RE | USART_CR1_OVER8;
 80047f8:	4b56      	ldr	r3, [pc, #344]	; (8004954 <UART_Init+0x1c4>)
 80047fa:	63fb      	str	r3, [r7, #60]	; 0x3c
	MODIFY_REG(uart->Instance->CR1, cr1msk,	cr1);
 80047fc:	6a7a      	ldr	r2, [r7, #36]	; 0x24
 80047fe:	2384      	movs	r3, #132	; 0x84
 8004800:	009b      	lsls	r3, r3, #2
 8004802:	58d3      	ldr	r3, [r2, r3]
 8004804:	681b      	ldr	r3, [r3, #0]
 8004806:	6bfa      	ldr	r2, [r7, #60]	; 0x3c
 8004808:	43d2      	mvns	r2, r2
 800480a:	401a      	ands	r2, r3
 800480c:	0011      	movs	r1, r2
 800480e:	6a7a      	ldr	r2, [r7, #36]	; 0x24
 8004810:	2384      	movs	r3, #132	; 0x84
 8004812:	009b      	lsls	r3, r3, #2
 8004814:	58d3      	ldr	r3, [r2, r3]
 8004816:	6c3a      	ldr	r2, [r7, #64]	; 0x40
 8004818:	430a      	orrs	r2, r1
 800481a:	601a      	str	r2, [r3, #0]

	uint32_t cr2 = UART_STOPBITS_1;
 800481c:	2300      	movs	r3, #0
 800481e:	647b      	str	r3, [r7, #68]	; 0x44
	if (mode & UART_Mode_Inverted) 	{ cr2 |= USART_CR2_RXINV | USART_CR2_TXINV; }
 8004820:	19bb      	adds	r3, r7, r6
 8004822:	781b      	ldrb	r3, [r3, #0]
 8004824:	2201      	movs	r2, #1
 8004826:	4013      	ands	r3, r2
 8004828:	d004      	beq.n	8004834 <UART_Init+0xa4>
 800482a:	6c7b      	ldr	r3, [r7, #68]	; 0x44
 800482c:	22c0      	movs	r2, #192	; 0xc0
 800482e:	0292      	lsls	r2, r2, #10
 8004830:	4313      	orrs	r3, r2
 8004832:	647b      	str	r3, [r7, #68]	; 0x44
	if (mode & UART_Mode_Swap) 		{ cr2 |= USART_CR2_SWAP; }
 8004834:	231f      	movs	r3, #31
 8004836:	18fb      	adds	r3, r7, r3
 8004838:	781b      	ldrb	r3, [r3, #0]
 800483a:	2202      	movs	r2, #2
 800483c:	4013      	ands	r3, r2
 800483e:	d004      	beq.n	800484a <UART_Init+0xba>
 8004840:	6c7b      	ldr	r3, [r7, #68]	; 0x44
 8004842:	2280      	movs	r2, #128	; 0x80
 8004844:	0212      	lsls	r2, r2, #8
 8004846:	4313      	orrs	r3, r2
 8004848:	647b      	str	r3, [r7, #68]	; 0x44
	const uint32_t cr2msk = USART_CR2_STOP | USART_CR2_RXINV | USART_CR2_TXINV | USART_CR2_SWAP | USART_CR2_LINEN | USART_CR2_CLKEN;
 800484a:	23fe      	movs	r3, #254	; 0xfe
 800484c:	029b      	lsls	r3, r3, #10
 800484e:	63bb      	str	r3, [r7, #56]	; 0x38
	MODIFY_REG(uart->Instance->CR2, cr2msk, cr2);
 8004850:	6a7a      	ldr	r2, [r7, #36]	; 0x24
 8004852:	2384      	movs	r3, #132	; 0x84
 8004854:	009b      	lsls	r3, r3, #2
 8004856:	58d3      	ldr	r3, [r2, r3]
 8004858:	685b      	ldr	r3, [r3, #4]
 800485a:	6bba      	ldr	r2, [r7, #56]	; 0x38
 800485c:	43d2      	mvns	r2, r2
 800485e:	401a      	ands	r2, r3
 8004860:	0011      	movs	r1, r2
 8004862:	6a7a      	ldr	r2, [r7, #36]	; 0x24
 8004864:	2384      	movs	r3, #132	; 0x84
 8004866:	009b      	lsls	r3, r3, #2
 8004868:	58d3      	ldr	r3, [r2, r3]
 800486a:	6c7a      	ldr	r2, [r7, #68]	; 0x44
 800486c:	430a      	orrs	r2, r1
 800486e:	605a      	str	r2, [r3, #4]

	uint32_t cr3 = (uint32_t)UART_HWCONTROL_NONE | UART_ONE_BIT_SAMPLE_DISABLE;
 8004870:	2300      	movs	r3, #0
 8004872:	637b      	str	r3, [r7, #52]	; 0x34
	const uint32_t cr3msk = USART_CR3_RTSE | USART_CR3_CTSE | USART_CR3_ONEBIT | USART_CR3_SCEN | USART_CR3_HDSEL | USART_CR3_IREN;
 8004874:	4b38      	ldr	r3, [pc, #224]	; (8004958 <UART_Init+0x1c8>)
 8004876:	633b      	str	r3, [r7, #48]	; 0x30
	MODIFY_REG(uart->Instance->CR3, cr3msk, cr3);
 8004878:	6a7a      	ldr	r2, [r7, #36]	; 0x24
 800487a:	2384      	movs	r3, #132	; 0x84
 800487c:	009b      	lsls	r3, r3, #2
 800487e:	58d3      	ldr	r3, [r2, r3]
 8004880:	689b      	ldr	r3, [r3, #8]
 8004882:	6b3a      	ldr	r2, [r7, #48]	; 0x30
 8004884:	43d2      	mvns	r2, r2
 8004886:	401a      	ands	r2, r3
 8004888:	0011      	movs	r1, r2
 800488a:	6a7a      	ldr	r2, [r7, #36]	; 0x24
 800488c:	2384      	movs	r3, #132	; 0x84
 800488e:	009b      	lsls	r3, r3, #2
 8004890:	58d3      	ldr	r3, [r2, r3]
 8004892:	6b7a      	ldr	r2, [r7, #52]	; 0x34
 8004894:	430a      	orrs	r2, r1
 8004896:	609a      	str	r2, [r3, #8]

	// Calculate baud rate.
	uint32_t pclk = CLK_GetPCLKFreq();
 8004898:	f7ff ff72 	bl	8004780 <CLK_GetPCLKFreq>
 800489c:	0003      	movs	r3, r0
 800489e:	62fb      	str	r3, [r7, #44]	; 0x2c

#ifdef UARTLP_GPIO
	if (UART_INSTANCE_LOWPOWER(uart))
 80048a0:	6a7a      	ldr	r2, [r7, #36]	; 0x24
 80048a2:	2384      	movs	r3, #132	; 0x84
 80048a4:	009b      	lsls	r3, r3, #2
 80048a6:	58d3      	ldr	r3, [r2, r3]
 80048a8:	4a2c      	ldr	r2, [pc, #176]	; (800495c <UART_Init+0x1cc>)
 80048aa:	4293      	cmp	r3, r2
 80048ac:	d128      	bne.n	8004900 <UART_Init+0x170>
	{
		uart->Instance->BRR = UART_DIV_LPUART(pclk, baud);
 80048ae:	6afb      	ldr	r3, [r7, #44]	; 0x2c
 80048b0:	613b      	str	r3, [r7, #16]
 80048b2:	2300      	movs	r3, #0
 80048b4:	617b      	str	r3, [r7, #20]
 80048b6:	6939      	ldr	r1, [r7, #16]
 80048b8:	697a      	ldr	r2, [r7, #20]
 80048ba:	000b      	movs	r3, r1
 80048bc:	0e1b      	lsrs	r3, r3, #24
 80048be:	0010      	movs	r0, r2
 80048c0:	0205      	lsls	r5, r0, #8
 80048c2:	431d      	orrs	r5, r3
 80048c4:	000b      	movs	r3, r1
 80048c6:	021c      	lsls	r4, r3, #8
 80048c8:	6a3b      	ldr	r3, [r7, #32]
 80048ca:	085b      	lsrs	r3, r3, #1
 80048cc:	60bb      	str	r3, [r7, #8]
 80048ce:	2300      	movs	r3, #0
 80048d0:	60fb      	str	r3, [r7, #12]
 80048d2:	68b8      	ldr	r0, [r7, #8]
 80048d4:	68f9      	ldr	r1, [r7, #12]
 80048d6:	1900      	adds	r0, r0, r4
 80048d8:	4169      	adcs	r1, r5
 80048da:	6a3b      	ldr	r3, [r7, #32]
 80048dc:	603b      	str	r3, [r7, #0]
 80048de:	2300      	movs	r3, #0
 80048e0:	607b      	str	r3, [r7, #4]
 80048e2:	683a      	ldr	r2, [r7, #0]
 80048e4:	687b      	ldr	r3, [r7, #4]
 80048e6:	f7fb fd85 	bl	80003f4 <__aeabi_uldivmod>
 80048ea:	0002      	movs	r2, r0
 80048ec:	000b      	movs	r3, r1
 80048ee:	0010      	movs	r0, r2
 80048f0:	0019      	movs	r1, r3
 80048f2:	6a7a      	ldr	r2, [r7, #36]	; 0x24
 80048f4:	2384      	movs	r3, #132	; 0x84
 80048f6:	009b      	lsls	r3, r3, #2
 80048f8:	58d3      	ldr	r3, [r2, r3]
 80048fa:	0002      	movs	r2, r0
 80048fc:	60da      	str	r2, [r3, #12]
 80048fe:	e00c      	b.n	800491a <UART_Init+0x18a>
	}
	else
#endif
	{
		uart->Instance->BRR = UART_DIV_SAMPLING16(pclk, baud);
 8004900:	6a3b      	ldr	r3, [r7, #32]
 8004902:	085a      	lsrs	r2, r3, #1
 8004904:	6afb      	ldr	r3, [r7, #44]	; 0x2c
 8004906:	18d0      	adds	r0, r2, r3
 8004908:	6a7a      	ldr	r2, [r7, #36]	; 0x24
 800490a:	2384      	movs	r3, #132	; 0x84
 800490c:	009b      	lsls	r3, r3, #2
 800490e:	58d4      	ldr	r4, [r2, r3]
 8004910:	6a39      	ldr	r1, [r7, #32]
 8004912:	f7fb fbf9 	bl	8000108 <__udivsi3>
 8004916:	0003      	movs	r3, r0
 8004918:	60e3      	str	r3, [r4, #12]
	}
	__HAL_UART_ENABLE(uart);
 800491a:	6a7a      	ldr	r2, [r7, #36]	; 0x24
 800491c:	2384      	movs	r3, #132	; 0x84
 800491e:	009b      	lsls	r3, r3, #2
 8004920:	58d3      	ldr	r3, [r2, r3]
 8004922:	681a      	ldr	r2, [r3, #0]
 8004924:	6a79      	ldr	r1, [r7, #36]	; 0x24
 8004926:	2384      	movs	r3, #132	; 0x84
 8004928:	009b      	lsls	r3, r3, #2
 800492a:	58cb      	ldr	r3, [r1, r3]
 800492c:	2101      	movs	r1, #1
 800492e:	430a      	orrs	r2, r1
 8004930:	601a      	str	r2, [r3, #0]

	// Enable RX IRQ.
	__UART_RX_ENABLE(uart);
 8004932:	6a7a      	ldr	r2, [r7, #36]	; 0x24
 8004934:	2384      	movs	r3, #132	; 0x84
 8004936:	009b      	lsls	r3, r3, #2
 8004938:	58d3      	ldr	r3, [r2, r3]
 800493a:	681a      	ldr	r2, [r3, #0]
 800493c:	6a79      	ldr	r1, [r7, #36]	; 0x24
 800493e:	2384      	movs	r3, #132	; 0x84
 8004940:	009b      	lsls	r3, r3, #2
 8004942:	58cb      	ldr	r3, [r1, r3]
 8004944:	2120      	movs	r1, #32
 8004946:	430a      	orrs	r2, r1
 8004948:	601a      	str	r2, [r3, #0]
}
 800494a:	46c0      	nop			; (mov r8, r8)
 800494c:	46bd      	mov	sp, r7
 800494e:	b013      	add	sp, #76	; 0x4c
 8004950:	bdf0      	pop	{r4, r5, r6, r7, pc}
 8004952:	46c0      	nop			; (mov r8, r8)
 8004954:	1000960c 	.word	0x1000960c
 8004958:	00000b2a 	.word	0x00000b2a
 800495c:	40004800 	.word	0x40004800

08004960 <UART_Deinit>:

void UART_Deinit(UART_t * uart)
{
 8004960:	b580      	push	{r7, lr}
 8004962:	b082      	sub	sp, #8
 8004964:	af00      	add	r7, sp, #0
 8004966:	6078      	str	r0, [r7, #4]
	// Disable RX IRQ, and TX IRQ in case a tx is underway.
	__UART_RX_DISABLE(uart);
 8004968:	687a      	ldr	r2, [r7, #4]
 800496a:	2384      	movs	r3, #132	; 0x84
 800496c:	009b      	lsls	r3, r3, #2
 800496e:	58d3      	ldr	r3, [r2, r3]
 8004970:	681a      	ldr	r2, [r3, #0]
 8004972:	6879      	ldr	r1, [r7, #4]
 8004974:	2384      	movs	r3, #132	; 0x84
 8004976:	009b      	lsls	r3, r3, #2
 8004978:	58cb      	ldr	r3, [r1, r3]
 800497a:	2120      	movs	r1, #32
 800497c:	438a      	bics	r2, r1
 800497e:	601a      	str	r2, [r3, #0]
	__UART_TX_DISABLE(uart);
 8004980:	687a      	ldr	r2, [r7, #4]
 8004982:	2384      	movs	r3, #132	; 0x84
 8004984:	009b      	lsls	r3, r3, #2
 8004986:	58d3      	ldr	r3, [r2, r3]
 8004988:	681a      	ldr	r2, [r3, #0]
 800498a:	6879      	ldr	r1, [r7, #4]
 800498c:	2384      	movs	r3, #132	; 0x84
 800498e:	009b      	lsls	r3, r3, #2
 8004990:	58cb      	ldr	r3, [r1, r3]
 8004992:	2180      	movs	r1, #128	; 0x80
 8004994:	438a      	bics	r2, r1
 8004996:	601a      	str	r2, [r3, #0]

	__HAL_UART_DISABLE(uart);
 8004998:	687a      	ldr	r2, [r7, #4]
 800499a:	2384      	movs	r3, #132	; 0x84
 800499c:	009b      	lsls	r3, r3, #2
 800499e:	58d3      	ldr	r3, [r2, r3]
 80049a0:	681a      	ldr	r2, [r3, #0]
 80049a2:	6879      	ldr	r1, [r7, #4]
 80049a4:	2384      	movs	r3, #132	; 0x84
 80049a6:	009b      	lsls	r3, r3, #2
 80049a8:	58cb      	ldr	r3, [r1, r3]
 80049aa:	2101      	movs	r1, #1
 80049ac:	438a      	bics	r2, r1
 80049ae:	601a      	str	r2, [r3, #0]
	// Clear all control registers.
	uart->Instance->CR1 = 0x0U;
 80049b0:	687a      	ldr	r2, [r7, #4]
 80049b2:	2384      	movs	r3, #132	; 0x84
 80049b4:	009b      	lsls	r3, r3, #2
 80049b6:	58d3      	ldr	r3, [r2, r3]
 80049b8:	2200      	movs	r2, #0
 80049ba:	601a      	str	r2, [r3, #0]
	uart->Instance->CR2 = 0x0U;
 80049bc:	687a      	ldr	r2, [r7, #4]
 80049be:	2384      	movs	r3, #132	; 0x84
 80049c0:	009b      	lsls	r3, r3, #2
 80049c2:	58d3      	ldr	r3, [r2, r3]
 80049c4:	2200      	movs	r2, #0
 80049c6:	605a      	str	r2, [r3, #4]
	uart->Instance->CR3 = 0x0U;
 80049c8:	687a      	ldr	r2, [r7, #4]
 80049ca:	2384      	movs	r3, #132	; 0x84
 80049cc:	009b      	lsls	r3, r3, #2
 80049ce:	58d3      	ldr	r3, [r2, r3]
 80049d0:	2200      	movs	r2, #0
 80049d2:	609a      	str	r2, [r3, #8]

	// Disable uart specific GPIO and clocks.
	UARTx_Deinit(uart);
 80049d4:	687b      	ldr	r3, [r7, #4]
 80049d6:	0018      	movs	r0, r3
 80049d8:	f000 f8b8 	bl	8004b4c <UARTx_Deinit>
}
 80049dc:	46c0      	nop			; (mov r8, r8)
 80049de:	46bd      	mov	sp, r7
 80049e0:	b002      	add	sp, #8
 80049e2:	bd80      	pop	{r7, pc}

080049e4 <UART_ReadCount>:
{
	UART_Write(uart, (const uint8_t *)str, strlen(str));
}

uint32_t UART_ReadCount(UART_t * uart)
{
 80049e4:	b580      	push	{r7, lr}
 80049e6:	b084      	sub	sp, #16
 80049e8:	af00      	add	r7, sp, #0
 80049ea:	6078      	str	r0, [r7, #4]
	__UART_RX_DISABLE(uart);
 80049ec:	687a      	ldr	r2, [r7, #4]
 80049ee:	2384      	movs	r3, #132	; 0x84
 80049f0:	009b      	lsls	r3, r3, #2
 80049f2:	58d3      	ldr	r3, [r2, r3]
 80049f4:	681a      	ldr	r2, [r3, #0]
 80049f6:	6879      	ldr	r1, [r7, #4]
 80049f8:	2384      	movs	r3, #132	; 0x84
 80049fa:	009b      	lsls	r3, r3, #2
 80049fc:	58cb      	ldr	r3, [r1, r3]
 80049fe:	2120      	movs	r1, #32
 8004a00:	438a      	bics	r2, r1
 8004a02:	601a      	str	r2, [r3, #0]
	// We have to disable the IRQs, as the IRQ may bump the tail.
	uint32_t count = UART_BFR_WRAP(uart->rx.head - uart->rx.tail);
 8004a04:	687a      	ldr	r2, [r7, #4]
 8004a06:	2382      	movs	r3, #130	; 0x82
 8004a08:	009b      	lsls	r3, r3, #2
 8004a0a:	58d2      	ldr	r2, [r2, r3]
 8004a0c:	6879      	ldr	r1, [r7, #4]
 8004a0e:	2383      	movs	r3, #131	; 0x83
 8004a10:	009b      	lsls	r3, r3, #2
 8004a12:	58cb      	ldr	r3, [r1, r3]
 8004a14:	1ad3      	subs	r3, r2, r3
 8004a16:	22ff      	movs	r2, #255	; 0xff
 8004a18:	4013      	ands	r3, r2
 8004a1a:	60fb      	str	r3, [r7, #12]
	__UART_RX_ENABLE(uart);
 8004a1c:	687a      	ldr	r2, [r7, #4]
 8004a1e:	2384      	movs	r3, #132	; 0x84
 8004a20:	009b      	lsls	r3, r3, #2
 8004a22:	58d3      	ldr	r3, [r2, r3]
 8004a24:	681a      	ldr	r2, [r3, #0]
 8004a26:	6879      	ldr	r1, [r7, #4]
 8004a28:	2384      	movs	r3, #132	; 0x84
 8004a2a:	009b      	lsls	r3, r3, #2
 8004a2c:	58cb      	ldr	r3, [r1, r3]
 8004a2e:	2120      	movs	r1, #32
 8004a30:	430a      	orrs	r2, r1
 8004a32:	601a      	str	r2, [r3, #0]
	return count;
 8004a34:	68fb      	ldr	r3, [r7, #12]
}
 8004a36:	0018      	movs	r0, r3
 8004a38:	46bd      	mov	sp, r7
 8004a3a:	b004      	add	sp, #16
 8004a3c:	bd80      	pop	{r7, pc}

08004a3e <UART_Read>:

uint32_t UART_Read(UART_t * uart, uint8_t * data, uint32_t count)
{
 8004a3e:	b580      	push	{r7, lr}
 8004a40:	b088      	sub	sp, #32
 8004a42:	af00      	add	r7, sp, #0
 8004a44:	60f8      	str	r0, [r7, #12]
 8004a46:	60b9      	str	r1, [r7, #8]
 8004a48:	607a      	str	r2, [r7, #4]
	uint32_t available = UART_ReadCount(uart);
 8004a4a:	68fb      	ldr	r3, [r7, #12]
 8004a4c:	0018      	movs	r0, r3
 8004a4e:	f7ff ffc9 	bl	80049e4 <UART_ReadCount>
 8004a52:	0003      	movs	r3, r0
 8004a54:	617b      	str	r3, [r7, #20]
	if (available < count)
 8004a56:	697a      	ldr	r2, [r7, #20]
 8004a58:	687b      	ldr	r3, [r7, #4]
 8004a5a:	429a      	cmp	r2, r3
 8004a5c:	d201      	bcs.n	8004a62 <UART_Read+0x24>
	{
		count = available;
 8004a5e:	697b      	ldr	r3, [r7, #20]
 8004a60:	607b      	str	r3, [r7, #4]
	}

	// As long as we read faster than the tail is nudged, we should be fine.
	uint32_t tail = uart->rx.tail;
 8004a62:	68fa      	ldr	r2, [r7, #12]
 8004a64:	2383      	movs	r3, #131	; 0x83
 8004a66:	009b      	lsls	r3, r3, #2
 8004a68:	58d3      	ldr	r3, [r2, r3]
 8004a6a:	61fb      	str	r3, [r7, #28]
	for (uint32_t i = 0; i < count; i++)
 8004a6c:	2300      	movs	r3, #0
 8004a6e:	61bb      	str	r3, [r7, #24]
 8004a70:	e012      	b.n	8004a98 <UART_Read+0x5a>
	{
		*data++ = uart->rx.buffer[tail];
 8004a72:	68bb      	ldr	r3, [r7, #8]
 8004a74:	1c5a      	adds	r2, r3, #1
 8004a76:	60ba      	str	r2, [r7, #8]
 8004a78:	68f8      	ldr	r0, [r7, #12]
 8004a7a:	2284      	movs	r2, #132	; 0x84
 8004a7c:	0052      	lsls	r2, r2, #1
 8004a7e:	69f9      	ldr	r1, [r7, #28]
 8004a80:	1841      	adds	r1, r0, r1
 8004a82:	188a      	adds	r2, r1, r2
 8004a84:	7812      	ldrb	r2, [r2, #0]
 8004a86:	701a      	strb	r2, [r3, #0]
		tail = UART_BFR_WRAP(tail + 1);
 8004a88:	69fb      	ldr	r3, [r7, #28]
 8004a8a:	3301      	adds	r3, #1
 8004a8c:	22ff      	movs	r2, #255	; 0xff
 8004a8e:	4013      	ands	r3, r2
 8004a90:	61fb      	str	r3, [r7, #28]
	for (uint32_t i = 0; i < count; i++)
 8004a92:	69bb      	ldr	r3, [r7, #24]
 8004a94:	3301      	adds	r3, #1
 8004a96:	61bb      	str	r3, [r7, #24]
 8004a98:	69ba      	ldr	r2, [r7, #24]
 8004a9a:	687b      	ldr	r3, [r7, #4]
 8004a9c:	429a      	cmp	r2, r3
 8004a9e:	d3e8      	bcc.n	8004a72 <UART_Read+0x34>
	}
	uart->rx.tail = tail;
 8004aa0:	68fa      	ldr	r2, [r7, #12]
 8004aa2:	2383      	movs	r3, #131	; 0x83
 8004aa4:	009b      	lsls	r3, r3, #2
 8004aa6:	69f9      	ldr	r1, [r7, #28]
 8004aa8:	50d1      	str	r1, [r2, r3]

	return count;
 8004aaa:	687b      	ldr	r3, [r7, #4]
}
 8004aac:	0018      	movs	r0, r3
 8004aae:	46bd      	mov	sp, r7
 8004ab0:	b008      	add	sp, #32
 8004ab2:	bd80      	pop	{r7, pc}

08004ab4 <UART_ReadFlush>:
	uart->rx.tail = UART_BFR_WRAP(tail + 1);
	return b;
}

void UART_ReadFlush(UART_t * uart)
{
 8004ab4:	b580      	push	{r7, lr}
 8004ab6:	b082      	sub	sp, #8
 8004ab8:	af00      	add	r7, sp, #0
 8004aba:	6078      	str	r0, [r7, #4]
	__UART_RX_DISABLE(uart);
 8004abc:	687a      	ldr	r2, [r7, #4]
 8004abe:	2384      	movs	r3, #132	; 0x84
 8004ac0:	009b      	lsls	r3, r3, #2
 8004ac2:	58d3      	ldr	r3, [r2, r3]
 8004ac4:	681a      	ldr	r2, [r3, #0]
 8004ac6:	6879      	ldr	r1, [r7, #4]
 8004ac8:	2384      	movs	r3, #132	; 0x84
 8004aca:	009b      	lsls	r3, r3, #2
 8004acc:	58cb      	ldr	r3, [r1, r3]
 8004ace:	2120      	movs	r1, #32
 8004ad0:	438a      	bics	r2, r1
 8004ad2:	601a      	str	r2, [r3, #0]
	uart->rx.tail = uart->rx.head;
 8004ad4:	687a      	ldr	r2, [r7, #4]
 8004ad6:	2382      	movs	r3, #130	; 0x82
 8004ad8:	009b      	lsls	r3, r3, #2
 8004ada:	58d1      	ldr	r1, [r2, r3]
 8004adc:	687a      	ldr	r2, [r7, #4]
 8004ade:	2383      	movs	r3, #131	; 0x83
 8004ae0:	009b      	lsls	r3, r3, #2
 8004ae2:	50d1      	str	r1, [r2, r3]
	__UART_RX_ENABLE(uart);
 8004ae4:	687a      	ldr	r2, [r7, #4]
 8004ae6:	2384      	movs	r3, #132	; 0x84
 8004ae8:	009b      	lsls	r3, r3, #2
 8004aea:	58d3      	ldr	r3, [r2, r3]
 8004aec:	681a      	ldr	r2, [r3, #0]
 8004aee:	6879      	ldr	r1, [r7, #4]
 8004af0:	2384      	movs	r3, #132	; 0x84
 8004af2:	009b      	lsls	r3, r3, #2
 8004af4:	58cb      	ldr	r3, [r1, r3]
 8004af6:	2120      	movs	r1, #32
 8004af8:	430a      	orrs	r2, r1
 8004afa:	601a      	str	r2, [r3, #0]
}
 8004afc:	46c0      	nop			; (mov r8, r8)
 8004afe:	46bd      	mov	sp, r7
 8004b00:	b002      	add	sp, #8
 8004b02:	bd80      	pop	{r7, pc}

08004b04 <UARTx_Init>:
/*
 * PRIVATE FUNCTIONS
 */

static void UARTx_Init(UART_t * uart)
{
 8004b04:	b580      	push	{r7, lr}
 8004b06:	b082      	sub	sp, #8
 8004b08:	af00      	add	r7, sp, #0
 8004b0a:	6078      	str	r0, [r7, #4]
#ifdef UARTLP_GPIO
	if (uart == UART_LP)
 8004b0c:	4b0c      	ldr	r3, [pc, #48]	; (8004b40 <UARTx_Init+0x3c>)
 8004b0e:	681b      	ldr	r3, [r3, #0]
 8004b10:	687a      	ldr	r2, [r7, #4]
 8004b12:	429a      	cmp	r2, r3
 8004b14:	d110      	bne.n	8004b38 <UARTx_Init+0x34>
	{
		__HAL_RCC_LPUART1_CLK_ENABLE();
 8004b16:	4b0b      	ldr	r3, [pc, #44]	; (8004b44 <UARTx_Init+0x40>)
 8004b18:	6b9a      	ldr	r2, [r3, #56]	; 0x38
 8004b1a:	4b0a      	ldr	r3, [pc, #40]	; (8004b44 <UARTx_Init+0x40>)
 8004b1c:	2180      	movs	r1, #128	; 0x80
 8004b1e:	02c9      	lsls	r1, r1, #11
 8004b20:	430a      	orrs	r2, r1
 8004b22:	639a      	str	r2, [r3, #56]	; 0x38
		GPIO_EnableAlternate(UARTLP_GPIO, UARTLP_PINS, 0, UARTLP_AF);
 8004b24:	2380      	movs	r3, #128	; 0x80
 8004b26:	0119      	lsls	r1, r3, #4
 8004b28:	4807      	ldr	r0, [pc, #28]	; (8004b48 <UARTx_Init+0x44>)
 8004b2a:	2304      	movs	r3, #4
 8004b2c:	2200      	movs	r2, #0
 8004b2e:	f7ff f91b 	bl	8003d68 <GPIO_EnableAlternate>
		HAL_NVIC_EnableIRQ(LPUART1_IRQn);
 8004b32:	201d      	movs	r0, #29
 8004b34:	f7fd fa09 	bl	8001f4a <HAL_NVIC_EnableIRQ>
		__HAL_RCC_USART5_CLK_ENABLE();
		GPIO_EnableAlternate(UART5_GPIO, UART5_PINS, 0, UART5_AF);
		HAL_NVIC_EnableIRQ(USART4_5_IRQn);
	}
#endif
}
 8004b38:	46c0      	nop			; (mov r8, r8)
 8004b3a:	46bd      	mov	sp, r7
 8004b3c:	b002      	add	sp, #8
 8004b3e:	bd80      	pop	{r7, pc}
 8004b40:	2000028c 	.word	0x2000028c
 8004b44:	40021000 	.word	0x40021000
 8004b48:	50000400 	.word	0x50000400

08004b4c <UARTx_Deinit>:

static void UARTx_Deinit(UART_t * uart)
{
 8004b4c:	b580      	push	{r7, lr}
 8004b4e:	b082      	sub	sp, #8
 8004b50:	af00      	add	r7, sp, #0
 8004b52:	6078      	str	r0, [r7, #4]
#ifdef UARTLP_GPIO
	if (uart == UART_LP)
 8004b54:	4b0c      	ldr	r3, [pc, #48]	; (8004b88 <UARTx_Deinit+0x3c>)
 8004b56:	681b      	ldr	r3, [r3, #0]
 8004b58:	687a      	ldr	r2, [r7, #4]
 8004b5a:	429a      	cmp	r2, r3
 8004b5c:	d10f      	bne.n	8004b7e <UARTx_Deinit+0x32>
	{
		HAL_NVIC_DisableIRQ(LPUART1_IRQn);
 8004b5e:	201d      	movs	r0, #29
 8004b60:	f7fd fa03 	bl	8001f6a <HAL_NVIC_DisableIRQ>
		__HAL_RCC_LPUART1_CLK_DISABLE();
 8004b64:	4b09      	ldr	r3, [pc, #36]	; (8004b8c <UARTx_Deinit+0x40>)
 8004b66:	6b9a      	ldr	r2, [r3, #56]	; 0x38
 8004b68:	4b08      	ldr	r3, [pc, #32]	; (8004b8c <UARTx_Deinit+0x40>)
 8004b6a:	4909      	ldr	r1, [pc, #36]	; (8004b90 <UARTx_Deinit+0x44>)
 8004b6c:	400a      	ands	r2, r1
 8004b6e:	639a      	str	r2, [r3, #56]	; 0x38
		GPIO_Deinit(UARTLP_GPIO, UARTLP_PINS);
 8004b70:	2380      	movs	r3, #128	; 0x80
 8004b72:	011b      	lsls	r3, r3, #4
 8004b74:	4a07      	ldr	r2, [pc, #28]	; (8004b94 <UARTx_Deinit+0x48>)
 8004b76:	0019      	movs	r1, r3
 8004b78:	0010      	movs	r0, r2
 8004b7a:	f7ff fdf1 	bl	8004760 <GPIO_Deinit>
		HAL_NVIC_DisableIRQ(USART4_5_IRQn);
		__HAL_RCC_USART5_CLK_DISABLE();
		GPIO_Deinit(UART5_GPIO, UART5_PINS);
	}
#endif
}
 8004b7e:	46c0      	nop			; (mov r8, r8)
 8004b80:	46bd      	mov	sp, r7
 8004b82:	b002      	add	sp, #8
 8004b84:	bd80      	pop	{r7, pc}
 8004b86:	46c0      	nop			; (mov r8, r8)
 8004b88:	2000028c 	.word	0x2000028c
 8004b8c:	40021000 	.word	0x40021000
 8004b90:	fffbffff 	.word	0xfffbffff
 8004b94:	50000400 	.word	0x50000400

08004b98 <UART_IRQHandler>:
 * INTERRUPT ROUTINES
 */


void UART_IRQHandler(UART_t *uart)
{
 8004b98:	b580      	push	{r7, lr}
 8004b9a:	b084      	sub	sp, #16
 8004b9c:	af00      	add	r7, sp, #0
 8004b9e:	6078      	str	r0, [r7, #4]
	uint32_t flags = uart->Instance->ISR;
 8004ba0:	687a      	ldr	r2, [r7, #4]
 8004ba2:	2384      	movs	r3, #132	; 0x84
 8004ba4:	009b      	lsls	r3, r3, #2
 8004ba6:	58d3      	ldr	r3, [r2, r3]
 8004ba8:	69db      	ldr	r3, [r3, #28]
 8004baa:	60fb      	str	r3, [r7, #12]

	if (flags & USART_ISR_RXNE)
 8004bac:	68fb      	ldr	r3, [r7, #12]
 8004bae:	2220      	movs	r2, #32
 8004bb0:	4013      	ands	r3, r2
 8004bb2:	d032      	beq.n	8004c1a <UART_IRQHandler+0x82>
	{
		// New RX data. Put it in the RX buffer.
		uart->rx.buffer[uart->rx.head] = uart->Instance->RDR;
 8004bb4:	687a      	ldr	r2, [r7, #4]
 8004bb6:	2384      	movs	r3, #132	; 0x84
 8004bb8:	009b      	lsls	r3, r3, #2
 8004bba:	58d3      	ldr	r3, [r2, r3]
 8004bbc:	6a59      	ldr	r1, [r3, #36]	; 0x24
 8004bbe:	687a      	ldr	r2, [r7, #4]
 8004bc0:	2382      	movs	r3, #130	; 0x82
 8004bc2:	009b      	lsls	r3, r3, #2
 8004bc4:	58d2      	ldr	r2, [r2, r3]
 8004bc6:	b2c8      	uxtb	r0, r1
 8004bc8:	6879      	ldr	r1, [r7, #4]
 8004bca:	2384      	movs	r3, #132	; 0x84
 8004bcc:	005b      	lsls	r3, r3, #1
 8004bce:	188a      	adds	r2, r1, r2
 8004bd0:	18d3      	adds	r3, r2, r3
 8004bd2:	1c02      	adds	r2, r0, #0
 8004bd4:	701a      	strb	r2, [r3, #0]
		uart->rx.head = UART_BFR_WRAP(uart->rx.head + 1);
 8004bd6:	687a      	ldr	r2, [r7, #4]
 8004bd8:	2382      	movs	r3, #130	; 0x82
 8004bda:	009b      	lsls	r3, r3, #2
 8004bdc:	58d3      	ldr	r3, [r2, r3]
 8004bde:	3301      	adds	r3, #1
 8004be0:	22ff      	movs	r2, #255	; 0xff
 8004be2:	4013      	ands	r3, r2
 8004be4:	0019      	movs	r1, r3
 8004be6:	687a      	ldr	r2, [r7, #4]
 8004be8:	2382      	movs	r3, #130	; 0x82
 8004bea:	009b      	lsls	r3, r3, #2
 8004bec:	50d1      	str	r1, [r2, r3]
		if (uart->rx.head == uart->rx.tail) {
 8004bee:	687a      	ldr	r2, [r7, #4]
 8004bf0:	2382      	movs	r3, #130	; 0x82
 8004bf2:	009b      	lsls	r3, r3, #2
 8004bf4:	58d2      	ldr	r2, [r2, r3]
 8004bf6:	6879      	ldr	r1, [r7, #4]
 8004bf8:	2383      	movs	r3, #131	; 0x83
 8004bfa:	009b      	lsls	r3, r3, #2
 8004bfc:	58cb      	ldr	r3, [r1, r3]
 8004bfe:	429a      	cmp	r2, r3
 8004c00:	d10b      	bne.n	8004c1a <UART_IRQHandler+0x82>
			// The head just caught up with the tail. Uh oh. Increment the tail.
			// Note, this causes flaming huge issues.
			uart->rx.tail = UART_BFR_WRAP(uart->rx.tail + 1);
 8004c02:	687a      	ldr	r2, [r7, #4]
 8004c04:	2383      	movs	r3, #131	; 0x83
 8004c06:	009b      	lsls	r3, r3, #2
 8004c08:	58d3      	ldr	r3, [r2, r3]
 8004c0a:	3301      	adds	r3, #1
 8004c0c:	22ff      	movs	r2, #255	; 0xff
 8004c0e:	4013      	ands	r3, r2
 8004c10:	0019      	movs	r1, r3
 8004c12:	687a      	ldr	r2, [r7, #4]
 8004c14:	2383      	movs	r3, #131	; 0x83
 8004c16:	009b      	lsls	r3, r3, #2
 8004c18:	50d1      	str	r1, [r2, r3]
		}
	}

	if (flags & USART_ISR_TXE)
 8004c1a:	68fb      	ldr	r3, [r7, #12]
 8004c1c:	2280      	movs	r2, #128	; 0x80
 8004c1e:	4013      	ands	r3, r2
 8004c20:	d02e      	beq.n	8004c80 <UART_IRQHandler+0xe8>
	{
		// No byte being transmitted..
		if (uart->tx.head != uart->tx.tail)
 8004c22:	687a      	ldr	r2, [r7, #4]
 8004c24:	2380      	movs	r3, #128	; 0x80
 8004c26:	005b      	lsls	r3, r3, #1
 8004c28:	58d2      	ldr	r2, [r2, r3]
 8004c2a:	6879      	ldr	r1, [r7, #4]
 8004c2c:	2382      	movs	r3, #130	; 0x82
 8004c2e:	005b      	lsls	r3, r3, #1
 8004c30:	58cb      	ldr	r3, [r1, r3]
 8004c32:	429a      	cmp	r2, r3
 8004c34:	d018      	beq.n	8004c68 <UART_IRQHandler+0xd0>
		{
			// Send a byte out.
			uart->Instance->TDR = uart->tx.buffer[uart->tx.tail];
 8004c36:	687a      	ldr	r2, [r7, #4]
 8004c38:	2382      	movs	r3, #130	; 0x82
 8004c3a:	005b      	lsls	r3, r3, #1
 8004c3c:	58d3      	ldr	r3, [r2, r3]
 8004c3e:	687a      	ldr	r2, [r7, #4]
 8004c40:	5cd1      	ldrb	r1, [r2, r3]
 8004c42:	687a      	ldr	r2, [r7, #4]
 8004c44:	2384      	movs	r3, #132	; 0x84
 8004c46:	009b      	lsls	r3, r3, #2
 8004c48:	58d3      	ldr	r3, [r2, r3]
 8004c4a:	000a      	movs	r2, r1
 8004c4c:	629a      	str	r2, [r3, #40]	; 0x28
			uart->tx.tail = UART_BFR_WRAP(uart->tx.tail + 1);
 8004c4e:	687a      	ldr	r2, [r7, #4]
 8004c50:	2382      	movs	r3, #130	; 0x82
 8004c52:	005b      	lsls	r3, r3, #1
 8004c54:	58d3      	ldr	r3, [r2, r3]
 8004c56:	3301      	adds	r3, #1
 8004c58:	22ff      	movs	r2, #255	; 0xff
 8004c5a:	4013      	ands	r3, r2
 8004c5c:	0019      	movs	r1, r3
 8004c5e:	687a      	ldr	r2, [r7, #4]
 8004c60:	2382      	movs	r3, #130	; 0x82
 8004c62:	005b      	lsls	r3, r3, #1
 8004c64:	50d1      	str	r1, [r2, r3]
 8004c66:	e00b      	b.n	8004c80 <UART_IRQHandler+0xe8>
		}
		else
		{
			// Tail caught up with head: no bytes remain.
			// Disable the TX IRQ.
			__UART_TX_DISABLE(uart);
 8004c68:	687a      	ldr	r2, [r7, #4]
 8004c6a:	2384      	movs	r3, #132	; 0x84
 8004c6c:	009b      	lsls	r3, r3, #2
 8004c6e:	58d3      	ldr	r3, [r2, r3]
 8004c70:	681a      	ldr	r2, [r3, #0]
 8004c72:	6879      	ldr	r1, [r7, #4]
 8004c74:	2384      	movs	r3, #132	; 0x84
 8004c76:	009b      	lsls	r3, r3, #2
 8004c78:	58cb      	ldr	r3, [r1, r3]
 8004c7a:	2180      	movs	r1, #128	; 0x80
 8004c7c:	438a      	bics	r2, r1
 8004c7e:	601a      	str	r2, [r3, #0]
		}
	}

	if (flags & (USART_ISR_ORE | USART_ISR_PE | USART_ISR_NE | USART_ISR_FE))
 8004c80:	68fb      	ldr	r3, [r7, #12]
 8004c82:	220f      	movs	r2, #15
 8004c84:	4013      	ands	r3, r2
 8004c86:	d00b      	beq.n	8004ca0 <UART_IRQHandler+0x108>
	{
		__UART_CLEAR_FLAGS(uart, (UART_CLEAR_PEF | UART_CLEAR_FEF | UART_CLEAR_NEF | UART_CLEAR_OREF));
 8004c88:	687a      	ldr	r2, [r7, #4]
 8004c8a:	2384      	movs	r3, #132	; 0x84
 8004c8c:	009b      	lsls	r3, r3, #2
 8004c8e:	58d3      	ldr	r3, [r2, r3]
 8004c90:	6a1a      	ldr	r2, [r3, #32]
 8004c92:	6879      	ldr	r1, [r7, #4]
 8004c94:	2384      	movs	r3, #132	; 0x84
 8004c96:	009b      	lsls	r3, r3, #2
 8004c98:	58cb      	ldr	r3, [r1, r3]
 8004c9a:	210f      	movs	r1, #15
 8004c9c:	430a      	orrs	r2, r1
 8004c9e:	621a      	str	r2, [r3, #32]
	}
}
 8004ca0:	46c0      	nop			; (mov r8, r8)
 8004ca2:	46bd      	mov	sp, r7
 8004ca4:	b004      	add	sp, #16
 8004ca6:	bd80      	pop	{r7, pc}

08004ca8 <LPUART1_IRQHandler>:


#ifdef UARTLP_GPIO
void LPUART1_IRQHandler(void)
{
 8004ca8:	b580      	push	{r7, lr}
 8004caa:	af00      	add	r7, sp, #0
	UART_IRQHandler(UART_LP);
 8004cac:	4b03      	ldr	r3, [pc, #12]	; (8004cbc <LPUART1_IRQHandler+0x14>)
 8004cae:	681b      	ldr	r3, [r3, #0]
 8004cb0:	0018      	movs	r0, r3
 8004cb2:	f7ff ff71 	bl	8004b98 <UART_IRQHandler>
}
 8004cb6:	46c0      	nop			; (mov r8, r8)
 8004cb8:	46bd      	mov	sp, r7
 8004cba:	bd80      	pop	{r7, pc}
 8004cbc:	2000028c 	.word	0x2000028c

08004cc0 <CLK_GetHCLKFreq>:
{
 8004cc0:	b580      	push	{r7, lr}
 8004cc2:	af00      	add	r7, sp, #0
	return CLK_SYSCLK_FREQ;
 8004cc4:	4b01      	ldr	r3, [pc, #4]	; (8004ccc <CLK_GetHCLKFreq+0xc>)
}
 8004cc6:	0018      	movs	r0, r3
 8004cc8:	46bd      	mov	sp, r7
 8004cca:	bd80      	pop	{r7, pc}
 8004ccc:	01e84800 	.word	0x01e84800

08004cd0 <US_Delay>:
}

#else //US_ENABLE

void __attribute__((optimize("-Os"))) US_Delay(uint32_t us)
{
 8004cd0:	b513      	push	{r0, r1, r4, lr}
 8004cd2:	0004      	movs	r4, r0
	// -Os will generate a straight forward output.
	// 11225 is our tuned factor.
	volatile uint32_t i = (us * (CLK_GetHCLKFreq() >> 10)) / 11225;
 8004cd4:	f7ff fff4 	bl	8004cc0 <CLK_GetHCLKFreq>
 8004cd8:	0a80      	lsrs	r0, r0, #10
 8004cda:	4360      	muls	r0, r4
 8004cdc:	4904      	ldr	r1, [pc, #16]	; (8004cf0 <US_Delay+0x20>)
 8004cde:	f7fb fa13 	bl	8000108 <__udivsi3>
 8004ce2:	9001      	str	r0, [sp, #4]
	while(i--);
 8004ce4:	9b01      	ldr	r3, [sp, #4]
 8004ce6:	1e5a      	subs	r2, r3, #1
 8004ce8:	9201      	str	r2, [sp, #4]
 8004cea:	2b00      	cmp	r3, #0
 8004cec:	d1fa      	bne.n	8004ce4 <US_Delay+0x14>
}
 8004cee:	bd13      	pop	{r0, r1, r4, pc}
 8004cf0:	00002bd9 	.word	0x00002bd9

08004cf4 <__libc_init_array>:
 8004cf4:	b570      	push	{r4, r5, r6, lr}
 8004cf6:	2600      	movs	r6, #0
 8004cf8:	4d0c      	ldr	r5, [pc, #48]	; (8004d2c <__libc_init_array+0x38>)
 8004cfa:	4c0d      	ldr	r4, [pc, #52]	; (8004d30 <__libc_init_array+0x3c>)
 8004cfc:	1b64      	subs	r4, r4, r5
 8004cfe:	10a4      	asrs	r4, r4, #2
 8004d00:	42a6      	cmp	r6, r4
 8004d02:	d109      	bne.n	8004d18 <__libc_init_array+0x24>
 8004d04:	2600      	movs	r6, #0
 8004d06:	f000 f82b 	bl	8004d60 <_init>
 8004d0a:	4d0a      	ldr	r5, [pc, #40]	; (8004d34 <__libc_init_array+0x40>)
 8004d0c:	4c0a      	ldr	r4, [pc, #40]	; (8004d38 <__libc_init_array+0x44>)
 8004d0e:	1b64      	subs	r4, r4, r5
 8004d10:	10a4      	asrs	r4, r4, #2
 8004d12:	42a6      	cmp	r6, r4
 8004d14:	d105      	bne.n	8004d22 <__libc_init_array+0x2e>
 8004d16:	bd70      	pop	{r4, r5, r6, pc}
 8004d18:	00b3      	lsls	r3, r6, #2
 8004d1a:	58eb      	ldr	r3, [r5, r3]
 8004d1c:	4798      	blx	r3
 8004d1e:	3601      	adds	r6, #1
 8004d20:	e7ee      	b.n	8004d00 <__libc_init_array+0xc>
 8004d22:	00b3      	lsls	r3, r6, #2
 8004d24:	58eb      	ldr	r3, [r5, r3]
 8004d26:	4798      	blx	r3
 8004d28:	3601      	adds	r6, #1
 8004d2a:	e7f2      	b.n	8004d12 <__libc_init_array+0x1e>
 8004d2c:	08004d80 	.word	0x08004d80
 8004d30:	08004d80 	.word	0x08004d80
 8004d34:	08004d80 	.word	0x08004d80
 8004d38:	08004d84 	.word	0x08004d84

08004d3c <memcpy>:
 8004d3c:	2300      	movs	r3, #0
 8004d3e:	b510      	push	{r4, lr}
 8004d40:	429a      	cmp	r2, r3
 8004d42:	d100      	bne.n	8004d46 <memcpy+0xa>
 8004d44:	bd10      	pop	{r4, pc}
 8004d46:	5ccc      	ldrb	r4, [r1, r3]
 8004d48:	54c4      	strb	r4, [r0, r3]
 8004d4a:	3301      	adds	r3, #1
 8004d4c:	e7f8      	b.n	8004d40 <memcpy+0x4>

08004d4e <memset>:
 8004d4e:	0003      	movs	r3, r0
 8004d50:	1882      	adds	r2, r0, r2
 8004d52:	4293      	cmp	r3, r2
 8004d54:	d100      	bne.n	8004d58 <memset+0xa>
 8004d56:	4770      	bx	lr
 8004d58:	7019      	strb	r1, [r3, #0]
 8004d5a:	3301      	adds	r3, #1
 8004d5c:	e7f9      	b.n	8004d52 <memset+0x4>
	...

08004d60 <_init>:
 8004d60:	b5f8      	push	{r3, r4, r5, r6, r7, lr}
 8004d62:	46c0      	nop			; (mov r8, r8)
 8004d64:	bcf8      	pop	{r3, r4, r5, r6, r7}
 8004d66:	bc08      	pop	{r3}
 8004d68:	469e      	mov	lr, r3
 8004d6a:	4770      	bx	lr

08004d6c <_fini>:
 8004d6c:	b5f8      	push	{r3, r4, r5, r6, r7, lr}
 8004d6e:	46c0      	nop			; (mov r8, r8)
 8004d70:	bcf8      	pop	{r3, r4, r5, r6, r7}
 8004d72:	bc08      	pop	{r3}
 8004d74:	469e      	mov	lr, r3
 8004d76:	4770      	bx	lr
